
../ath9k-htc-firmware-blob/magpie/fw.elf:     Dateiformat elf32-xtensa-be
../ath9k-htc-firmware-blob/magpie/fw.elf
Architektur: xtensa, Flags 0x00000112:
EXEC_P, HAS_SYMS, D_PAGED
Startadresse 0x00906000

Xtensa header:

Machine     = Base
Insn tables = true
Literal tables = true

Programm-Header:
    LOAD off    0x00501000 vaddr 0x00501000 paddr 0x00501000 align 2**29
         filesz 0x00001c70 memsz 0x00001c70 flags r--
    LOAD off    0x00510d00 vaddr 0x00510d00 paddr 0x00510d00 align 2**29
         filesz 0x00001f68 memsz 0x00002210 flags rw-
    LOAD off    0x00906000 vaddr 0x00906000 paddr 0x00906000 align 2**29
         filesz 0x000090fd memsz 0x000090fd flags r-x

Sektionen:
Idx Name          Größe     VMA       LMA       Datei-Off Ausr.
  0 .lit4         00019000  004e8000  004e8000  00000000  2**0
                  ALLOC
  1 .rodata       00001440  00501000  00501000  00501000  2**2
                  CONTENTS, ALLOC, LOAD, READONLY, DATA
  2 .literals     00000830  00502440  00502440  00502440  2**2
                  CONTENTS, ALLOC, LOAD, READONLY, DATA
  3 .data         00001f68  00510d00  00510d00  00510d00  2**2
                  CONTENTS, ALLOC, LOAD, DATA
  4 .bss          000002a8  00512c68  00512c68  00512c68  2**2
                  ALLOC
  5 .boot         0000027c  00906000  00906000  00906000  2**2
                  CONTENTS, ALLOC, LOAD, READONLY, CODE
  6 .text         00008e81  0090627c  0090627c  0090627c  2**2
                  CONTENTS, ALLOC, LOAD, READONLY, CODE
  7 .debug_aranges 00000348  00000000  00000000  0090f0fd  2**0
                  CONTENTS, READONLY, DEBUGGING
  8 .debug_info   0005bfda  00000000  00000000  0090f445  2**0
                  CONTENTS, READONLY, DEBUGGING
  9 .debug_abbrev 00005ed7  00000000  00000000  0096b41f  2**0
                  CONTENTS, READONLY, DEBUGGING
 10 .debug_line   0001170c  00000000  00000000  009712f6  2**0
                  CONTENTS, READONLY, DEBUGGING
 11 .debug_frame  00001fb8  00000000  00000000  00982a04  2**2
                  CONTENTS, READONLY, DEBUGGING
 12 .debug_str    00008628  00000000  00000000  009849bc  2**0
                  CONTENTS, READONLY, DEBUGGING
 13 .debug_loc    0000eb45  00000000  00000000  0098cfe4  2**0
                  CONTENTS, READONLY, DEBUGGING
 14 .xt.prop      00004fe0  00000000  00000000  0099bb29  2**0
                  CONTENTS, READONLY
 15 .debug_ranges 000017d0  00000000  00000000  009a0b09  2**0
                  CONTENTS, READONLY, DEBUGGING
 16 .comment      0000006d  00000000  00000000  009a22d9  2**0
                  CONTENTS, READONLY
 17 .xtensa.info  00000038  00000000  00000000  009a2346  2**0
                  CONTENTS, READONLY
SYMBOL TABLE:
004e8000 l    d  .lit4	00000000 .lit4
00501000 l    d  .rodata	00000000 .rodata
00502440 l    d  .literals	00000000 .literals
00510d00 l    d  .data	00000000 .data
00512c68 l    d  .bss	00000000 .bss
00906000 l    d  .boot	00000000 .boot
0090627c l    d  .text	00000000 .text
00000000 l    d  .debug_aranges	00000000 .debug_aranges
00000000 l    d  .debug_info	00000000 .debug_info
00000000 l    d  .debug_abbrev	00000000 .debug_abbrev
00000000 l    d  .debug_line	00000000 .debug_line
00000000 l    d  .debug_frame	00000000 .debug_frame
00000000 l    d  .debug_str	00000000 .debug_str
00000000 l    d  .debug_loc	00000000 .debug_loc
00000000 l    d  .xt.prop	00000000 .xt.prop
00000000 l    d  .debug_ranges	00000000 .debug_ranges
00000000 l    d  .comment	00000000 .comment
00000000 l    d  .xtensa.info	00000000 .xtensa.info
00000000 l    df *ABS*	00000000 magpie.c
00501000 l     O .rodata	0000000d __FUNCTION__$3859
00000000 l    df *ABS*	00000000 adf_nbuf.c
00501010 l     O .rodata	00000010 __FUNCTION__$4966
00501020 l     O .rodata	0000001c __FUNCTION__$4971
0050103c l     O .rodata	0000001c __FUNCTION__$4976
00501058 l     O .rodata	00000012 __FUNCTION__$4982
00501084 l     O .rodata	00000010 __FUNCTION__$5011
00501094 l     O .rodata	00000013 __FUNCTION__$5016
005010a8 l     O .rodata	00000014 __FUNCTION__$5029
005010bc l     O .rodata	0000001b __FUNCTION__$5086
005010d8 l     O .rodata	00000019 __FUNCTION__$5099
0050106c l     O .rodata	00000015 __FUNCTION__$5006
00000000 l    df *ABS*	00000000 dbg_api.c
00906dd8 l     F .text	00000011 db_incorect_format
00906dec l     F .text	00000028 zf_debug_init
00906e14 l     F .text	00000066 db_ascii_to_hex
00906e7c l     F .text	00000037 db_hex_to_ascii
00906eb4 l     F .text	0000003b db_help_cmd
00906ef0 l     F .text	00000013 db_cmd_starthtc
00906f04 l     F .text	0000005c db_cmd_memcmp
00906f60 l     F .text	000000a8 db_cmd_memdump
00907008 l     F .text	000000c0 db_str_cmd
009070c8 l     F .text	00000083 db_ldr_cmd
0090714c l     F .text	000000dd db_intr_cmd
0090722c l     F .text	0000014a db_wdt_cmd
00907378 l     F .text	00000036 db_usb_cmd
009073b0 l     F .text	00000024 db_info_cmd
009073d4 l     F .text	00000264 zf_debug_task
00907674 l     F .text	0000006f db_clock_cmd
00000000 l    df *ABS*	00000000 usb_api_main_patch.c
00510d00 l     O .data	00000002 cmd_is_new$3834
00512c80 l     O .bss	00000004 evntbuf$3832
00512c84 l     O .bss	00000004 regaddr$3833
00512c88 l     O .bss	00000002 buf_len$3831
00510d02 l     O .data	00000002 cmd_is_new$3853
00512c8c l     O .bss	00000004 buf$3851
00512c90 l     O .bss	00000002 cmd_len$3850
005011c0 l     O .rodata	00000012 __func__$3854
00512c94 l     O .bss	00000004 regaddr$3849
00000000 l    df *ABS*	00000000 if_ath.c
00907b5c l     F .text	00000014 __adf_os_mem_alloc
00907b70 l     F .text	00000013 __adf_os_mem_copy
00907b84 l     F .text	00000013 __adf_os_mem_set
00907b98 l     F .text	00000005 tgt_HTCRecv_uapsdhandler
00501258 l     O .rodata	00000019 __FUNCTION__$7595
00907ba0 l     F .text	0000001c dispatch_magpie_sys_cmds
00907bbc l     F .text	00000005 htc_setup_comp
0090801c l     F .text	00000130 tgt_HTCSendCompleteHandler
00907f50 l     F .text	00000070 tgt_ServiceConnect
00907bc4 l     F .text	0000002e tgt_reg_service
00907bf4 l     F .text	00000010 tgt_HTCRecv_mgmthandler
00907c04 l     F .text	000000c2 ath_tgt_rx_tasklet
00907cc8 l     F .text	00000098 ath_descdma_cleanup
00907d60 l     F .text	00000014 __adf_os_init_bh$isra$4
00907d74 l     F .text	00000010 __adf_os_sched_bh$isra$5
00907d84 l     F .text	00000194 ath_rxdesc_init
00512c9c l     O .bss	00000001 reset_pll$7404
00907f18 l     F .text	00000036 ath_pll_reset_ones$isra$9
005012a4 l     O .rodata	00000013 __FUNCTION__$7635
00907fc0 l     F .text	0000005c ath_reg_read_filter
0090814c l     F .text	0000004c ath_desc_free
005012c8 l     O .rodata	00000012 __FUNCTION__$7187
00908198 l     F .text	000000af ath_descdma_setup$constprop$22
00501274 l     O .rodata	0000001a __FUNCTION__$7146
00908248 l     F .text	000000aa tgt_HTCRecvMessageHandler
009082f4 l     F .text	0000003b tgt_HTCRecv_cabhandler
00908380 l     F .text	00000012 ath_fatal_tasklet
00908394 l     F .text	00000012 ath_bmiss_tasklet
00510d04 l     O .data	00000004 ath_numrxbufs
00501204 l     O .rodata	0000001a __FUNCTION__$7010
005011f8 l     O .rodata	0000000c __FUNCTION__$6952
00908b44 l     F .text	0000006a ath_hal_reg_rmw_tgt
00908bb0 l     F .text	00000084 ath_rc_mask_tgt
00908c34 l     F .text	00000023 ath_rx_stats_tgt
00908c58 l     F .text	00000042 ath_tx_stats_tgt
00908c9c l     F .text	00000032 ath_int_stats_tgt
00908cd0 l     F .text	00000062 ath_node_update_tgt
00908d34 l     F .text	0000002a ath_detach_tgt
00501220 l     O .rodata	00000014 __FUNCTION__$7326
00908d60 l     F .text	00000088 ath_enable_aggr_tgt
00908de8 l     F .text	0000002c ath_ic_update_tgt
00908e14 l     F .text	00000056 handle_rc_rate_update_cmd
00908e6c l     F .text	00000052 handle_rc_state_change_cmd
00908ec0 l     F .text	0000004a ath_hal_reg_write_tgt
00908f0c l     F .text	0000003f ath_hal_reg_read_tgt
00501234 l     O .rodata	00000013 __FUNCTION__$7349
00908f4c l     F .text	00000074 ath_vap_create_tgt
00908fc0 l     F .text	00000054 ath_vap_delete_tgt
00909014 l     F .text	0000002c ath_node_cleanup_tgt
00909040 l     F .text	00000097 ath_node_create_tgt
00501248 l     O .rodata	0000000f __FUNCTION__$6931
009090d8 l     F .text	00000078 ath_setcurmode_tgt
00909150 l     F .text	00000050 ath_flushrecv_tgt
009091a0 l     F .text	0000003a ath_stoprecv_tgt
009091dc l     F .text	00000086 ath_startrecv_tgt
00909264 l     F .text	000000c8 ath_draintxq_tgt
0090932c l     F .text	0000002e ath_tx_draintxq_tgt
0090935c l     F .text	00000023 ath_aborttx_dma_tgt
00909380 l     F .text	00000026 ath_stop_tx_dma_tgt
009093a8 l     F .text	00000040 ath_aborttxq_tgt
009093e8 l     F .text	0000004e ath_init_tgt
00909438 l     F .text	00000054 ath_enable_intr_tgt
0090948c l     F .text	00000026 ath_disable_intr_tgt
009094b4 l     F .text	0000001e ath_get_tgt_version
009094d4 l     F .text	00000013 handle_echo_command
00501290 l     O .rodata	00000014 __FUNCTION__$7070
00909500 l     F .text	000001d2 tgt_HTCRecv_beaconhandler
00510d0c l     O .data	00000100 Magpie_Sys_DispatchEntries
00510d08 l     O .data	00000004 ath_numrxdescs
005012b8 l     O .rodata	0000000f __FUNCTION__$7211
00000000 l    df *ABS*	00000000 htc.c
005012dc l     O .rodata	00000018 __FUNCTION__$4065
00000000 l    df *ABS*	00000000 wmi_svc.c
0090a434 l     F .text	0000000b WMIServiceConnect
0090a440 l     F .text	00000007 _WMI_GetPendingEventsCount
0090a448 l     F .text	00000007 _WMI_GetControlEp
0090a450 l     F .text	00000014 _WMI_RegisterDispatchTable
0090a464 l     F .text	00000005 _WMI_Shutdown
005012f4 l     O .rodata	00000016 __FUNCTION__$3864
0090a46c l     F .text	0000009e WMIRecvMessageHandler
0090a50c l     F .text	00000020 _WMI_SendCompleteHandler
0090a52c l     F .text	00000030 _WMI_AllocEvent
0090a55c l     F .text	00000036 _WMI_SendEvent
0090a594 l     F .text	0000006f _WMI_Init
00000000 l    df *ABS*	00000000 ar5416_hw.c
0050130c l     O .rodata	000000d4 ar5416hal_10
00000000 l    df *ABS*	00000000 ratectrl_11n_ln.c
0090c1bc l     F .text	000000c0 rcRateSetseries
0090c27c l     F .text	00000074 rcIsValidPhyRate
005013e0 l     O .rodata	00000028 nRetry2PerLookup$7250
0090c2f0 l     F .text	000001fe rcUpdate_ht$isra$4
0090c4f0 l     F .text	00000396 rcSibUpdate_ht$constprop$6
0090c888 l     F .text	0000002a ath_rate_newassoc_11n
00000000 l    df *ABS*	00000000 if_owl.c
0090ce8c l     F .text	00000013 __adf_os_mem_copy
0090cea0 l     F .text	0000004c ieee80211_anyhdrsize
0090ceec l     F .text	0000004b owl_tgt_tid_init
00501498 l     O .rodata	00000016 __FUNCTION__$7146
0090cf38 l     F .text	0000008b ath_tgt_txq_add_ucast
0090cfc4 l     F .text	0000006e ath_update_stats
0090d034 l     F .text	0000005e ath_tx_update_baw
0090d094 l     F .text	00000016 ath_dma_unmap
0090d0ac l     F .text	00000026 ath_tgt_skb_free
0090d0d4 l     F .text	000000a6 ath_filltxdesc
0090d17c l     F .text	0000004e ath_tx_tgt_setds
0090d1cc l     F .text	00000024 ath_tgt_tx_enqueue
0090d1f0 l     F .text	00000082 ath_update_aggr_stats$isra$2
0090d274 l     F .text	00000013 __adf_os_mem_set$constprop$13
00501430 l     O .rodata	00000040 bits_per_symbol
0090d288 l     F .text	000001fa ath_buf_set_rate
0090d484 l     F .text	00000017 ath_dma_map
00501408 l     O .rodata	0000000f __FUNCTION__$6945
0090d49c l     F .text	0000010d ath_buf_toggle
0090d5ac l     F .text	00000083 ath_tx_freebuf
0090d630 l     F .text	0000003c ath_buf_comp
0090ee44 l     F .text	000000f4 ath_bar_tx_comp
0090d66c l     F .text	0000015e ath_bar_tx
0090d7dc l     F .text	00000031 ath_tx_set_retry
0090d960 l     F .text	000000e0 ath_tx_retry_subframe
0090da40 l     F .text	000000ae ath_tx_comp_aggr_error
00501484 l     O .rodata	00000011 __FUNCTION__$7108
00501470 l     O .rodata	00000013 __FUNCTION__$7117
005014b0 l     O .rodata	00000011 __FUNCTION__$7227
005014c4 l     O .rodata	00000016 __FUNCTION__$7248
0090e818 l     F .text	0000004e ath_tgt_tx_comp_normal
005014f0 l     O .rodata	00000015 __FUNCTION__$7339
00501418 l     O .rodata	00000016 __FUNCTION__$7301
0090e574 l     F .text	0000020a ath_tgt_txq_schedule
0090e780 l     F .text	0000004a ath_aggr_resume_tid
0090e7cc l     F .text	0000004b owl_tgt_tid_cleanup
00501508 l     O .rodata	00000015 __FUNCTION__$7376
005014dc l     O .rodata	00000014 __FUNCTION__$7271
00000000 l    df *ABS*	00000000 app_start.c
0090f004 l     F .text	00000029 io32_rmw
00000000 l    df *ABS*	00000000 init.c
0090627c l     F .text	00000029 io32_rmw
00512c70 l     O .bss	00000004 loop_high
00512c74 l     O .bss	00000004 loop_low
00000000 l    df *ABS*	00000000 ah_osdep.c
00000000 l    df *ABS*	00000000 wlan_pci.c
00000000 l    df *ABS*	00000000 usb_api_magpie_patch.c
0090a63c l     F .text	00000029 io32_rmw
0090a668 l     F .text	00000068 _fw_restore_dma_fifo
0090a6d0 l     F .text	00000377 _fw_reset_dma_fifo
00000000 l    df *ABS*	00000000 if_ath_pci.c
0090ef38 l     F .text	00000005 ath_pci_suspend
0090ef40 l     F .text	00000005 ath_pci_resume
0090ef48 l     F .text	00000010 ath_pci_remove
00511bc0 l     O .data	00000020 ath_drv_info
0090ef68 l     F .text	0000007e ath_pci_probe
00511be0 l     O .data	00000160 ath_pci_id_table
00000000 l    df *ABS*	00000000 buf_pool_static.c
00000000 l    df *ABS*	00000000 cmnos_clock_patch.c
00512cbc l     O .bss	00000004 last_tick$3775
00000000 l    df *ABS*	00000000 HIF_usb_patch.c
00000000 l    df *ABS*	00000000 adf_os_dma.c
00000000 l    df *ABS*	00000000 adf_os_irq_pvt.c
00000000 l    df *ABS*	00000000 ah.c
00000000 l    df *ABS*	00000000 ar5416_phy.c
00000000 l    df *ABS*	00000000 adf_net.c
00000000 l    df *ABS*	00000000 ar5416Phy.c
00000000 l    df *ABS*	00000000 ieee80211_output.c
00000000 l    df *ABS*	00000000 
00500abc g       *ABS*	00000000 u16TxRxCounter
00906738 g     F .text	00000032 init_mem
00511388 g     O .data	000002bc ar5416_11g_table
008e37e8 g       *ABS*	00000000 HIFusb_DescTraceDump
0090ce0c g     F .text	00000036 ath_rate_tx_complete
004e8000 g       *ABS*	00000000 _rom_literal_start
00906554 g     F .text	00000054 zfGenWrongEpidEvent
00906a9c g     F .text	0000002b __adf_nbuf_dmamap_info
00512cf4 g     O .bss	000000a0 cmd_str
00510e0c g     O .data	00000002 bEepromExist
00907a58 g     F .text	00000078 bGet_descriptor_patch
0090db38 g     F .text	0000002d ath_tgt_tid_drain
00906be0 g     F .text	00000011 __adf_nbuf_last
00500ad0 g       *ABS*	00000000 u8UsbInterfaceValue
00906990 g     F .text	00000020 __adf_nbuf_copy
00512cc0 g     O .bss	00000004 _assfail_ori
00906a7c g     F .text	00000009 __adf_nbuf_map
00502440 g       *ABS*	00000000 _bss_table_end
0090f0ec g     F .text	0000000c __adf_net_register_drv
00512ca0 g     O .bss	00000004 g_wlan_intr
00906a60 g     F .text	0000001c __adf_nbuf_dmamap_create
0090ae04 g     F .text	00000052 ath_hal_get_curmode
00511d40 g     O .data	00000004 ar5416_11naRateTable
0090a16c g     F .text	0000009c HTCControlSvcProcessMsg
0051247c g     O .data	00000004 ar5416_11ngRateTable
00512d94 g     O .bss	00000002 gvLen
00909b54 g     F .text	0000000f wlan_pci_module_init
00500000 g       *ABS*	00000000 _indir_tbl
0090ad4c g     F .text	00000010 ath_hal_attach_tgt
00906db4 g     F .text	00000023 buf_pool_module_install
00501000 g       *ABS*	00000000 _lit4_end
00906c98 g     F .text	00000007 __adf_nbuf_is_cloned
00907880 g     F .text	00000107 usb_reg_out_patch
00906ac8 g     F .text	00000005 __adf_nbuf_set_rx_cksum
0090bc1c g     F .text	000000bc ar5416AbortTxDma
00512d98 g     O .bss	00000004 cmd_buf_ptr
0090f0fd g       *ABS*	00000000 _text_end
0090e868 g     F .text	00000376 ath_tgt_tx_comp_aggr
0090ac74 g     F .text	00000011 _HIFusb_isr_handler_patch
0090cdb0 g     F .text	0000002e ath_rate_attach
0090bb28 g     F .text	00000044 ar5416Set11nBurstDuration_20
009079cc g     F .text	00000022 vUsbFIFO_EPxCfg_FS_patch
00906ad8 g     F .text	000000a7 __adf_nbuf_create_frm_frag
00907750 g     F .text	00000022 cold_reboot
00501000 g       *ABS*	00000000 _lit4_start
009076fc g     F .text	0000000f cmnos_dbg_module_install
00502c70 g       *ABS*	00000000 _dram0_literal_end
0090a208 g     F .text	00000031 AdjustCreditThreshold
00502c70 g       *ABS*	00000000 _dram0_literal_start
0090ae58 g     F .text	00000029 ath_hal_wait
0090f0fd g       .text	00000000 _etext
0090bb6c g     F .text	0000006f ar5416Set11nVirtualMoreFrag_20
008e4f60 g       *ABS*	00000000 vbuf_module_install
00512c68 g     O .bss	00000004 idle_cnt
0090d810 g     F .text	00000043 owl_tgt_node_init
00907774 g     F .text	0000010a usb_status_in_patch
00909b64 g     F .text	0000000a wlan_pci_register_drv
00906938 g     F .text	0000002a __adf_nbuf_push_head
0090770c g     F .text	00000022 _fw_usbfifo_recv_command
0090eff4 g     F .text	0000000f ar5416AttachRateTables
00909d00 g     F .text	000000bf _HTC_Init
009068d8 g     F .text	0000001e __adf_nbuf_realloc_headroom
0090b958 g     F .text	00000089 ar5416Set11nAggrFirst_20
00906a94 g     F .text	00000005 __adf_nbuf_dmamap_destroy
0090de64 g     F .text	00000412 ath_tgt_send_mgt
0090c188 g     F .text	00000032 ar5416GetRateTable
00906cb8 g     F .text	0000000d __adf_nbuf_queue_init
008e6b64 g       *ABS*	00000000 memcpy
009076e4 g     F .text	00000016 dbg_timer_func
0090ce44 g     F .text	00000012 ath_rate_newassoc
00502440 g       *ABS*	00000000 _rodata_end
00906ad0 g     F .text	00000007 __adf_nbuf_get_vlan_info
0090cbb4 g     F .text	00000158 rcUpdate_11n
0090ad98 g     F .text	0000006b ath_hal_computetxtime
00500ad8 g       *ABS*	00000000 u8UsbDeviceDescriptor
0090cd0c g     F .text	000000a2 ath_tx_status_update_rate
00906cd0 g     F .text	00000007 __adf_nbuf_queue_first
00512cc4 g     O .bss	00000004 htc_handle
0090d7cc g     F .text	00000010 ATH_SKB_2_WH
0090f030 g     F .text	000000b9 ieee80211_tgt_crypto_encap
008e6a4c g       *ABS*	00000000 __udivsi3
00909e50 g     F .text	00000057 _HTC_Ready
00907ad0 g     F .text	00000010 ath_hal_getuptime
00906bf4 g     F .text	0000003b __adf_nbuf_trim_tail
00512c68 g       *ABS*	00000000 _bss_start
00510d00 g       *ABS*	00000000 _dram0_data_end
00511900 g     O .data	000002bc ar5416_11a_table
00909f50 g     F .text	00000062 ReturnBuffers
0090dde0 g     F .text	00000084 ath_tgt_tx_send_normal
00500ad2 g       *ABS*	00000000 u8UsbInterfaceAlternateSetting
00512c68 g       *ABS*	00000000 __XT_EXCEPTION_DESCS__
0090ecec g     F .text	000000a2 ath_tgt_handle_aggr
005010f4 g     O .rodata	000000cc command_table
0090627c g       *ABS*	00000000 _text_start
00907730 g     F .text	00000020 _fw_usbfifo_init
0090ebe0 g     F .text	0000009a owltgt_tx_processq
009068f8 g     F .text	0000001e __adf_nbuf_realloc_tailroom
0090e278 g     F .text	00000062 ath_tgt_handle_normal
0090b24c g     F .text	00000015 ar5416StartTxDma
0090bde8 g     F .text	00000059 ar5416SetRxFilter
00907b3c g     F .text	00000005 ath_hal_free
0090a23c g     F .text	00000156 _HTC_SendMsg
0090c110 g     F .text	00000077 ar5416Attach
00906c90 g     F .text	00000005 __adf_nbuf_cat
0090b238 g     F .text	00000012 ar5416SetTxDP
0090ce58 g     F .text	00000012 ath_rate_node_update
008e1548 g       *ABS*	00000000 generic_hif_module_install
00906c64 g     F .text	00000019 __adf_nbuf_tailroom
00906c88 g     F .text	00000007 __adf_nbuf_clone
008e4934 g       *ABS*	00000000 mUsbFIFOConfig
0090abf0 g     F .text	0000000a cmnos_clock_init_patch
008e36e4 g       *ABS*	00000000 _HIFusb_isr_handler
00906d10 g     F .text	00000057 _buf_pool_static_create_pool
00512d9c g     O .bss	00000028 raw_cmd
00906cc8 g     F .text	00000007 __adf_nbuf_queue_len
00501000 g       *ABS*	00000000 _dport0_literal_start
0090efe8 g     F .text	0000000b exit_ath_pci
00512f10 g       *ABS*	00000000 _bss_end
00906d08 g     F .text	00000005 _buf_pool_static_shutdown
0090b1d4 g     F .text	00000061 ar5416UpdateTxTrigLevel
00512cb4 g     O .bss	00000002 bJumptoFlash
00512cc8 g     O .bss	0000002c g_poolCtx
009069f8 g     F .text	00000020 __adf_nbuf_get_priv
00512cb0 g     O .bss	00000004 gpio_func
0090a0e8 g     F .text	00000082 HTCProcessConfigPipeMsg
00906d68 g     F .text	00000022 _buf_pool_static_alloc_buf
0090bcfc g     F .text	0000000a ar5416Detach
0090af48 g     F .text	0000000f ar5416EnableReceive
00500aa4 g       *ABS*	00000000 usbFifoConf
00500ab8 g       *ABS*	00000000 pu8DescriptorEX
0090abfc g     F .text	0000000a cmnos_refclk_speed_get_patch
0090b5d4 g     F .text	0000010c ar5416Set11nTxDesc_20
00510d00 g       *ABS*	00000000 _dram0_data_start
0090ef58 g     F .text	0000000d init_ath_pci
00511644 g     O .data	000002bc ar5416_11b_table
008e3a9c g       *ABS*	00000000 bGet_descriptor
0090b264 g     F .text	0000002b ar5416NumTxPending
009096d4 g     F .text	00000456 ath_tgt_attach
00909ca8 g     F .text	00000013 _HTC_GetReservedHeadroom
00906840 g     F .text	0000003c Magpie_init
00512c68 g       *ABS*	00000000 __XT_EXCEPTION_DESCS_END__
00906478 g     F .text	0000005e zfGenExceptionEvent
00906b80 g     F .text	00000060 __adf_nbuf_split_to_frag
0090a604 g     F .text	00000037 WMI_service_module_install
00906d8c g     F .text	00000010 _buf_pool_static_alloc_buf_align
00501000 g       *ABS*	00000000 _dport0_rodata_start
00510d00 g       *ABS*	00000000 _dport0_data_start
008e6958 g       *ABS*	00000000 xthal_get_ccount
00906918 g     F .text	0000001e __adf_nbuf_expand
0090ae9c g     F .text	00000083 ar5416SetInterrupts
009062f0 g     F .text	00000062 change_magpie_clk
0090af38 g     F .text	0000000d ar5416SetRxDP
0090d854 g     F .text	00000010 ath_tx_status_clear
00512ca4 g     O .bss	00000004 g_wlan_drv_handle
00909cbc g     F .text	0000002a HTCSendDoneHandler
0090aa48 g     F .text	00000079 _fw_usb_suspend_reboot
008e497c g       *ABS*	00000000 mUsbEPMxPtSzLow
0090af20 g     F .text	00000015 ar5416GetTsf64
00512cb8 g     O .bss	00000004 ref_clk
00909ea8 g     F .text	00000066 HTCCheckAndSendCreditReport
00500a98 g       *ABS*	00000000 ControlCmd
00510d00 g       *ABS*	00000000 _data_start
00500ace g       *ABS*	00000000 u8UsbConfigValue
00907b18 g     F .text	00000022 ath_hal_malloc
0090bcd8 g     F .text	00000021 ar5416StopDmaReceive
00909dc0 g     F .text	00000005 _HTC_PauseRecv
0090f0f8 g     F .text	00000005 __adf_net_unregister_drv
0090ad08 g     F .text	0000002b __adf_os_dmamem_alloc
008e48f8 g       *ABS*	00000000 mUsbEPMap
00906964 g     F .text	0000002b __adf_nbuf_pull_head
0090ad34 g     F .text	0000000c __adf_os_setup_intr
00512c7c g     O .bss	00000004 m_origUsbfifoRecvCmd
0090ac24 g     F .text	0000002b cmnos_tick_patch
00906a18 g     F .text	0000001e __adf_nbuf_queue_add
00908ae8 g     F .text	0000005a wmi_cmd_rsp
009069b0 g     F .text	00000020 __adf_nbuf_unshare
00512ec0 g     O .bss	00000012 UsbDeviceDescriptorPatch
00906d9c g     F .text	00000016 _buf_pool_static_free_buf
00906ce0 g     F .text	0000000e __adf_nbuf_is_queue_empty
0090ae84 g     F .text	00000017 ar5416IsInterruptPending
00907b44 g     F .text	00000015 ath_hal_memcpy
008e6348 g       *ABS*	00000000 _xtos_set_exception_handler
00906000 g     F .boot	0000027c app_start
0090b290 g     F .text	000001e6 ar5416SetupTxDesc_20
0050095c g       *ABS*	00000000 cticks
008e5010 g       *ABS*	00000000 vdesc_module_install
0090d864 g     F .text	0000008b ath_tx_status_update
00512c68 g       *ABS*	00000000 _data_end
0090f0fd g       *ABS*	00000000 _iram0_text_end
0090e328 g     F .text	0000024b ath_tgt_tx_form_aggr
00502430 g       *ABS*	00000000 __XT_EXCEPTION_TABLE__
0090e2dc g     F .text	0000004a ath_tx_addto_baw
00906a38 g     F .text	00000026 __adf_nbuf_queue_remove
00909b2c g     F .text	00000028 ath_detach
0090676c g     F .text	0000005b wlan_task
00502440 g       *ABS*	00000000 _literals_start
00512dc4 g     O .bss	000000f0 cmd_buffer
00906cf0 g     F .text	00000017 _buf_pool_static_init
00512c6c g     O .bss	00000001 htc_complete_setup
00906c80 g     F .text	00000008 __adf_nbuf_len
0090bbdc g     F .text	0000003d ar5416StopTxDma
00909c78 g     F .text	00000016 wlan_pci_isr
008e6e48 g       *ABS*	00000000 memset
00502c70 g       *ABS*	00000000 _literals_end
00909c90 g     F .text	00000005 _HTC_Shutdown
0090ad5c g     F .text	0000003a ath_hal_getcapability
009069d0 g     F .text	00000027 __adf_nbuf_frag_info
00501000 g       *ABS*	00000000 _dport0_rodata_end
0090ac08 g     F .text	0000001c cmnos_delay_us_patch
00500ac4 g       *ABS*	00000000 eUsbCxFinishAction
00512c98 g     O .bss	00000004 init_htc_handle
00909e14 g     F .text	00000016 HTCFreeMsgBuffer
0090b9e4 g     F .text	00000083 ar5416Set11nAggrMiddle_20
00906ca0 g     F .text	00000015 __adf_nbuf_peek_header
009065dc g     F .text	0000015b HTCMsgRecvHandler_patch
0090644c g     F .text	0000002a reset_EP4_FIFO
008e6998 g       *ABS*	00000000 __divsi3
008e6560 g       *ABS*	00000000 strcmp
0090afe8 g     F .text	000001ea ar5416ProcRxDescFast_20
00501000 g       *ABS*	00000000 _dram0_rodata_start
0090aac4 g     F .text	000000da zfTurnOffPower_patch
00501000 g       *ABS*	00000000 _rom_literal_end
00908330 g     F .text	0000004e wmi_event
00512c78 g     O .bss	00000004 delay
00909ba0 g     F .text	00000038 wlan_pci_config_read
009083a8 g     F .text	0000073e ath_intr
00909fb4 g     F .text	00000010 _HTC_ReturnBuffers
008e1574 g       *ABS*	00000000 athos_indirection_table_install
008e6980 g       *ABS*	00000000 xthal_get_intenable
0090ec7c g     F .text	0000006e owl_tgt_tx_tasklet
008e4954 g       *ABS*	00000000 mUsbEPMxPtSzHigh
00907b08 g     F .text	00000010 ath_hal_delay
00500ac0 g       *ABS*	00000000 u8ConfigDescriptorEX
0090687c g     F .text	0000003e __adf_nbuf_alloc
0090ac88 g     F .text	00000080 _HIFusb_start_patch
00906cd8 g     F .text	00000007 __adf_nbuf_queue_next
00907638 g     F .text	00000039 db_ascii_to_int
0090a394 g     F .text	00000097 HTCMsgRecvHandler
0090d8f0 g     F .text	0000006e ath_tx_status_update_aggr
009068bc g     F .text	0000001c __adf_nbuf_free
00512eb4 g     O .bss	00000004 cmd_not_found
008e4914 g       *ABS*	00000000 mUsbFIFOMap
009067c8 g     F .text	00000005 htc_setup_comp
00502430 g       *ABS*	00000000 _bss_table_start
005110cc g     O .data	000002bc ar5416_11ng_table
00906a88 g     F .text	00000009 __adf_nbuf_unmap
00906c58 g     F .text	0000000a __adf_nbuf_headroom
0090ed90 g     F .text	000000b3 ath_tgt_tx_cleanup
008e3e64 g       *ABS*	00000000 bStandardCommand
008e3b54 g       *ABS*	00000000 bSet_configuration
00909bd8 g     F .text	000000a0 wlan_pci_probe
009064d8 g     F .text	0000007c AR6002_fatal_exception_handler_patch
00909dd0 g     F .text	00000041 htc_module_install
00510d00 g       *ABS*	00000000 _dport0_data_end
0090ac50 g     F .text	0000000d cmnos_milliseconds_patch
00512cac g     O .bss	00000004 gpio
00501000 g       *ABS*	00000000 _rodata_start
009094e8 g     F .text	00000018 ath_get_minrateidx
00512f10 g       .bss	00000000 _end
008e34a0 g       *ABS*	00000000 _HIFusb_start
0090ac60 g     F .text	00000011 _HIFusb_get_max_msg_len_patch
0090aba0 g     F .text	0000004f zfResetUSBFIFO_patch
0090daf0 g     F .text	00000046 ath_tx_status_send
00512eb8 g     O .bss	00000004 cmd_buf_full
0090f0fd g       *ABS*	00000000 _iram0_text_start
0090ba68 g     F .text	0000007d ar5416Set11nAggrLast_20
00909f10 g     F .text	0000003f HTCControlSvcProcessSendComplete
00909e2c g     F .text	00000021 HTCAllocMsgBuffer
00511bbc g     O .data	00000004 g_pci_init_func
00909c98 g     F .text	0000000d _HTC_RegisterService
00907ae0 g     F .text	00000026 _ath_hal_attach_tgt
0090a008 g     F .text	000000e0 HTCProcessConnectMsg
0090bae8 g     F .text	0000003e ar5416Clr11nAggr_20
0090c8b4 g     F .text	000002fe rcRateFind_11n
00906c30 g     F .text	00000026 __adf_nbuf_put_tail
0090cde0 g     F .text	0000002c ath_rate_findrate
00512ca8 g     O .bss	00000004 g_wlan_drv
00906354 g     F .text	000000f6 exception_reset
0090b478 g     F .text	00000136 ar5416FillTxDesc_20
00909ce8 g     F .text	00000017 HTC_AssembleBuffers
00510e10 g     O .data	000002bc ar5416_11na_table
00512f10 g       *ABS*	00000000 _fw_image_end
00909dc8 g     F .text	00000005 _HTC_ResumeRecv
0090db68 g     F .text	00000278 ath_tgt_tx_prepare
0090627c g       .text	00000000 _stext
009079f0 g     F .text	00000023 bSet_configuration_patch
0090ad40 g     F .text	0000000c __adf_os_free_intr
0090b5b0 g     F .text	00000021 ar5416FillKeyTxDesc_20
009067d0 g     F .text	0000006e _wmi_cmd_rsp
00512ebc g     O .bss	00000004 pressed_time
00909b70 g     F .text	0000002f wlan_pci_config_write
009062a8 g     F .text	00000046 fatal_exception_func
00909fc4 g     F .text	00000044 _HTC_ReturnBuffersList
0090af70 g     F .text	00000077 ar5416SetupRxDesc_20
009065a8 g     F .text	00000032 HTCControlSvcProcessMsg_patch
008e49a0 g       *ABS*	00000000 mUsbEPinHighBandSet
0090ce6c g     F .text	0000001e ath_rate_newstate
00510d00 g       *ABS*	00000000 _dport0_bss_start
00501000 g       *ABS*	00000000 _dram0_rodata_end
0090be44 g     F .text	000002c9 ar5416ProcTxDesc_20
0090a42c g     F .text	00000005 RedistributeCredit
00907988 g     F .text	00000042 vUSBFIFO_EP6Cfg_FS_patch
00510d00 g       *ABS*	00000000 _dport0_bss_end
00907a14 g     F .text	00000044 bStandardCommand_patch
00512ed4 g     O .bss	0000003c ConfigDescriptorPatch
0090bd08 g     F .text	000000df ar5416GetPendingInterrupts
00501000 g       *ABS*	00000000 _dport0_literal_end
0090b6e0 g     F .text	00000278 ar5416Set11nRateScenario_20
0090af58 g     F .text	00000017 ar5416StopPcuReceive



Disassembly of section .boot:

00906000 <app_start>:

extern BOOLEAN bJumptoFlash;
extern BOOLEAN bEepromExist;

void __section(boot) __noreturn __visible app_start(void)
{
  906000:	6c1004        	entry	a1, 32
#if defined(PROJECT_MAGPIE)
	T_EEP_RET retEEP;
#endif

	/* Zero BSS segment & dynamic memory section. */
	init_mem();
  906003:	5801cd        	call8	906738 <init_mem>

#if defined(PROJECT_MAGPIE)
	fatal_exception_func();
  906006:	5800a8        	call8	9062a8 <fatal_exception_func>
#endif

	if( IS_FLASHBOOT() ) {
  906009:	126912        	l32r	a2, 8e0454 <_bss_end+0x3cd544>
  90600c:	136913        	l32r	a3, 8e0458 <_bss_end+0x3cd548>
  90600f:	0c0200        	memw
  906012:	242200        	l32i	a4, a2, 0
  906015:	126915        	l32r	a2, 8e046c <_bss_end+0x3cd55c>
  906018:	04045f        	extui	a4, a4, 16, 16
  90601b:	734935        	bne	a4, a3, 906054 <app_start+0x54>
		athos_indirection_table_install();
  90601e:	5b6d55        	call8	8e1574 <athos_indirection_table_install>
		DBG_MODULE_INSTALL();
  906021:	1a6914        	l32r	a10, 8e0474 <_bss_end+0x3cd564>
  906024:	5805b5        	call8	9076fc <cmnos_dbg_module_install>
		A_CLOCK_INIT(SYSTEM_CLK);
  906027:	1a6916        	l32r	a10, 8e0480 <_bss_end+0x3cd570>
  90602a:	232238        	l32i	a3, a2, 224
  90602d:	0b3000        	callx8	a3
		A_UART_INIT();
  906030:	2a2213        	l32i	a10, a2, 76
  906033:	0ba000        	callx8	a10
		A_PRINTF_INIT();
  906036:	232211        	l32i	a3, a2, 68
  906039:	0b3000        	callx8	a3
		A_DBG_INIT();
  90603c:	23226e        	l32i	a3, a2, 0x1b8
  90603f:	0b3000        	callx8	a3
		A_EEP_INIT();
  906042:	23225f        	l32i	a3, a2, 0x17c
  906045:	0b3000        	callx8	a3
		A_TASKLET_INIT();
  906048:	232269        	l32i	a3, a2, 0x1a4
  90604b:	0b3000        	callx8	a3
		_indir_tbl.cmnos.timer._timer_init();
  90604e:	222241        	l32i	a2, a2, 0x104
  906051:	600002        	j	906057 <app_start+0x57>
		u8UsbInterfaceAlternateSetting = u8UsbConfigValue = u8UsbInterfaceValue = 0;
#endif
	}
#ifdef ROM_VER_1_1
	else
		A_EEP_INIT(); /*Required for 1_1*/
  906054:	22225f        	l32i	a2, a2, 0x17c
  906057:	0b2000        	callx8	a2
#endif

#if defined(PROJECT_MAGPIE)
	retEEP = A_EEP_IS_EXIST();
  90605a:	126915        	l32r	a2, 8e04b0 <_bss_end+0x3cd5a0>
	bJumptoFlash = FALSE;
  90605d:	c040      	movi.n	a4, 0
	else
		A_EEP_INIT(); /*Required for 1_1*/
#endif

#if defined(PROJECT_MAGPIE)
	retEEP = A_EEP_IS_EXIST();
  90605f:	2a2262        	l32i	a10, a2, 0x188
  906062:	0ba000        	callx8	a10
	bJumptoFlash = FALSE;
  906065:	136917        	l32r	a3, 8e04c4 <_bss_end+0x3cd5b4>
  906068:	243500        	s16i	a4, a3, 0
  90606b:	136918        	l32r	a3, 8e04cc <_bss_end+0x3cd5bc>
	if ( RET_SUCCESS == retEEP ) {
  90606e:	cca0      	bnez.n	a10, 906072 <app_start+0x72>
		bEepromExist = TRUE;
  906070:	c041      	movi.n	a4, 1
	} else {
		bEepromExist = FALSE;
	}
#endif

	hostif = A_IS_HOST_PRESENT();
  906072:	8a2e      	l32i.n	a10, a2, 56
	retEEP = A_EEP_IS_EXIST();
	bJumptoFlash = FALSE;
	if ( RET_SUCCESS == retEEP ) {
		bEepromExist = TRUE;
	} else {
		bEepromExist = FALSE;
  906074:	243500        	s16i	a4, a3, 0
	}
#endif

	hostif = A_IS_HOST_PRESENT();
  906077:	0ba000        	callx8	a10
  90607a:	d6a0      	mov.n	a6, a10
	return *(const volatile uint16_t *) addr;
}

static inline uint32_t ioread32(const volatile uint32_t addr)
{
	return *(const volatile uint32_t *) addr;
  90607c:	136919        	l32r	a3, 8e04e0 <_bss_end+0x3cd5d0>
#elif defined(PROJECT_K2)
	rst_status = ioread32(MAGPIE_REG_RST_STATUS_ADDR);
#endif /* #if defined(PROJECT_MAGPIE) */


	A_PRINTF(" A_WDT_INIT()\n\r");
  90607f:	242212        	l32i	a4, a2, 72
  906082:	1a691a        	l32r	a10, 8e04ec <_bss_end+0x3cd5dc>
  906085:	0c0200        	memw
  906088:	8330      	l32i.n	a3, a3, 0
  90608a:	0b4000        	callx8	a4
		_indir_tbl.cmnos.usb._usb_fw_task = _fw_usb_fw_task;
		_indir_tbl.cmnos.usb._usb_reset_fifo = _fw_usb_reset_fifo;
#endif
	}

	if( rst_status == WDT_MAGIC_PATTERN ) {
  90608d:	14691b        	l32r	a4, 8e04fc <_bss_end+0x3cd5ec>
  906090:	74391d        	bne	a3, a4, 9060b1 <app_start+0xb1>
		A_PRINTF(" ==>WDT reset<==\n");
  906093:	222212        	l32i	a2, a2, 72
  906096:	1a691c        	l32r	a10, 8e0508 <_bss_end+0x3cd5f8>
  906099:	0b2000        	callx8	a2
#if defined(PROJECT_MAGPIE)
		reset_EP4_FIFO();
  90609c:	5800eb        	call8	90644c <reset_EP4_FIFO>
#endif
		*((volatile uint32_t*)WATCH_DOG_RESET_COUNTER_ADDR)+=1;
  90609f:	12691d        	l32r	a2, 8e0514 <_bss_end+0x3cd604>
  9060a2:	0c0200        	memw
  9060a5:	8320      	l32i.n	a3, a2, 0
  9060a7:	b133      	addi.n	a3, a3, 1
  9060a9:	0c0200        	memw
  9060ac:	9320      	s32i.n	a3, a2, 0
  9060ae:	600011        	j	9060c3 <app_start+0xc3>
	} else if (rst_status == SUS_MAGIC_PATTERN) {
  9060b1:	14691e        	l32r	a4, 8e052c <_bss_end+0x3cd61c>
		A_PRINTF(" ==>warm start<==\n");
  9060b4:	222212        	l32i	a2, a2, 72
  9060b7:	1a691f        	l32r	a10, 8e0534 <_bss_end+0x3cd624>
		A_PRINTF(" ==>WDT reset<==\n");
#if defined(PROJECT_MAGPIE)
		reset_EP4_FIFO();
#endif
		*((volatile uint32_t*)WATCH_DOG_RESET_COUNTER_ADDR)+=1;
	} else if (rst_status == SUS_MAGIC_PATTERN) {
  9060ba:	743102        	beq	a3, a4, 9060c0 <app_start+0xc0>
		A_PRINTF(" ==>warm start<==\n");
	} else
		A_PRINTF(" ==>cold start<==\n");
  9060bd:	1a6920        	l32r	a10, 8e0540 <_bss_end+0x3cd630>
  9060c0:	0b2000        	callx8	a2

#if defined(PROJECT_MAGPIE)
	*((volatile uint32_t*)WATCH_DOG_MAGIC_PATTERN_ADDR)=WDT_MAGIC_PATTERN;
  9060c3:	13691b        	l32r	a3, 8e0530 <_bss_end+0x3cd620>
  9060c6:	126919        	l32r	a2, 8e052c <_bss_end+0x3cd61c>
#endif /* #if defined(PROJECT_MAGPIE) */

	/* intr enable would left for firmware */
	/* athos_interrupt_init(); */

	DBG_MODULE_INSTALL();
  9060c9:	1a6914        	l32r	a10, 8e051c <_bss_end+0x3cd60c>
		A_PRINTF(" ==>warm start<==\n");
	} else
		A_PRINTF(" ==>cold start<==\n");

#if defined(PROJECT_MAGPIE)
	*((volatile uint32_t*)WATCH_DOG_MAGIC_PATTERN_ADDR)=WDT_MAGIC_PATTERN;
  9060cc:	0c0200        	memw
  9060cf:	232600        	s32i	a3, a2, 0
#endif /* #if defined(PROJECT_MAGPIE) */

	/* intr enable would left for firmware */
	/* athos_interrupt_init(); */

	DBG_MODULE_INSTALL();
  9060d2:	58058a        	call8	9076fc <cmnos_dbg_module_install>
	SFLASH_MODULE_INSTALL();
	A_SFLASH_INIT();
#endif
#endif

	HIF_MODULE_INSTALL();
  9060d5:	1a6921        	l32r	a10, 8e055c <_bss_end+0x3cd64c>
  9060d8:	5b6d1b        	call8	8e1548 <generic_hif_module_install>
	HTC_MODULE_INSTALL();
  9060db:	1a6922        	l32r	a10, 8e0564 <_bss_end+0x3cd654>
  9060de:	580f3c        	call8	909dd0 <htc_module_install>
	WMI_SERVICE_MODULE_INSTALL();
  9060e1:	1a6923        	l32r	a10, 8e0570 <_bss_end+0x3cd660>
  9060e4:	581147        	call8	90a604 <WMI_service_module_install>
	BUF_POOL_MODULE_INSTALL();
  9060e7:	1a6924        	l32r	a10, 8e0578 <_bss_end+0x3cd668>
  9060ea:	580332        	call8	906db4 <buf_pool_module_install>
	VBUF_MODULE_INSTALL();
  9060ed:	1a6925        	l32r	a10, 8e0584 <_bss_end+0x3cd674>
  9060f0:	5b7b9b        	call8	8e4f60 <vbuf_module_install>
	VDESC_MODULE_INSTALL();
  9060f3:	1a6926        	l32r	a10, 8e058c <_bss_end+0x3cd67c>
  9060f6:	5b7bc6        	call8	8e5010 <vdesc_module_install>

	//init each module, should be put together..
	A_PRINTF("ALLOCRAM start 0x%x size %d\n", ALLOCRAM_START, ALLOCRAM_SIZE);
  9060f9:	136927        	l32r	a3, 8e0598 <_bss_end+0x3cd688>
  9060fc:	146928        	l32r	a4, 8e059c <_bss_end+0x3cd68c>
  9060ff:	126915        	l32r	a2, 8e0554 <_bss_end+0x3cd644>
  906102:	b437      	addi.n	a7, a3, 4
  906104:	282212        	l32i	a8, a2, 72
  906107:	03450c        	sub	a5, a4, a3
  90610a:	1a6929        	l32r	a10, 8e05b0 <_bss_end+0x3cd6a0>
  90610d:	db70      	mov.n	a11, a7
  90610f:	dc50      	mov.n	a12, a5
  906111:	0b8000        	callx8	a8
	A_ALLOCRAM_INIT(ALLOCRAM_START, ALLOCRAM_SIZE);
  906114:	c78c      	movi.n	a8, -4
  906116:	783107        	beq	a3, a8, 906121 <app_start+0x121>
  906119:	da70      	mov.n	a10, a7
  90611b:	743905        	bne	a3, a4, 906124 <app_start+0x124>
  90611e:	600009        	j	90612b <app_start+0x12b>
  906121:	1a6910        	l32r	a10, 8e0564 <_bss_end+0x3cd654>
  906124:	db50      	mov.n	a11, a5
  906126:	600004        	j	90612e <app_start+0x12e>
  906129:	00001b        	sra	a0, a0
  90612c:	691123        	bnei	a1, 1, 906153 <app_start+0x153>
  90612f:	22510b        	l16ui	a2, a5, 22
  906132:	300065        	excw

	if( hostif == HIF_USB ) {
  906135:	60c513        	j	91264c <_iram0_text_end+0x354f>
		_indir_tbl.hif._get_max_msg_len = _HIFusb_get_max_msg_len_patch;
  906138:	692a23        	bnei	a2, 12, 90615f <app_start+0x15f>
  90613b:	267913        	l16si	a6, a7, 38
		_indir_tbl.cmnos.usb._usb_reg_out = usb_reg_out_patch;
  90613e:	692b23        	bnei	a2, 16, 906165 <app_start+0x165>
  906141:	263313        	excw
		_indir_tbl.hif._isr_handler = _HIFusb_isr_handler_patch;
  906144:	692c23        	bnei	a2, 32, 90616b <app_start+0x16b>
  906147:	267b13        	l32ai	a6, a7, 76
		_indir_tbl.cmnos.usb._usb_set_configuration = bSet_configuration_patch;
  90614a:	692d23        	bnei	a2, 64, 906171 <app_start+0x171>
  90614d:	262613        	s32i	a6, a2, 76
		_indir_tbl.cmnos.usb._usb_status_in = usb_status_in_patch;
  906150:	692e23        	bnei	a2, 128, 906177 <app_start+0x177>
  906153:	263413        	s8i	a6, a3, 19
		_indir_tbl.cmnos.usb._usb_get_descriptor = bGet_descriptor_patch;
  906156:	692f23        	bnei	a2, 0x100, 90617d <app_start+0x17d>
  906159:	263013        	l8ui	a6, a3, 19
		_indir_tbl.cmnos.usb._usb_standard_cmd = bStandardCommand_patch;
  90615c:	693023        	bnei	a3, -1, 906183 <app_start+0x183>
  90615f:	262713        	excw
		_indir_tbl.usbfifo_api._init = _fw_usbfifo_init;
  906162:	693123        	bnei	a3, 1, 906189 <app_start+0x189>
  906165:	269613        	s32i	a6, a9, 76

#if defined(PROJECT_MAGPIE)
		_indir_tbl.cmnos.usb._usb_power_off = zfTurnOffPower_patch;
  906168:	693223        	bnei	a3, 2, 90618f <app_start+0x18f>
  90616b:	262913        	l16si	a6, a2, 38
		_indir_tbl.cmnos.usb._usb_reset_fifo = zfResetUSBFIFO_patch;
  90616e:	693323        	bnei	a3, 3, 906195 <app_start+0x195>
  906171:	262a13        	movi	a6, 0x213
		_indir_tbl.hif._start = _HIFusb_start_patch;
  906174:	693423        	bnei	a3, 4, 90619b <app_start+0x19b>
  906177:	267413        	s8i	a6, a7, 19
		_indir_tbl.htc._HTC_MsgRecvHandler = HTCMsgRecvHandler_patch;
  90617a:	693523        	bnei	a3, 5, 9061a1 <app_start+0x1a1>
  90617d:	268613        	s32i	a6, a8, 76
		_indir_tbl.htc._HTC_ControlSvcProcessMsg = HTCControlSvcProcessMsg_patch;
  906180:	693623        	bnei	a3, 6, 9061a7 <app_start+0x1a7>
  906183:	268812        	excw

#include <adf_os_io_pvt.h>

static inline uint8_t ioread8(const volatile uint32_t addr)
{
	return *(const volatile uint8_t *) addr;
  906186:	693722        	bnei	a3, 7, 9061ac <app_start+0x1ac>
  906189:	200079        	l8ui	a0, a0, 121
#endif

		if (!(ioread8_usb(ZM_MAIN_CTRL_OFFSET) & BIT6))
  90618c:	2f0258        	l32i	a15, a0, 0x160
			vUSBFIFO_EP6Cfg_FS_patch();
  90618f:	05fe12        	srai	a14, a5, 15
	return *(const volatile uint16_t *) addr;
}

static inline uint32_t ioread32(const volatile uint32_t addr)
{
	return *(const volatile uint32_t *) addr;
  906192:	693813        	bnei	a3, 8, 9061a9 <app_start+0x1a9>

#ifdef FUSION_USB_ENABLE_TX_STREAM
		// For K2, enable tx stream mode
		A_PRINTF("Enable Tx Stream mode: 0x%x\r\n",
  906195:	69150c        	bnei	a1, 5, 9061a5 <app_start+0x1a5>
  906198:	02008b        	excw
  90619b:	202332        	excw
  90619e:	121a69        	l32r	a2, 8ccb44 <_bss_end+0x3b9c34>
  9061a1:	390b30        	excw
  9061a4:	00da20        	excw
			ioread32_usb(ZM_SOC_USB_MODE_CTRL_OFFSET));

		/* Patch for K2 USB STREAM mode */
		/* disable down stream DMA mode */
		io32_rmw_usb(ZM_SOC_USB_MODE_CTRL_OFFSET, BIT6, BIT0);
  9061a7:	c4b0      	movi.n	a11, 64
  9061a9:	c0c1      	movi.n	a12, 1
  9061ab:	582396        	call8	90f004 <io32_rmw>
#if SYSTEM_MODULE_HP_EP5
		io32_set_usb(ZM_SOC_USB_MODE_CTRL_OFFSET, BIT8);
  9061ae:	da20      	mov.n	a10, a2
  9061b0:	2b1a00        	movi	a11, 0x100
  9061b3:	c0c0      	movi.n	a12, 0
  9061b5:	582393        	call8	90f004 <io32_rmw>
#endif

#if SYSTEM_MODULE_HP_EP6
		io32_set_usb(ZM_SOC_USB_MODE_CTRL_OFFSET, BIT9);
  9061b8:	da20      	mov.n	a10, a2
  9061ba:	2b2a00        	movi	a11, 0x200
  9061bd:	c0c0      	movi.n	a12, 0
  9061bf:	582391        	call8	90f004 <io32_rmw>
#endif
		/* enable down stream DMA mode */
		io32_set_usb(ZM_SOC_USB_MODE_CTRL_OFFSET, BIT0);
  9061c2:	da20      	mov.n	a10, a2
  9061c4:	c0b1      	movi.n	a11, 1
  9061c6:	2c0a00        	movi	a12, 0
  9061c9:	58238e        	call8	90f004 <io32_rmw>
#endif

#ifdef FUSION_USB_ENABLE_RX_STREAM
		/* Patch for K2 USB STREAM mode */
		/* disable upstream DMA mode and enable upstream stream mode */
		io32_clr_usb(ZM_SOC_USB_MODE_CTRL_OFFSET, BIT1 | BIT3);
  9061cc:	da20      	mov.n	a10, a2
  9061ce:	c0b0      	movi.n	a11, 0
  9061d0:	c0ca      	movi.n	a12, 10
  9061d2:	58238c        	call8	90f004 <io32_rmw>

		/* K2, Set maximum IN transfer to 8K */
		io32_rmw_usb(ZM_SOC_USB_MODE_CTRL_OFFSET, 0x20, 0x30);
  9061d5:	da20      	mov.n	a10, a2
  9061d7:	c2b0      	movi.n	a11, 32
  9061d9:	c3c0      	movi.n	a12, 48
  9061db:	58238a        	call8	90f004 <io32_rmw>

		/* enable upstream DMA mode */
		io32_set_usb(ZM_SOC_USB_MODE_CTRL_OFFSET, BIT1);
  9061de:	da20      	mov.n	a10, a2
  9061e0:	c0b2      	movi.n	a11, 2
  9061e2:	2c0a00        	movi	a12, 0
  9061e5:	582387        	call8	90f004 <io32_rmw>
	*(volatile uint16_t *) addr = b;
}

static inline void iowrite32(volatile uint32_t addr, const uint32_t b)
{
	*(volatile uint32_t *) addr = b;
  9061e8:	12693a        	l32r	a2, 8e06d0 <_bss_end+0x3cd7c0>
  9061eb:	230aa0        	movi	a3, 160
  9061ee:	0c0200        	memw
  9061f1:	9320      	s32i.n	a3, a2, 0
  9061f3:	12693b        	l32r	a2, 8e06e0 <_bss_end+0x3cd7d0>
  9061f6:	c039      	movi.n	a3, 9
  9061f8:	0c0200        	memw
  9061fb:	9320      	s32i.n	a3, a2, 0
	return *(const volatile uint16_t *) addr;
}

static inline uint32_t ioread32(const volatile uint32_t addr)
{
	return *(const volatile uint32_t *) addr;
  9061fd:	12693c        	l32r	a2, 8e06f0 <_bss_end+0x3cd7e0>
	}
#if defined(PROJECT_MAGPIE) && !defined(ROM_VER_1_1)
	else if (hostif == HIF_PCI )
		hif_pci_patch_install(&_indir_tbl.hif);
#endif
	A_PRINTF("USB mode: 0x%x\r\n", ioread32_usb(0x100));
  906200:	1a693d        	l32r	a10, 8e06f4 <_bss_end+0x3cd7e4>
  906203:	0c0200        	memw
  906206:	8b20      	l32i.n	a11, a2, 0
  906208:	126915        	l32r	a2, 8e065c <_bss_end+0x3cd74c>
  90620b:	232212        	l32i	a3, a2, 72
  90620e:	0b3000        	callx8	a3

	// patch the clock function
	if(1) {
		_indir_tbl.cmnos.clock._clock_init = cmnos_clock_init_patch;
  906211:	13693e        	l32r	a3, 8e070c <_bss_end+0x3cd7fc>
		_indir_tbl.cmnos.clock._delay_us = cmnos_delay_us_patch;
		_indir_tbl.cmnos.clock._clock_tick = cmnos_tick_patch;
		_indir_tbl.cmnos.clock._milliseconds = cmnos_milliseconds_patch;

		//default clock, setup initial variable, SYSTEM_FREQ=40
		A_CLOCK_INIT(SYSTEM_FREQ);
  906214:	2a0a28        	movi	a10, 40
#endif
	A_PRINTF("USB mode: 0x%x\r\n", ioread32_usb(0x100));

	// patch the clock function
	if(1) {
		_indir_tbl.cmnos.clock._clock_init = cmnos_clock_init_patch;
  906217:	232638        	s32i	a3, a2, 224
		_indir_tbl.cmnos.clock._refclk_speed_get = cmnos_refclk_speed_get_patch;
  90621a:	13693f        	l32r	a3, 8e0718 <_bss_end+0x3cd808>
  90621d:	23263d        	s32i	a3, a2, 244
		_indir_tbl.cmnos.clock._delay_us = cmnos_delay_us_patch;
  906220:	136940        	l32r	a3, 8e0720 <_bss_end+0x3cd810>
  906223:	23263b        	s32i	a3, a2, 236
		_indir_tbl.cmnos.clock._clock_tick = cmnos_tick_patch;
  906226:	136941        	l32r	a3, 8e072c <_bss_end+0x3cd81c>
  906229:	232640        	s32i	a3, a2, 0x100
		_indir_tbl.cmnos.clock._milliseconds = cmnos_milliseconds_patch;
  90622c:	136942        	l32r	a3, 8e0734 <_bss_end+0x3cd824>
  90622f:	23263e        	s32i	a3, a2, 248

		//default clock, setup initial variable, SYSTEM_FREQ=40
		A_CLOCK_INIT(SYSTEM_FREQ);
  906232:	58126f        	call8	90abf0 <cmnos_clock_init_patch>
	}

	Magpie_init();
  906235:	580182        	call8	906840 <Magpie_init>

#if MAGPIE_ENABLE_WLAN == 1
	io32_clr(MAGPIE_REG_RST_RESET_ADDR, BIT10 | BIT8 | BIT7 | BIT6);
  906238:	1a6943        	l32r	a10, 8e0744 <_bss_end+0x3cd834>
  90623b:	2b0a00        	movi	a11, 0
  90623e:	2c5ac0        	movi	a12, 0x5c0
  906241:	582370        	call8	90f004 <io32_rmw>
#if defined(PROJECT_MAGPIE)
	io32_set(MAGPIE_REG_AHB_ARB_ADDR, BIT1);
  906244:	1a6944        	l32r	a10, 8e0754 <_bss_end+0x3cd844>
  906247:	2b0a02        	movi	a11, 2
  90624a:	2c0a00        	movi	a12, 0
  90624d:	58236d        	call8	90f004 <io32_rmw>
#endif

	wlan_pci_module_init();
  906250:	580e40        	call8	909b54 <wlan_pci_module_init>
	wlan_pci_probe();
  906253:	580e61        	call8	909bd8 <wlan_pci_probe>
#endif


	A_PRINTF("Tgt running\n\r");
  906256:	1a6945        	l32r	a10, 8e076c <_bss_end+0x3cd85c>
  906259:	232212        	l32i	a3, a2, 72
  90625c:	0b3000        	callx8	a3

#if defined(PROJECT_MAGPIE)
	if(1) {
		A_PRINTF("======= Apply MISC Assert patch\n\r");
  90625f:	1a6946        	l32r	a10, 8e0778 <_bss_end+0x3cd868>
  906262:	232212        	l32i	a3, a2, 72
  906265:	0b3000        	callx8	a3
		_assfail_ori =  _indir_tbl.cmnos.misc._assfail;
  906268:	842a      	l32i.n	a4, a2, 40
  90626a:	136947        	l32r	a3, 8e0788 <_bss_end+0x3cd878>
  90626d:	243600        	s32i	a4, a3, 0
		_indir_tbl.cmnos.misc._assfail = exception_reset;
  906270:	136948        	l32r	a3, 8e0790 <_bss_end+0x3cd880>
  906273:	23260a        	s32i	a3, a2, 40
	}

	change_magpie_clk();
  906276:	58001e        	call8	9062f0 <change_magpie_clk>
#endif
	wlan_task(); //never return
  906279:	58013c        	call8	90676c <wlan_task>

Disassembly of section .text:

0090627c <io32_rmw>:
	iowrite8(addr, val);
}

static inline void io32_rmw(volatile uint32_t addr,
			    const uint32_t set, const uint32_t clr)
{
  90627c:	6c1006        	entry	a1, 48
  90627f:	0c0200        	memw
  906282:	9210      	s32i.n	a2, a1, 0
	uint32_t val;

	val = ioread32(addr);
  906284:	0c0200        	memw
  906287:	8810      	l32i.n	a8, a1, 0
	val &= ~clr;
  906289:	c79f      	movi.n	a9, -1
	return *(const volatile uint16_t *) addr;
}

static inline uint32_t ioread32(const volatile uint32_t addr)
{
	return *(const volatile uint32_t *) addr;
  90628b:	0c0200        	memw
  90628e:	8880      	l32i.n	a8, a8, 0
			    const uint32_t set, const uint32_t clr)
{
	uint32_t val;

	val = ioread32(addr);
	val &= ~clr;
  906290:	049403        	xor	a4, a9, a4
  906293:	084801        	and	a8, a4, a8
	val |= set;
	iowrite32(addr, val);
  906296:	0c0200        	memw
  906299:	8a10      	l32i.n	a10, a1, 0
{
	uint32_t val;

	val = ioread32(addr);
	val &= ~clr;
	val |= set;
  90629b:	038302        	or	a3, a8, a3
	*(volatile uint16_t *) addr = b;
}

static inline void iowrite32(volatile uint32_t addr, const uint32_t b)
{
	*(volatile uint32_t *) addr = b;
  90629e:	0c0200        	memw
  9062a1:	93a0      	s32i.n	a3, a10, 0
  9062a3:	d10f      	retw.n
  9062a5:	000000        	ill

009062a8 <fatal_exception_func>:

static void idle_task();

#if defined(PROJECT_MAGPIE)
void fatal_exception_func()
{
  9062a8:	6c1004        	entry	a1, 32
	// patch for execption
	(void)_xtos_set_exception_handler(EXCCAUSE_UNALIGNED, AR6002_fatal_exception_handler_patch);
  9062ab:	126949        	l32r	a2, 8e07d0 <_bss_end+0x3cd8c0>
  9062ae:	c0a9      	movi.n	a10, 9
  9062b0:	022b02        	or	a11, a2, a2
  9062b3:	5b8025        	call8	8e6348 <_xtos_set_exception_handler>
	(void)_xtos_set_exception_handler(EXCCAUSE_LOAD_STORE_ERROR, AR6002_fatal_exception_handler_patch);
  9062b6:	db20      	mov.n	a11, a2
  9062b8:	2a0a03        	movi	a10, 3
  9062bb:	5b8023        	call8	8e6348 <_xtos_set_exception_handler>
	(void)_xtos_set_exception_handler(EXCCAUSE_ILLEGAL, AR6002_fatal_exception_handler_patch);
  9062be:	db20      	mov.n	a11, a2
  9062c0:	2a0a00        	movi	a10, 0
  9062c3:	5b8021        	call8	8e6348 <_xtos_set_exception_handler>
	(void)_xtos_set_exception_handler(EXCCAUSE_INSTR_ERROR, AR6002_fatal_exception_handler_patch);
  9062c6:	db20      	mov.n	a11, a2
  9062c8:	2a0a02        	movi	a10, 2
  9062cb:	5b801f        	call8	8e6348 <_xtos_set_exception_handler>
	(void)_xtos_set_exception_handler(EXCCAUSE_PRIVILEGED, AR6002_fatal_exception_handler_patch);
  9062ce:	db20      	mov.n	a11, a2
  9062d0:	2a0a08        	movi	a10, 8
  9062d3:	5b801d        	call8	8e6348 <_xtos_set_exception_handler>
	(void)_xtos_set_exception_handler(EXCCAUSE_INSTR_DATA_ERROR, AR6002_fatal_exception_handler_patch);
  9062d6:	db20      	mov.n	a11, a2
  9062d8:	2a0a0c        	movi	a10, 12
  9062db:	5b801b        	call8	8e6348 <_xtos_set_exception_handler>
	(void)_xtos_set_exception_handler(EXCCAUSE_LOAD_STORE_DATA_ERROR, AR6002_fatal_exception_handler_patch);
  9062de:	db20      	mov.n	a11, a2
  9062e0:	c0ad      	movi.n	a10, 13
  9062e2:	5b8019        	call8	8e6348 <_xtos_set_exception_handler>
	(void)_xtos_set_exception_handler(EXCCAUSE_DIVIDE_BY_ZERO, AR6002_fatal_exception_handler_patch);
  9062e5:	db20      	mov.n	a11, a2
  9062e7:	c0a6      	movi.n	a10, 6
  9062e9:	5b8017        	call8	8e6348 <_xtos_set_exception_handler>
  9062ec:	d10f      	retw.n
	...

009062f0 <change_magpie_clk>:
#endif

#if defined(PROJECT_MAGPIE)
void
change_magpie_clk(void)
{
  9062f0:	6c1004        	entry	a1, 32
  9062f3:	12694a        	l32r	a2, 8e081c <_bss_end+0x3cd90c>
  9062f6:	c131      	movi.n	a3, 17
  9062f8:	0c0200        	memw
  9062fb:	9320      	s32i.n	a3, a2, 0
	return *(const volatile uint16_t *) addr;
}

static inline uint32_t ioread32(const volatile uint32_t addr)
{
	return *(const volatile uint32_t *) addr;
  9062fd:	0c0200        	memw
  906300:	8320      	l32i.n	a3, a2, 0
	iowrite32(0x00056004, BIT4 | BIT0);

	/* Wait for the update bit (BIT0) to get cleared */
	while (ioread32(0x00056004) & BIT0)
  906302:	030340        	extui	a3, a3, 0, 1
  906305:	653ff4        	bnez	a3, 9062fd <change_magpie_clk+0xd>
		;

	/* Put the PLL into reset */
	io32_set(0x00050010, BIT1);
  906308:	146943        	l32r	a4, 8e0814 <_bss_end+0x3cd904>
  90630b:	dc30      	mov.n	a12, a3
  90630d:	da40      	mov.n	a10, a4
  90630f:	c0b2      	movi.n	a11, 2
  906311:	5bffda        	call8	90627c <io32_rmw>
	*(volatile uint16_t *) addr = b;
}

static inline void iowrite32(volatile uint32_t addr, const uint32_t b)
{
	*(volatile uint32_t *) addr = b;
  906314:	18694b        	l32r	a8, 8e0840 <_bss_end+0x3cd930>
  906317:	293a25        	movi	a9, 0x325
	 */
	/* Setting PLL to 400MHz */
	iowrite32(0x00056000, 0x325);

	/* Pull CPU PLL out of Reset */
	io32_clr(0x00050010, BIT1);
  90631a:	da40      	mov.n	a10, a4
  90631c:	db30      	mov.n	a11, a3
  90631e:	0c0200        	memw
  906321:	9980      	s32i.n	a9, a8, 0
  906323:	2c0a02        	movi	a12, 2
  906326:	5bffd5        	call8	90627c <io32_rmw>

	A_DELAY_USECS(60); // wait for stable
  906329:	136915        	l32r	a3, 8e0780 <_bss_end+0x3cd870>
  90632c:	c3ac      	movi.n	a10, 60
  90632e:	24323b        	l32i	a4, a3, 236
  906331:	0b4000        	callx8	a4
  906334:	14694c        	l32r	a4, 8e0864 <_bss_end+0x3cd954>
  906337:	0c0200        	memw
  90633a:	9420      	s32i.n	a4, a2, 0
	return *(const volatile uint16_t *) addr;
}

static inline uint32_t ioread32(const volatile uint32_t addr)
{
	return *(const volatile uint32_t *) addr;
  90633c:	0c0200        	memw
  90633f:	8420      	l32i.n	a4, a2, 0
	/*
	 * AHB clk = ( CPU clk / 2 )
	 */
	iowrite32(0x00056004, 0x00001 | BIT16 | BIT8); /* set plldiv to 2 */

	while (ioread32(0x00056004) & BIT0)
  906341:	7f4ff7        	bbsi	a4, 31, 90633c <change_magpie_clk+0x4c>
		;

	/* UART Setting */
	A_UART_HWINIT((100*1000*1000), 115200);
  906344:	22321a        	l32i	a2, a3, 104
  906347:	1a694d        	l32r	a10, 8e087c <_bss_end+0x3cd96c>
  90634a:	1b694e        	l32r	a11, 8e0884 <_bss_end+0x3cd974>
  90634d:	0b2000        	callx8	a2
  906350:	d10f      	retw.n
	...

00906354 <exception_reset>:

}

void exception_reset(struct register_dump_s *dump)
{
  906354:	6c1004        	entry	a1, 32
	A_PRINTF("exception_reset \n");
  906357:	136915        	l32r	a3, 8e07ac <_bss_end+0x3cd89c>
  90635a:	1a694f        	l32r	a10, 8e0898 <_bss_end+0x3cd988>
  90635d:	243212        	l32i	a4, a3, 72
  906360:	0b4000        	callx8	a4

	/* phase I dump info */
	A_PRINTF("exception reset-phase 1\n");
  906363:	1a6950        	l32r	a10, 8e08a4 <_bss_end+0x3cd994>
  906366:	243212        	l32i	a4, a3, 72
  906369:	0b4000        	callx8	a4
	if(_assfail_ori)
  90636c:	146947        	l32r	a4, 8e0888 <_bss_end+0x3cd978>
  90636f:	8440      	l32i.n	a4, a4, 0
  906371:	c844      	beqz.n	a4, 906379 <exception_reset+0x25>
		_assfail_ori(dump);
  906373:	022a02        	or	a10, a2, a2
  906376:	0b4000        	callx8	a4

	/* phase II reset */
	A_PRINTF("exception reset-phase 2\n");
  906379:	223212        	l32i	a2, a3, 72
  90637c:	1a6951        	l32r	a10, 8e08c0 <_bss_end+0x3cd9b0>
	*(volatile uint16_t *) addr = b;
}

static inline void iowrite32(volatile uint32_t addr, const uint32_t b)
{
	*(volatile uint32_t *) addr = b;
  90637f:	c040      	movi.n	a4, 0
  906381:	0b2000        	callx8	a2
  906384:	156919        	l32r	a5, 8e07e8 <_bss_end+0x3cd8d8>
  906387:	12691b        	l32r	a2, 8e07f4 <_bss_end+0x3cd8e4>
	iowrite32(WATCH_DOG_MAGIC_PATTERN_ADDR, WDT_MAGIC_PATTERN);

	io32_set(MAGPIE_REG_RST_RESET_ADDR, BIT10 | BIT8 | BIT7 | BIT6);
  90638a:	2b5ac0        	movi	a11, 0x5c0
  90638d:	0c0200        	memw
  906390:	9250      	s32i.n	a2, a5, 0
  906392:	126943        	l32r	a2, 8e08a0 <_bss_end+0x3cd990>
  906395:	c0c0      	movi.n	a12, 0
  906397:	da20      	mov.n	a10, a2
  906399:	5bffb8        	call8	90627c <io32_rmw>

	io32_set(MAGPIE_REG_AHB_ARB_ADDR, BIT1);
  90639c:	1a6944        	l32r	a10, 8e08ac <_bss_end+0x3cd99c>
  90639f:	2b0a02        	movi	a11, 2
  9063a2:	2c0a00        	movi	a12, 0
  9063a5:	5bffb5        	call8	90627c <io32_rmw>
  9063a8:	166952        	l32r	a6, 8e08f0 <_bss_end+0x3cd9e0>

	iowrite32_usb(ZM_SOC_USB_DMA_RESET_OFFSET, 0x0);
	io32_set(0x50010, BIT4);
  9063ab:	dc40      	mov.n	a12, a4
  9063ad:	0c0200        	memw
  9063b0:	9460      	s32i.n	a4, a6, 0
  9063b2:	da20      	mov.n	a10, a2
  9063b4:	c1b0      	movi.n	a11, 16
  9063b6:	5bffb1        	call8	90627c <io32_rmw>
	A_DELAY_USECS(5);
  9063b9:	28323b        	l32i	a8, a3, 236
  9063bc:	c0a5      	movi.n	a10, 5
  9063be:	0b8000        	callx8	a8
	io32_clr(0x50010, BIT4);
  9063c1:	c1c0      	movi.n	a12, 16
  9063c3:	044b02        	or	a11, a4, a4
  9063c6:	022a02        	or	a10, a2, a2
  9063c9:	5bffac        	call8	90627c <io32_rmw>
	A_DELAY_USECS(5);
  9063cc:	22323b        	l32i	a2, a3, 236
  9063cf:	c0a5      	movi.n	a10, 5
  9063d1:	0b2000        	callx8	a2
  9063d4:	c021      	movi.n	a2, 1
  9063d6:	0c0200        	memw
  9063d9:	226600        	s32i	a2, a6, 0
  9063dc:	16694a        	l32r	a6, 8e0904 <_bss_end+0x3cd9f4>
  9063df:	280a11        	movi	a8, 17
  9063e2:	0c0200        	memw
  9063e5:	286600        	s32i	a8, a6, 0
	iowrite32_usb(ZM_SOC_USB_DMA_RESET_OFFSET, BIT0);

	// set clock to bypass mode - 40Mhz from XTAL
	iowrite32(MAGPIE_REG_CPU_PLL_BYPASS_ADDR, BIT0 | BIT4);
	A_DELAY_USECS(100); // wait for stable
  9063e8:	26323b        	l32i	a6, a3, 236
  9063eb:	2a0a64        	movi	a10, 100
  9063ee:	0b6000        	callx8	a6
  9063f1:	186953        	l32r	a8, 8e0940 <_bss_end+0x3cda30>
  9063f4:	16694b        	l32r	a6, 8e0920 <_bss_end+0x3cda10>
	iowrite32(MAGPIE_REG_CPU_PLL_ADDR, BIT16);

	A_UART_HWINIT((40*1000*1000), 115200);
  9063f7:	1b694e        	l32r	a11, 8e0930 <_bss_end+0x3cda20>
  9063fa:	0c0200        	memw
  9063fd:	9860      	s32i.n	a8, a6, 0
  9063ff:	1a6916        	l32r	a10, 8e0858 <_bss_end+0x3cd948>
  906402:	26321a        	l32i	a6, a3, 104
  906405:	0b6000        	callx8	a6

	A_PRINTF("do TX/RX swap\n");
  906408:	1a6954        	l32r	a10, 8e0958 <_bss_end+0x3cda48>
  90640b:	263212        	l32i	a6, a3, 72
  90640e:	0b6000        	callx8	a6

	MAGPIE_REG_USB_RX0_SWAP_DATA = 0x1;
  906411:	166955        	l32r	a6, 8e0968 <_bss_end+0x3cda58>
	MAGPIE_REG_USB_TX0_SWAP_DATA = 0x1;
	MAGPIE_REG_USB_RX1_SWAP_DATA = 0x1;
	MAGPIE_REG_USB_RX2_SWAP_DATA = 0x1;

        A_PRINTF("Cold reboot initiated.");
  906414:	1a6959        	l32r	a10, 8e0978 <_bss_end+0x3cda68>

	A_UART_HWINIT((40*1000*1000), 115200);

	A_PRINTF("do TX/RX swap\n");

	MAGPIE_REG_USB_RX0_SWAP_DATA = 0x1;
  906417:	0c0200        	memw
  90641a:	9260      	s32i.n	a2, a6, 0
	MAGPIE_REG_USB_TX0_SWAP_DATA = 0x1;
  90641c:	166956        	l32r	a6, 8e0974 <_bss_end+0x3cda64>
  90641f:	0c0200        	memw
  906422:	226600        	s32i	a2, a6, 0
	MAGPIE_REG_USB_RX1_SWAP_DATA = 0x1;
  906425:	166957        	l32r	a6, 8e0984 <_bss_end+0x3cda74>
  906428:	0c0200        	memw
  90642b:	226600        	s32i	a2, a6, 0
	MAGPIE_REG_USB_RX2_SWAP_DATA = 0x1;
  90642e:	166958        	l32r	a6, 8e0990 <_bss_end+0x3cda80>
  906431:	0c0200        	memw
  906434:	226600        	s32i	a2, a6, 0

        A_PRINTF("Cold reboot initiated.");
  906437:	223212        	l32i	a2, a3, 72
  90643a:	0b2000        	callx8	a2
#if defined(PROJECT_MAGPIE)
	iowrite32(WATCH_DOG_MAGIC_PATTERN_ADDR, 0);
#elif defined(PROJECT_K2)
	iowrite32(MAGPIE_REG_RST_STATUS_ADDR, 0);
#endif /* #if defined(PROJECT_MAGPIE) */
	A_USB_JUMP_BOOT();
  90643d:	22322c        	l32i	a2, a3, 176
  906440:	0c0200        	memw
  906443:	9450      	s32i.n	a4, a5, 0
  906445:	0b2000        	callx8	a2
  906448:	d10f      	retw.n
	...

0090644c <reset_EP4_FIFO>:
}

void reset_EP4_FIFO(void)
{
  90644c:	6c1004        	entry	a1, 32
  90644f:	18695a        	l32r	a8, 8e09b8 <_bss_end+0x3cdaa8>
{
	uint8_t val;

	val = ioread8(addr);
	val &= ~clr;
	val |= set;
  906452:	c1a0      	movi.n	a10, 16

#include <adf_os_io_pvt.h>

static inline uint8_t ioread8(const volatile uint32_t addr)
{
	return *(const volatile uint8_t *) addr;
  906454:	298000        	l8ui	a9, a8, 0
  906457:	090947        	extui	a9, a9, 0, 8
{
	uint8_t val;

	val = ioread8(addr);
	val &= ~clr;
	val |= set;
  90645a:	0a9902        	or	a9, a9, a10
	return *(const volatile uint32_t *) addr;
}

static inline void iowrite8(volatile uint32_t addr, const uint8_t b)
{
	*(volatile uint8_t *) addr = b;
  90645d:	0c0200        	memw
  906460:	298400        	s8i	a9, a8, 0

#include <adf_os_io_pvt.h>

static inline uint8_t ioread8(const volatile uint32_t addr)
{
	return *(const volatile uint8_t *) addr;
  906463:	298000        	l8ui	a9, a8, 0
			    const uint8_t set, const uint8_t clr)
{
	uint8_t val;

	val = ioread8(addr);
	val &= ~clr;
  906466:	c6af      	movi.n	a10, -17

#include <adf_os_io_pvt.h>

static inline uint8_t ioread8(const volatile uint32_t addr)
{
	return *(const volatile uint8_t *) addr;
  906468:	090947        	extui	a9, a9, 0, 8
			    const uint8_t set, const uint8_t clr)
{
	uint8_t val;

	val = ioread8(addr);
	val &= ~clr;
  90646b:	0a9901        	and	a9, a9, a10
	return *(const volatile uint32_t *) addr;
}

static inline void iowrite8(volatile uint32_t addr, const uint8_t b)
{
	*(volatile uint8_t *) addr = b;
  90646e:	0c0200        	memw
  906471:	298400        	s8i	a9, a8, 0
  906474:	d10f      	retw.n
	...

00906478 <zfGenExceptionEvent>:
	for(i = 0; i < 100; i++) {}
	io8_clr_usb(ZM_EP4_BYTE_COUNT_HIGH_OFFSET, BIT4);
}

LOCAL void zfGenExceptionEvent(uint32_t exccause, uint32_t pc, uint32_t badvaddr)
{
  906478:	6c1004        	entry	a1, 32
	uint32_t pattern = 0x33221199;

	A_PRINTF("<Exception>Tgt Drv send an event 44332211 to Host Drv\n");
  90647b:	186915        	l32r	a8, 8e08d0 <_bss_end+0x3cd9c0>
  90647e:	1a695b        	l32r	a10, 8e09ec <_bss_end+0x3cdadc>
  906481:	288212        	l32i	a8, a8, 72
  906484:	0b8000        	callx8	a8

#include <adf_os_io_pvt.h>

static inline uint8_t ioread8(const volatile uint32_t addr)
{
	return *(const volatile uint8_t *) addr;
  906487:	18695c        	l32r	a8, 8e09f8 <_bss_end+0x3cdae8>
	mUSB_STATUS_IN_INT_DISABLE();
  90648a:	2a0ac0        	movi	a10, 192
  90648d:	298000        	l8ui	a9, a8, 0
  906490:	090947        	extui	a9, a9, 0, 8
  906493:	0a9902        	or	a9, a9, a10
	return *(const volatile uint32_t *) addr;
}

static inline void iowrite8(volatile uint32_t addr, const uint8_t b)
{
	*(volatile uint8_t *) addr = b;
  906496:	0c0200        	memw
  906499:	298400        	s8i	a9, a8, 0
	*(volatile uint16_t *) addr = b;
}

static inline void iowrite32(volatile uint32_t addr, const uint32_t b)
{
	*(volatile uint32_t *) addr = b;
  90649c:	18693c        	l32r	a8, 8e098c <_bss_end+0x3cda7c>
  90649f:	c09f      	movi.n	a9, 15
  9064a1:	0c0200        	memw
  9064a4:	9980      	s32i.n	a9, a8, 0
  9064a6:	18695d        	l32r	a8, 8e0a1c <_bss_end+0x3cdb0c>
  9064a9:	19695e        	l32r	a9, 8e0a24 <_bss_end+0x3cdb14>
  9064ac:	0c0200        	memw
  9064af:	9980      	s32i.n	a9, a8, 0
  9064b1:	0c0200        	memw
  9064b4:	9280      	s32i.n	a2, a8, 0
  9064b6:	0c0200        	memw
  9064b9:	9380      	s32i.n	a3, a8, 0
  9064bb:	0c0200        	memw
  9064be:	9480      	s32i.n	a4, a8, 0

#include <adf_os_io_pvt.h>

static inline uint8_t ioread8(const volatile uint32_t addr)
{
	return *(const volatile uint8_t *) addr;
  9064c0:	18695f        	l32r	a8, 8e0a3c <_bss_end+0x3cdb2c>
	iowrite32_usb(ZM_EP3_DATA_OFFSET, pattern);
	iowrite32_usb(ZM_EP3_DATA_OFFSET, exccause);
	iowrite32_usb(ZM_EP3_DATA_OFFSET, pc);
	iowrite32_usb(ZM_EP3_DATA_OFFSET, badvaddr);
    
	mUSB_EP3_XFER_DONE();
  9064c3:	c038      	movi.n	a3, 8
  9064c5:	228000        	l8ui	a2, a8, 0
  9064c8:	020247        	extui	a2, a2, 0, 8
  9064cb:	032202        	or	a2, a2, a3
	return *(const volatile uint32_t *) addr;
}

static inline void iowrite8(volatile uint32_t addr, const uint8_t b)
{
	*(volatile uint8_t *) addr = b;
  9064ce:	0c0200        	memw
  9064d1:	228400        	s8i	a2, a8, 0
  9064d4:	d10f      	retw.n
	...

009064d8 <AR6002_fatal_exception_handler_patch>:
	mUSB_EP3_XFER_DONE();
}

void
AR6002_fatal_exception_handler_patch(CPU_exception_frame_t *exc_frame)
{
  9064d8:	6c1016        	entry	a1, 176
	struct register_dump_s dump;
	uint32_t  exc_cause, exc_vaddr;
	asm volatile("rsr %0,%1" : "=r" (exc_cause) : "n" (EXCCAUSE));
  9064db:	04e830        	rsr.exccause	a4
	asm volatile("rsr %0,%1" : "=r" (exc_vaddr) : "n" (EXCVADDR));
  9064de:	03ee30        	rsr.excvaddr	a3

	dump.exc_frame              = *exc_frame; /* structure copy */
  9064e1:	2c0a80        	movi	a12, 128
  9064e4:	022b02        	or	a11, a2, a2
  9064e7:	2a1c10        	addi	a10, a1, 16
  9064ea:	5b819e        	call8	8e6b64 <memcpy>
	dump.badvaddr               = exc_vaddr;
	dump.exc_frame.xt_exccause  = exc_cause;
	dump.pc                     = exc_frame->xt_pc;
  9064ed:	8b20      	l32i.n	a11, a2, 0
	dump.assline                = 0;

	zfGenExceptionEvent(dump.exc_frame.xt_exccause, dump.pc, dump.badvaddr);
  9064ef:	da40      	mov.n	a10, a4
  9064f1:	dc30      	mov.n	a12, a3

	dump.exc_frame              = *exc_frame; /* structure copy */
	dump.badvaddr               = exc_vaddr;
	dump.exc_frame.xt_exccause  = exc_cause;
	dump.pc                     = exc_frame->xt_pc;
	dump.assline                = 0;
  9064f3:	c020      	movi.n	a2, 0
	uint32_t  exc_cause, exc_vaddr;
	asm volatile("rsr %0,%1" : "=r" (exc_cause) : "n" (EXCCAUSE));
	asm volatile("rsr %0,%1" : "=r" (exc_vaddr) : "n" (EXCVADDR));

	dump.exc_frame              = *exc_frame; /* structure copy */
	dump.badvaddr               = exc_vaddr;
  9064f5:	9313      	s32i.n	a3, a1, 12
	dump.exc_frame.xt_exccause  = exc_cause;
	dump.pc                     = exc_frame->xt_pc;
  9064f7:	9b12      	s32i.n	a11, a1, 8
	dump.assline                = 0;
  9064f9:	9211      	s32i.n	a2, a1, 4
	asm volatile("rsr %0,%1" : "=r" (exc_cause) : "n" (EXCCAUSE));
	asm volatile("rsr %0,%1" : "=r" (exc_vaddr) : "n" (EXCVADDR));

	dump.exc_frame              = *exc_frame; /* structure copy */
	dump.badvaddr               = exc_vaddr;
	dump.exc_frame.xt_exccause  = exc_cause;
  9064fb:	941c      	s32i.n	a4, a1, 48
	dump.pc                     = exc_frame->xt_pc;
	dump.assline                = 0;

	zfGenExceptionEvent(dump.exc_frame.xt_exccause, dump.pc, dump.badvaddr);
  9064fd:	5bffde        	call8	906478 <zfGenExceptionEvent>

#if SYSTEM_MODULE_PRINT
	A_PRINTF("\nFatal exception (%d): \tpc=0x%x \n\r\tbadvaddr=0x%x \n\r\tdump area=0x%x\n",
  906500:	126915        	l32r	a2, 8e0954 <_bss_end+0x3cda44>
  906503:	8b1c      	l32i.n	a11, a1, 48
  906505:	232212        	l32i	a3, a2, 72
  906508:	8c12      	l32i.n	a12, a1, 8
  90650a:	8d13      	l32i.n	a13, a1, 12
  90650c:	1a6960        	l32r	a10, 8e0a8c <_bss_end+0x3cdb7c>
  90650f:	de10      	mov.n	a14, a1
  906511:	0b3000        	callx8	a3
		 dump.exc_frame.xt_exccause, dump.pc, dump.badvaddr, &dump);
	PRINT_FAILURE_STATE();
  906514:	0bb130        	rsr.epc1	a11
  906517:	0cb230        	rsr.epc2	a12
  90651a:	0db330        	rsr.epc3	a13
  90651d:	0eb430        	rsr.epc4	a14
  906520:	1a6961        	l32r	a10, 8e0aa4 <_bss_end+0x3cdb94>
  906523:	232212        	l32i	a3, a2, 72
  906526:	0b3000        	callx8	a3
  906529:	136912        	l32r	a3, 8e0974 <_bss_end+0x3cda64>
  90652c:	1a6962        	l32r	a10, 8e0ab4 <_bss_end+0x3cdba4>
  90652f:	0c0200        	memw
  906532:	8b30      	l32i.n	a11, a3, 0
  906534:	13691d        	l32r	a3, 8e09a8 <_bss_end+0x3cda98>
  906537:	0c0200        	memw
  90653a:	8c30      	l32i.n	a12, a3, 0
  90653c:	136919        	l32r	a3, 8e09a0 <_bss_end+0x3cda90>
  90653f:	0c0200        	memw
  906542:	8d30      	l32i.n	a13, a3, 0
  906544:	232212        	l32i	a3, a2, 72
  906547:	0b3000        	callx8	a3
#else
	A_PUTS("Fatal exception\n\r");
#endif
	A_ASSFAIL(&dump);
  90654a:	822a      	l32i.n	a2, a2, 40
  90654c:	da10      	mov.n	a10, a1
  90654e:	0b2000        	callx8	a2
  906551:	63fffc        	j	906551 <AR6002_fatal_exception_handler_patch+0x79>

00906554 <zfGenWrongEpidEvent>:
    
	mUSB_EP3_XFER_DONE();
}

LOCAL void zfGenWrongEpidEvent(uint32_t epid)
{
  906554:	6c1004        	entry	a1, 32
	uint32_t pattern   = 0x33221299;

	A_PRINTF("<WrongEPID>Tgt Drv send an event 44332212 to Host Drv\n");
  906557:	186915        	l32r	a8, 8e09ac <_bss_end+0x3cda9c>
  90655a:	1a6963        	l32r	a10, 8e0ae8 <_bss_end+0x3cdbd8>
  90655d:	288212        	l32i	a8, a8, 72
  906560:	0b8000        	callx8	a8

#include <adf_os_io_pvt.h>

static inline uint8_t ioread8(const volatile uint32_t addr)
{
	return *(const volatile uint8_t *) addr;
  906563:	18695c        	l32r	a8, 8e0ad4 <_bss_end+0x3cdbc4>
	mUSB_STATUS_IN_INT_DISABLE();
  906566:	2a0ac0        	movi	a10, 192
  906569:	298000        	l8ui	a9, a8, 0
  90656c:	090947        	extui	a9, a9, 0, 8
  90656f:	0a9902        	or	a9, a9, a10
	return *(const volatile uint32_t *) addr;
}

static inline void iowrite8(volatile uint32_t addr, const uint8_t b)
{
	*(volatile uint8_t *) addr = b;
  906572:	0c0200        	memw
  906575:	298400        	s8i	a9, a8, 0
	*(volatile uint16_t *) addr = b;
}

static inline void iowrite32(volatile uint32_t addr, const uint32_t b)
{
	*(volatile uint32_t *) addr = b;
  906578:	18693c        	l32r	a8, 8e0a68 <_bss_end+0x3cdb58>
  90657b:	c09f      	movi.n	a9, 15
  90657d:	0c0200        	memw
  906580:	9980      	s32i.n	a9, a8, 0
  906582:	18695d        	l32r	a8, 8e0af8 <_bss_end+0x3cdbe8>
  906585:	196964        	l32r	a9, 8e0b18 <_bss_end+0x3cdc08>
  906588:	0c0200        	memw
  90658b:	9980      	s32i.n	a9, a8, 0
  90658d:	0c0200        	memw
  906590:	9280      	s32i.n	a2, a8, 0

#include <adf_os_io_pvt.h>

static inline uint8_t ioread8(const volatile uint32_t addr)
{
	return *(const volatile uint8_t *) addr;
  906592:	18695f        	l32r	a8, 8e0b10 <_bss_end+0x3cdc00>
	iowrite32_usb(ZM_CBUS_FIFO_SIZE_OFFSET, 0x0f);

	iowrite32_usb(ZM_EP3_DATA_OFFSET, pattern);
	iowrite32_usb(ZM_EP3_DATA_OFFSET, epid);

	mUSB_EP3_XFER_DONE();
  906595:	c098      	movi.n	a9, 8
  906597:	228000        	l8ui	a2, a8, 0
  90659a:	020247        	extui	a2, a2, 0, 8
  90659d:	092202        	or	a2, a2, a9
	return *(const volatile uint32_t *) addr;
}

static inline void iowrite8(volatile uint32_t addr, const uint8_t b)
{
	*(volatile uint8_t *) addr = b;
  9065a0:	0c0200        	memw
  9065a3:	228400        	s8i	a2, a8, 0
  9065a6:	d10f      	retw.n

009065a8 <HTCControlSvcProcessMsg_patch>:
}

void 
HTCControlSvcProcessMsg_patch(HTC_ENDPOINT_ID EndpointID, adf_nbuf_t hdr_buf,
			      adf_nbuf_t pBuffers, void *arg)
{
  9065a8:	6c1006        	entry	a1, 48
 *
 */
static inline void
adf_nbuf_peek_header(adf_nbuf_t buf, a_uint8_t **addr, a_uint32_t *len)
{
    __adf_nbuf_peek_header(buf, addr, len);
  9065ab:	da40      	mov.n	a10, a4
  9065ad:	b41b      	addi.n	a11, a1, 4
  9065af:	dc10      	mov.n	a12, a1
  9065b1:	5801bb        	call8	906ca0 <__adf_nbuf_peek_header>
	/* we assume buffers are aligned such that we can access the message
	 * parameters directly*/
	adf_nbuf_peek_header(pBuffers, &anbdata, &anblen);
	pMsg = (HTC_UNKNOWN_MSG *)anbdata;

	if (pMsg->MessageID == HTC_MSG_SETUP_COMPLETE_ID) {
  9065b4:	8811      	l32i.n	a8, a1, 4
  9065b6:	298000        	l8ui	a9, a8, 0
  9065b9:	288001        	l8ui	a8, a8, 1
  9065bc:	089911        	slli	a9, a9, 8
  9065bf:	098802        	or	a8, a8, a9
  9065c2:	698407        	bnei	a8, 4, 9065cd <HTCControlSvcProcessMsg_patch+0x25>
		htc_complete_setup = 1;
  9065c5:	186965        	l32r	a8, 8e0b5c <_bss_end+0x3cdc4c>
  9065c8:	c091      	movi.n	a9, 1
  9065ca:	298400        	s8i	a9, a8, 0
	}

	HTCControlSvcProcessMsg(EndpointID, hdr_buf, pBuffers, arg);
  9065cd:	da20      	mov.n	a10, a2
  9065cf:	db30      	mov.n	a11, a3
  9065d1:	dc40      	mov.n	a12, a4
  9065d3:	dd50      	mov.n	a13, a5
  9065d5:	580ee5        	call8	90a16c <HTCControlSvcProcessMsg>
  9065d8:	d10f      	retw.n
	...

009065dc <HTCMsgRecvHandler_patch>:
}

/* Patch callback for check the endpoint ID is correct or not */
void 
HTCMsgRecvHandler_patch(adf_nbuf_t hdr_buf, adf_nbuf_t buffer, void *context)
{
  9065dc:	6c100a        	entry	a1, 80
	adf_nbuf_t tmp_nbuf;
	HTC_FRAME_HDR *pHTCHdr;
                
	if (hdr_buf == ADF_NBUF_NULL) {
		/* HTC hdr is not in the hdr_buf */
		tmp_nbuf = buffer;
  9065df:	033502        	or	a5, a3, a3
  9065e2:	022539        	movnez	a5, a2, a2
  9065e5:	2b1c24        	addi	a11, a1, 36
  9065e8:	055a02        	or	a10, a5, a5
  9065eb:	2c1c20        	addi	a12, a1, 32
  9065ee:	5801ac        	call8	906ca0 <__adf_nbuf_peek_header>
	} else {
		tmp_nbuf = hdr_buf;
	}
                
	adf_nbuf_peek_header(tmp_nbuf, &anbdata, &anblen);        
	pHTCHdr = (HTC_FRAME_HDR *)anbdata; 
  9065f1:	8619      	l32i.n	a6, a1, 36
  
	eid = pHTCHdr->EndpointID;
  9065f3:	2b6000        	l8ui	a11, a6, 0
    
	if ((eid != 0) && (htc_complete_setup == 0)) {
  9065f6:	64b132        	beqz	a11, 90672c <HTCMsgRecvHandler_patch+0x150>
  9065f9:	186965        	l32r	a8, 8e0b90 <_bss_end+0x3cdc80>
  9065fc:	288000        	l8ui	a8, a8, 0
  9065ff:	658095        	bnez	a8, 906698 <HTCMsgRecvHandler_patch+0xbc>
		A_PRINTF("\nHTC Hdr EndpointID = %d, anblen = %d\n", pHTCHdr->EndpointID, anblen);
  906602:	126915        	l32r	a2, 8e0a58 <_bss_end+0x3cdb48>
  906605:	8c18      	l32i.n	a12, a1, 32
  906607:	232212        	l32i	a3, a2, 72
  90660a:	1a6966        	l32r	a10, 8e0ba4 <_bss_end+0x3cdc94>
  90660d:	0b3000        	callx8	a3
		A_PRINTF("HTC Hder : %2x-%2x-%2x-%2x-%2x-%2x-%2x-%2x-%2x-%2x-%2x-%2x\n",
                         *anbdata, *(anbdata+1), *(anbdata+2), *(anbdata+3), 
  906610:	8819      	l32i.n	a8, a1, 36
  
	eid = pHTCHdr->EndpointID;
    
	if ((eid != 0) && (htc_complete_setup == 0)) {
		A_PRINTF("\nHTC Hdr EndpointID = %d, anblen = %d\n", pHTCHdr->EndpointID, anblen);
		A_PRINTF("HTC Hder : %2x-%2x-%2x-%2x-%2x-%2x-%2x-%2x-%2x-%2x-%2x-%2x\n",
  906612:	1a6967        	l32r	a10, 8e0bb0 <_bss_end+0x3cdca0>
  906615:	238005        	l8ui	a3, a8, 5
  906618:	2b8000        	l8ui	a11, a8, 0
  90661b:	2c8001        	l8ui	a12, a8, 1
  90661e:	2d8002        	l8ui	a13, a8, 2
  906621:	2e8003        	l8ui	a14, a8, 3
  906624:	2f8004        	l8ui	a15, a8, 4
  906627:	9310      	s32i.n	a3, a1, 0
  906629:	238006        	l8ui	a3, a8, 6
  90662c:	9311      	s32i.n	a3, a1, 4
  90662e:	238007        	l8ui	a3, a8, 7
  906631:	9312      	s32i.n	a3, a1, 8
  906633:	238008        	l8ui	a3, a8, 8
  906636:	9313      	s32i.n	a3, a1, 12
  906638:	238009        	l8ui	a3, a8, 9
  90663b:	9314      	s32i.n	a3, a1, 16
  90663d:	23800a        	l8ui	a3, a8, 10
  906640:	9315      	s32i.n	a3, a1, 20
  906642:	23800b        	l8ui	a3, a8, 11
  906645:	9316      	s32i.n	a3, a1, 24
  906647:	232212        	l32i	a3, a2, 72
  90664a:	0b3000        	callx8	a3
                         *anbdata, *(anbdata+1), *(anbdata+2), *(anbdata+3), 
                         *(anbdata+4), *(anbdata+5), *(anbdata+6), *(anbdata+7),
                         *(anbdata+8), *(anbdata+9), *(anbdata+10), *(anbdata+11)); 
		A_PRINTF("init_htc_handle = 0x%8x\n", init_htc_handle);
  90664d:	136969        	l32r	a3, 8e0bf4 <_bss_end+0x3cdce4>
  906650:	242212        	l32i	a4, a2, 72
  906653:	1a6968        	l32r	a10, 8e0bf4 <_bss_end+0x3cdce4>
  906656:	2b3200        	l32i	a11, a3, 0
  906659:	0b4000        	callx8	a4
            
		if (pHTCHdr->EndpointID == 1) {
  90665c:	266000        	l8ui	a6, a6, 0
  90665f:	696112        	bnei	a6, 1, 906675 <HTCMsgRecvHandler_patch+0x99>
			A_PRINTF("Return WMI Command buffer\n");
  906662:	242212        	l32i	a4, a2, 72
  906665:	1a696a        	l32r	a10, 8e0c10 <_bss_end+0x3cdd00>
  906668:	0b4000        	callx8	a4
			HTC_ReturnBuffers(init_htc_handle, 1, tmp_nbuf);
  90666b:	8a30      	l32i.n	a10, a3, 0
  90666d:	222282        	l32i	a2, a2, 0x208
  906670:	db60      	mov.n	a11, a6
  906672:	60001b        	j	906691 <HTCMsgRecvHandler_patch+0xb5>
		} else if ((pHTCHdr->EndpointID == 5) || (pHTCHdr->EndpointID == 6)) {
  906675:	266cfb        	addi	a6, a6, -5
  906678:	060647        	extui	a6, a6, 0, 8
  90667b:	6e6202        	bltui	a6, 2, 906681 <HTCMsgRecvHandler_patch+0xa5>
  90667e:	6000b3        	j	906735 <HTCMsgRecvHandler_patch+0x159>
			A_PRINTF("Return Data buffer\n");
  906681:	242212        	l32i	a4, a2, 72
  906684:	1a696b        	l32r	a10, 8e0c30 <_bss_end+0x3cdd20>
  906687:	0b4000        	callx8	a4
			HTC_ReturnBuffers(init_htc_handle, 6, tmp_nbuf);
  90668a:	8a30      	l32i.n	a10, a3, 0
  90668c:	222282        	l32i	a2, a2, 0x208
  90668f:	c0b6      	movi.n	a11, 6
  906691:	dc50      	mov.n	a12, a5
  906693:	0b2000        	callx8	a2
  906696:	d10f      	retw.n
		} else {
		}
	} else {
		if ((pHTCHdr->EndpointID < 0) || (pHTCHdr->EndpointID >= ENDPOINT_MAX)) {
  906698:	c185      	movi.n	a8, 21
  90669a:	7b8302        	bltu	a8, a11, 9066a0 <HTCMsgRecvHandler_patch+0xc4>
  90669d:	60008b        	j	90672c <HTCMsgRecvHandler_patch+0x150>
			A_PRINTF("HTC Hdr EndpointID = %d, anblen = %d\n", pHTCHdr->EndpointID, anblen);
  9066a0:	126915        	l32r	a2, 8e0af4 <_bss_end+0x3cdbe4>
  9066a3:	8c18      	l32i.n	a12, a1, 32
  9066a5:	232212        	l32i	a3, a2, 72
  9066a8:	1a696c        	l32r	a10, 8e0c58 <_bss_end+0x3cdd48>
			A_PRINTF("HTC Hder : %2x-%2x-%2x-%2x-%2x-%2x-%2x-%2x\n", 
                                 *anbdata, *(anbdata+1), *(anbdata+2), *(anbdata+3), 
                                 *(anbdata+4), *(anbdata+5), *(anbdata+6), *(anbdata+7));

			if (anblen > 64) {
  9066ab:	c440      	movi.n	a4, 64
			HTC_ReturnBuffers(init_htc_handle, 6, tmp_nbuf);
		} else {
		}
	} else {
		if ((pHTCHdr->EndpointID < 0) || (pHTCHdr->EndpointID >= ENDPOINT_MAX)) {
			A_PRINTF("HTC Hdr EndpointID = %d, anblen = %d\n", pHTCHdr->EndpointID, anblen);
  9066ad:	0b3000        	callx8	a3
			A_PRINTF("HTC Hder : %2x-%2x-%2x-%2x-%2x-%2x-%2x-%2x\n", 
                                 *anbdata, *(anbdata+1), *(anbdata+2), *(anbdata+3), 
  9066b0:	8819      	l32i.n	a8, a1, 36
		} else {
		}
	} else {
		if ((pHTCHdr->EndpointID < 0) || (pHTCHdr->EndpointID >= ENDPOINT_MAX)) {
			A_PRINTF("HTC Hdr EndpointID = %d, anblen = %d\n", pHTCHdr->EndpointID, anblen);
			A_PRINTF("HTC Hder : %2x-%2x-%2x-%2x-%2x-%2x-%2x-%2x\n", 
  9066b2:	1a696d        	l32r	a10, 8e0c68 <_bss_end+0x3cdd58>
  9066b5:	238005        	l8ui	a3, a8, 5
  9066b8:	2b8000        	l8ui	a11, a8, 0
  9066bb:	2c8001        	l8ui	a12, a8, 1
  9066be:	2d8002        	l8ui	a13, a8, 2
  9066c1:	2e8003        	l8ui	a14, a8, 3
  9066c4:	2f8004        	l8ui	a15, a8, 4
  9066c7:	9310      	s32i.n	a3, a1, 0
  9066c9:	238006        	l8ui	a3, a8, 6
  9066cc:	9311      	s32i.n	a3, a1, 4
  9066ce:	238007        	l8ui	a3, a8, 7
  9066d1:	231602        	s32i	a3, a1, 8
  9066d4:	232212        	l32i	a3, a2, 72
  9066d7:	0b3000        	callx8	a3
                                 *anbdata, *(anbdata+1), *(anbdata+2), *(anbdata+3), 
                                 *(anbdata+4), *(anbdata+5), *(anbdata+6), *(anbdata+7));

			if (anblen > 64) {
  9066da:	231208        	l32i	a3, a1, 32
  9066dd:	734b20        	bgeu	a4, a3, 906701 <HTCMsgRecvHandler_patch+0x125>
				A_PRINTF("EP1-Tx-Data with Wrong Htc Header Endpoint ID, WAR free this buffer\n");
  9066e0:	232212        	l32i	a3, a2, 72
  9066e3:	1a696e        	l32r	a10, 8e0c9c <_bss_end+0x3cdd8c>
  9066e6:	0b3000        	callx8	a3
				HTC_ReturnBuffers(init_htc_handle, 6, tmp_nbuf);
  9066e9:	146969        	l32r	a4, 8e0c90 <_bss_end+0x3cdd80>
  9066ec:	232282        	l32i	a3, a2, 0x208
  9066ef:	8a40      	l32i.n	a10, a4, 0
  9066f1:	c0b6      	movi.n	a11, 6
  9066f3:	dc50      	mov.n	a12, a5
  9066f5:	0b3000        	callx8	a3
				A_PRINTF("EP1-Tx-Data > Free this buffer successfully\n");
  9066f8:	1a696f        	l32r	a10, 8e0cb4 <_bss_end+0x3cdda4>
  9066fb:	222212        	l32i	a2, a2, 72
  9066fe:	600024        	j	906726 <HTCMsgRecvHandler_patch+0x14a>
			} else {
				A_PRINTF("EP4-WMI-Cmd with Wrong Htc Header Endpoint ID, WAR free this buffer\n");
  906701:	232212        	l32i	a3, a2, 72
  906704:	1a6970        	l32r	a10, 8e0cc4 <_bss_end+0x3cddb4>
  906707:	0b3000        	callx8	a3
				zfGenWrongEpidEvent((a_uint32_t)pHTCHdr->EndpointID);
  90670a:	2a6000        	l8ui	a10, a6, 0
  90670d:	5bff91        	call8	906554 <zfGenWrongEpidEvent>
				HTC_ReturnBuffers(init_htc_handle, 1, tmp_nbuf);
  906710:	146969        	l32r	a4, 8e0cb4 <_bss_end+0x3cdda4>
  906713:	232282        	l32i	a3, a2, 0x208
  906716:	8a40      	l32i.n	a10, a4, 0
  906718:	c0b1      	movi.n	a11, 1
  90671a:	055c02        	or	a12, a5, a5
  90671d:	0b3000        	callx8	a3
				A_PRINTF("EP4-WMI-Cmd > Free this buffer successfully\n");
  906720:	1a6971        	l32r	a10, 8e0ce4 <_bss_end+0x3cddd4>
  906723:	222212        	l32i	a2, a2, 72
  906726:	0b2000        	callx8	a2
  906729:	d10f      	retw.n
  90672b:	00da20        	excw
			}
		} else
			HTCMsgRecvHandler( hdr_buf, buffer, context);
  90672e:	db30      	mov.n	a11, a3
  906730:	dc40      	mov.n	a12, a4
  906732:	580f18        	call8	90a394 <HTCMsgRecvHandler>
  906735:	d10f      	retw.n
	...

00906738 <init_mem>:
	}
}
#endif

void init_mem()
{
  906738:	6c1004        	entry	a1, 32
	int i = 0;
	uint32_t *temp = (uint32_t *)ALLOCRAM_START;

	/* clear bss segment */
	for(temp = (uint32_t *)&START_BSS; temp < (uint32_t *)&END_BSS; temp++)
  90673b:	186972        	l32r	a8, 8e0d04 <_bss_end+0x3cddf4>
  90673e:	196973        	l32r	a9, 8e0d0c <_bss_end+0x3cddfc>
		*temp = 0;
  906741:	c0a0      	movi.n	a10, 0
{
	int i = 0;
	uint32_t *temp = (uint32_t *)ALLOCRAM_START;

	/* clear bss segment */
	for(temp = (uint32_t *)&START_BSS; temp < (uint32_t *)&END_BSS; temp++)
  906743:	600003        	j	90674a <init_mem+0x12>
		*temp = 0;
  906746:	9a80      	s32i.n	a10, a8, 0
{
	int i = 0;
	uint32_t *temp = (uint32_t *)ALLOCRAM_START;

	/* clear bss segment */
	for(temp = (uint32_t *)&START_BSS; temp < (uint32_t *)&END_BSS; temp++)
  906748:	b488      	addi.n	a8, a8, 4
  90674a:	7983f8        	bltu	a8, a9, 906746 <init_mem+0xe>
		*temp = 0;

	/* clear heap segment */
	for(i = 0; i < ((ALLOCRAM_SIZE - 4)/4); i++)
  90674d:	1a6974        	l32r	a10, 8e0d20 <_bss_end+0x3cde10>
  906750:	196927        	l32r	a9, 8e0bec <_bss_end+0x3cdcdc>
  906753:	09a90c        	sub	a9, a10, a9
  906756:	092914        	srli	a9, a9, 2
			HTCMsgRecvHandler( hdr_buf, buffer, context);
	}
}
#endif

void init_mem()
  906759:	08990a        	addx4	a9, a9, a8
	for(temp = (uint32_t *)&START_BSS; temp < (uint32_t *)&END_BSS; temp++)
		*temp = 0;

	/* clear heap segment */
	for(i = 0; i < ((ALLOCRAM_SIZE - 4)/4); i++)
		temp[i] = 0;
  90675c:	c0a0      	movi.n	a10, 0
  90675e:	600003        	j	906765 <init_mem+0x2d>
  906761:	9a80      	s32i.n	a10, a8, 0
  906763:	b488      	addi.n	a8, a8, 4
	/* clear bss segment */
	for(temp = (uint32_t *)&START_BSS; temp < (uint32_t *)&END_BSS; temp++)
		*temp = 0;

	/* clear heap segment */
	for(i = 0; i < ((ALLOCRAM_SIZE - 4)/4); i++)
  906765:	7989f8        	bne	a8, a9, 906761 <init_mem+0x29>
		temp[i] = 0;
}
  906768:	d10f      	retw.n
	...

0090676c <wlan_task>:
	}
	return;
}

void __noreturn wlan_task(void)
{
  90676c:	6c1004        	entry	a1, 32
	loop_low=loop_high=0;
  90676f:	136975        	l32r	a3, 8e0d44 <_bss_end+0x3cde34>
  906772:	c020      	movi.n	a2, 0
  906774:	9230      	s32i.n	a2, a3, 0
  906776:	136976        	l32r	a3, 8e0d50 <_bss_end+0x3cde40>
  906779:	9230      	s32i.n	a2, a3, 0

	while(1) {
		/* update wdt timer */
		A_WDT_TASK();
  90677b:	126915        	l32r	a2, 8e0bd0 <_bss_end+0x3cdcc0>
  90677e:	23225c        	l32i	a3, a2, 0x170
  906781:	0b3000        	callx8	a3

		/* UPDATE cticks - to be moved to idle_tsk, put here will be easier to read  */
		A_CLOCK_TICK();
  906784:	232240        	l32i	a3, a2, 0x100
  906787:	0b3000        	callx8	a3

		HIF_isr_handler(NULL);
  90678a:	23227b        	l32i	a3, a2, 0x1ec
  90678d:	c0a0      	movi.n	a10, 0
  90678f:	0b3000        	callx8	a3

#if MAGPIE_ENABLE_WLAN == 1
		wlan_pci_isr();
  906792:	580d39        	call8	909c78 <wlan_pci_isr>
#endif

		A_TASKLET_RUN();
  906795:	23226d        	l32i	a3, a2, 0x1b4
  906798:	0b3000        	callx8	a3
		A_TIMER_RUN();
  90679b:	232245        	l32i	a3, a2, 0x114
  90679e:	0b3000        	callx8	a3

		/* Very low priority tasks */
		if ((loop_low & 0x1fff) == 0x7)
  9067a1:	136976        	l32r	a3, 8e0d7c <_bss_end+0x3cde6c>
  9067a4:	8830      	l32i.n	a8, a3, 0
  9067a6:	08084c        	extui	a8, a8, 0, 13
  9067a9:	698705        	bnei	a8, 7, 9067b2 <wlan_task+0x46>
			A_DBG_TASK();
  9067ac:	28226f        	l32i	a8, a2, 0x1bc
  9067af:	0b8000        	callx8	a8
		temp[i] = 0;
}

static void idle_task()
{
	if (loop_low == 0xffffffff) {
  9067b2:	8830      	l32i.n	a8, a3, 0
  9067b4:	698008        	bnei	a8, -1, 9067c0 <wlan_task+0x54>
		loop_low = 0;
  9067b7:	c080      	movi.n	a8, 0
  9067b9:	9830      	s32i.n	a8, a3, 0
		loop_high++;
  9067bb:	136975        	l32r	a3, 8e0d90 <_bss_end+0x3cde80>
  9067be:	8830      	l32i.n	a8, a3, 0
	} else {
		loop_low++;
  9067c0:	b188      	addi.n	a8, a8, 1
  9067c2:	9830      	s32i.n	a8, a3, 0
  9067c4:	63ffb6        	j	90677e <wlan_task+0x12>
	...

009067c8 <htc_setup_comp>:
#define MAGPIE 1

#if MAGPIE==1

void htc_setup_comp(void)
{
  9067c8:	6c1004        	entry	a1, 32
  9067cb:	d10f      	retw.n
  9067cd:	000000        	ill

009067d0 <_wmi_cmd_rsp>:
	}
}

void _wmi_cmd_rsp(void *pContext, WMI_COMMAND_ID cmd_id, A_UINT16 SeqNo,
		  A_UINT8 *buffer, int Length)
{
  9067d0:	6c1006        	entry	a1, 48
	adf_nbuf_t netbuf = ADF_NBUF_NULL;
	A_UINT8 *pData;

	netbuf = WMI_AllocEvent(pContext, WMI_EVT_CLASS_CMD_REPLY, sizeof(WMI_CMD_HDR) + Length);
  9067d3:	176915        	l32r	a7, 8e0c28 <_bss_end+0x3cdd18>
  9067d6:	da20      	mov.n	a10, a2
  9067d8:	28728d        	l32i	a8, a7, 0x234
  9067db:	2b0a01        	movi	a11, 1
  9067de:	2c6c04        	addi	a12, a6, 4
  9067e1:	0b8000        	callx8	a8
	}
}

void _wmi_cmd_rsp(void *pContext, WMI_COMMAND_ID cmd_id, A_UINT16 SeqNo,
		  A_UINT8 *buffer, int Length)
{
  9067e4:	04044f        	extui	a4, a4, 0, 16
	adf_nbuf_t netbuf = ADF_NBUF_NULL;
	A_UINT8 *pData;

	netbuf = WMI_AllocEvent(pContext, WMI_EVT_CLASS_CMD_REPLY, sizeof(WMI_CMD_HDR) + Length);
  9067e7:	d8a0      	mov.n	a8, a10
    
	if (netbuf == ADF_NBUF_NULL) {
  9067e9:	cea5      	bnez.n	a10, 906812 <_wmi_cmd_rsp+0x42>
		adf_os_print("%s: buffer allocation for event_id %x failed!\n", __FUNCTION__, cmd_id);
  9067eb:	126978        	l32r	a2, 8e0dcc <_bss_end+0x3cdebc>
  9067ee:	247212        	l32i	a4, a7, 72
  9067f1:	1a6977        	l32r	a10, 8e0dd0 <_bss_end+0x3cdec0>
  9067f4:	022b02        	or	a11, a2, a2
  9067f7:	033c02        	or	a12, a3, a3
  9067fa:	0b4000        	callx8	a4
		adf_os_assert(0);
  9067fd:	1a6979        	l32r	a10, 8e0de4 <_bss_end+0x3cded4>
  906800:	237212        	l32i	a3, a7, 72
  906803:	db20      	mov.n	a11, a2
  906805:	0b3000        	callx8	a3
  906808:	12697a        	l32r	a2, 8e0df0 <_bss_end+0x3cdee0>
  90680b:	0c0200        	memw
  90680e:	8220      	l32i.n	a2, a2, 0
  906810:	d10f      	retw.n
		return;
	}

	if (Length != 0 && buffer != NULL) {
  906812:	c962      	beqz.n	a6, 906828 <_wmi_cmd_rsp+0x58>
  906814:	c950      	beqz.n	a5, 906828 <_wmi_cmd_rsp+0x58>
 *         put, or NULL if there is not enough room in this buf.
 */
static inline a_uint8_t *
adf_nbuf_put_tail(adf_nbuf_t buf, adf_os_size_t size)
{
    return __adf_nbuf_put_tail(buf, size);
  906816:	db60      	mov.n	a11, a6
  906818:	9810      	s32i.n	a8, a1, 0
  90681a:	580105        	call8	906c30 <__adf_nbuf_put_tail>
}

/* move a memory buffer */
static inline void 		__adf_os_mem_copy(void *dst, const void *src, adf_os_size_t size)
{
    A_MEMCPY(dst,src,size);    
  90681d:	8775      	l32i.n	a7, a7, 20
  90681f:	db50      	mov.n	a11, a5
  906821:	dc60      	mov.n	a12, a6
  906823:	0b7000        	callx8	a7
  906826:	8810      	l32i.n	a8, a1, 0
		pData = (A_UINT8 *)adf_nbuf_put_tail(netbuf, Length);
		adf_os_mem_copy(pData, buffer, Length);
	}

	WMI_SendEvent(pContext, netbuf, cmd_id, SeqNo, Length);
  906828:	156915        	l32r	a5, 8e0c7c <_bss_end+0x3cdd6c>
  90682b:	da20      	mov.n	a10, a2
  90682d:	25528e        	l32i	a5, a5, 0x238
  906830:	db80      	mov.n	a11, a8
  906832:	030c4f        	extui	a12, a3, 0, 16
  906835:	dd40      	mov.n	a13, a4
  906837:	de60      	mov.n	a14, a6
  906839:	0b5000        	callx8	a5
  90683c:	d10f      	retw.n
	...

00906840 <Magpie_init>:
}


void Magpie_init(void)
{
  906840:	6c1004        	entry	a1, 32
	A_PRINTF("[+++Magpie_init]\n\r");
  906843:	126915        	l32r	a2, 8e0c98 <_bss_end+0x3cdd88>
  906846:	1a697b        	l32r	a10, 8e0e34 <_bss_end+0x3cdf24>
  906849:	232212        	l32i	a3, a2, 72
  90684c:	0b3000        	callx8	a3
 
	A_PRINTF("[+++VBUF_init(%d)]\n\r", MAX_BUF_NUM);
  90684f:	13697c        	l32r	a3, 8e0e40 <_bss_end+0x3cdf30>
  906852:	282212        	l32i	a8, a2, 72
  906855:	2b0a64        	movi	a11, 100
  906858:	da30      	mov.n	a10, a3
  90685a:	0b8000        	callx8	a8
	VBUF_init(MAX_BUF_NUM);
  90685d:	2822a0        	l32i	a8, a2, 0x280
  906860:	2a0a64        	movi	a10, 100
  906863:	0b8000        	callx8	a8
    
	A_PRINTF("[+++VBUF_init(%d)]\n\r", MAX_DESC_NUM);
  906866:	282212        	l32i	a8, a2, 72
  906869:	da30      	mov.n	a10, a3
  90686b:	2b0a64        	movi	a11, 100
  90686e:	0b8000        	callx8	a8
	VDESC_init(MAX_DESC_NUM);
  906871:	2222a5        	l32i	a2, a2, 0x294
  906874:	2a0a64        	movi	a10, 100
  906877:	0b2000        	callx8	a2
  90687a:	d10f      	retw.n

0090687c <__adf_nbuf_alloc>:
 * @return newly allocated nbuf
 */
__adf_nbuf_t 
__adf_nbuf_alloc(adf_os_size_t size, a_uint32_t reserve, 
                 a_uint32_t align)
{
  90687c:	6c1004        	entry	a1, 32
    VBUF *buf = NULL;
    VDESC *desc;
    
    buf = VBUF_alloc_vbuf();
  90687f:	156915        	l32r	a5, 8e0cd4 <_bss_end+0x3cddc4>
 * @return newly allocated nbuf
 */
__adf_nbuf_t 
__adf_nbuf_alloc(adf_os_size_t size, a_uint32_t reserve, 
                 a_uint32_t align)
{
  906882:	d620      	mov.n	a6, a2
    VBUF *buf = NULL;
    VDESC *desc;
    
    buf = VBUF_alloc_vbuf();
  906884:	2a52a1        	l32i	a10, a5, 0x284
  906887:	0ba000        	callx8	a10
  90688a:	d2a0      	mov.n	a2, a10
    if ( buf != NULL ) {
  90688c:	64a028        	beqz	a10, 9068b8 <__adf_nbuf_alloc+0x3c>
        desc = VDESC_alloc_vdesc();
  90688f:	2a52a6        	l32i	a10, a5, 0x298
  906892:	0ba000        	callx8	a10
        desc->buf_addr = (A_UINT8 *)A_ALLOCRAM(size);
  906895:	255252        	l32i	a5, a5, 0x148
    VBUF *buf = NULL;
    VDESC *desc;
    
    buf = VBUF_alloc_vbuf();
    if ( buf != NULL ) {
        desc = VDESC_alloc_vdesc();
  906898:	d4a0      	mov.n	a4, a10
        desc->buf_addr = (A_UINT8 *)A_ALLOCRAM(size);
  90689a:	db60      	mov.n	a11, a6
  90689c:	c0a0      	movi.n	a10, 0
  90689e:	0b5000        	callx8	a5
        desc->buf_size = size;
        desc->next_desc = NULL;
  9068a1:	c080      	movi.n	a8, 0
    VDESC *desc;
    
    buf = VBUF_alloc_vbuf();
    if ( buf != NULL ) {
        desc = VDESC_alloc_vdesc();
        desc->buf_addr = (A_UINT8 *)A_ALLOCRAM(size);
  9068a3:	9a41      	s32i.n	a10, a4, 4
        desc->buf_size = size;
  9068a5:	264504        	s16i	a6, a4, 8
        desc->next_desc = NULL;
  9068a8:	9840      	s32i.n	a8, a4, 0
        desc->data_offset = reserve;
  9068aa:	234505        	s16i	a3, a4, 10
        desc->data_size = 0;
  9068ad:	284506        	s16i	a8, a4, 12
        desc->control = 0;    
  9068b0:	284507        	s16i	a8, a4, 14
        
        buf->desc_list = desc;
  9068b3:	9420      	s32i.n	a4, a2, 0
        buf->buf_length = 0;    
  9068b5:	282504        	s16i	a8, a2, 8
    }
    
    return buf;
}   
  9068b8:	d10f      	retw.n
	...

009068bc <__adf_nbuf_free>:
 * @param hdl
 * @param adf_nbuf
 * 
 */
void __adf_nbuf_free(__adf_nbuf_t  buf)
{
  9068bc:	6c1004        	entry	a1, 32
    adf_os_assert(0);
  9068bf:	186915        	l32r	a8, 8e0d14 <_bss_end+0x3cde04>
  9068c2:	1a697d        	l32r	a10, 8e0eb8 <_bss_end+0x3cdfa8>
  9068c5:	288212        	l32i	a8, a8, 72
  9068c8:	1b697e        	l32r	a11, 8e0ec0 <_bss_end+0x3cdfb0>
  9068cb:	0b8000        	callx8	a8
  9068ce:	18697a        	l32r	a8, 8e0eb8 <_bss_end+0x3cdfa8>
  9068d1:	0c0200        	memw
  9068d4:	8880      	l32i.n	a8, a8, 0
  9068d6:	d10f      	retw.n

009068d8 <__adf_nbuf_realloc_headroom>:
 * 
 * @return new nbuf
 */
__adf_nbuf_t 
__adf_nbuf_realloc_headroom(__adf_nbuf_t buf, a_uint32_t headroom)
{
  9068d8:	6c1004        	entry	a1, 32
    adf_os_assert(0);
  9068db:	186915        	l32r	a8, 8e0d30 <_bss_end+0x3cde20>
  9068de:	1b697f        	l32r	a11, 8e0edc <_bss_end+0x3cdfcc>
  9068e1:	288212        	l32i	a8, a8, 72
  9068e4:	1a697d        	l32r	a10, 8e0ed8 <_bss_end+0x3cdfc8>
    return NULL;
}
  9068e7:	c020      	movi.n	a2, 0
 * @return new nbuf
 */
__adf_nbuf_t 
__adf_nbuf_realloc_headroom(__adf_nbuf_t buf, a_uint32_t headroom)
{
    adf_os_assert(0);
  9068e9:	0b8000        	callx8	a8
  9068ec:	18697a        	l32r	a8, 8e0ed4 <_bss_end+0x3cdfc4>
  9068ef:	0c0200        	memw
  9068f2:	8880      	l32i.n	a8, a8, 0
    return NULL;
}
  9068f4:	d10f      	retw.n
	...

009068f8 <__adf_nbuf_realloc_tailroom>:
 * 
 * @return struct mbuf * (buffer with the new tailroom)
 */
__adf_nbuf_t 
__adf_nbuf_realloc_tailroom(__adf_nbuf_t  buf, a_uint32_t tailroom)
{
  9068f8:	6c1004        	entry	a1, 32
    adf_os_assert(0);
  9068fb:	186915        	l32r	a8, 8e0d50 <_bss_end+0x3cde40>
  9068fe:	1b6980        	l32r	a11, 8e0f00 <_bss_end+0x3cdff0>
  906901:	288212        	l32i	a8, a8, 72
  906904:	1a697d        	l32r	a10, 8e0ef8 <_bss_end+0x3cdfe8>
    return NULL;
}
  906907:	c020      	movi.n	a2, 0
 * @return struct mbuf * (buffer with the new tailroom)
 */
__adf_nbuf_t 
__adf_nbuf_realloc_tailroom(__adf_nbuf_t  buf, a_uint32_t tailroom)
{
    adf_os_assert(0);
  906909:	0b8000        	callx8	a8
  90690c:	18697a        	l32r	a8, 8e0ef4 <_bss_end+0x3cdfe4>
  90690f:	0c0200        	memw
  906912:	8880      	l32i.n	a8, a8, 0
    return NULL;
}
  906914:	d10f      	retw.n
	...

00906918 <__adf_nbuf_expand>:
 * 
 * @return struct mbuf* (NULL if something goofed up)
 */
__adf_nbuf_t 
__adf_nbuf_expand(__adf_nbuf_t buf, a_uint32_t headroom, a_uint32_t tailroom)
{
  906918:	6c1004        	entry	a1, 32
    adf_os_assert(0);
  90691b:	186915        	l32r	a8, 8e0d70 <_bss_end+0x3cde60>
  90691e:	1b6981        	l32r	a11, 8e0f24 <_bss_end+0x3ce014>
  906921:	288212        	l32i	a8, a8, 72
  906924:	1a697d        	l32r	a10, 8e0f18 <_bss_end+0x3ce008>
    return NULL;
}
  906927:	c020      	movi.n	a2, 0
 * @return struct mbuf* (NULL if something goofed up)
 */
__adf_nbuf_t 
__adf_nbuf_expand(__adf_nbuf_t buf, a_uint32_t headroom, a_uint32_t tailroom)
{
    adf_os_assert(0);
  906929:	0b8000        	callx8	a8
  90692c:	18697a        	l32r	a8, 8e0f14 <_bss_end+0x3ce004>
  90692f:	0c0200        	memw
  906932:	8880      	l32i.n	a8, a8, 0
    return NULL;
}
  906934:	d10f      	retw.n
	...

00906938 <__adf_nbuf_push_head>:
 * @return new data pointer ,NULL if the len is more than the
 *         space available in the head frag.
 */
a_uint8_t *       
__adf_nbuf_push_head(__adf_nbuf_t buf, adf_os_size_t len)
{
  906938:	6c1004        	entry	a1, 32
    a_uint8_t *ptr = NULL; 
    VDESC *desc = buf->desc_list;
  90693b:	8820      	l32i.n	a8, a2, 0
    
    desc->data_offset -= len;
  90693d:	03034f        	extui	a3, a3, 0, 16
    desc->data_size += len;
  906940:	2a8106        	l16ui	a10, a8, 12
__adf_nbuf_push_head(__adf_nbuf_t buf, adf_os_size_t len)
{
    a_uint8_t *ptr = NULL; 
    VDESC *desc = buf->desc_list;
    
    desc->data_offset -= len;
  906943:	298105        	l16ui	a9, a8, 10
    desc->data_size += len;
  906946:	aa3a      	add.n	a10, a3, a10
  906948:	2a8506        	s16i	a10, a8, 12
__adf_nbuf_push_head(__adf_nbuf_t buf, adf_os_size_t len)
{
    a_uint8_t *ptr = NULL; 
    VDESC *desc = buf->desc_list;
    
    desc->data_offset -= len;
  90694b:	03990c        	sub	a9, a9, a3
    desc->data_size += len;
    buf->buf_length += len;
  90694e:	2a2104        	l16ui	a10, a2, 8
__adf_nbuf_push_head(__adf_nbuf_t buf, adf_os_size_t len)
{
    a_uint8_t *ptr = NULL; 
    VDESC *desc = buf->desc_list;
    
    desc->data_offset -= len;
  906951:	09094f        	extui	a9, a9, 0, 16
  906954:	298505        	s16i	a9, a8, 10
    desc->data_size += len;
    buf->buf_length += len;
  906957:	aa33      	add.n	a3, a3, a10
  906959:	232504        	s16i	a3, a2, 8
    ptr = desc->buf_addr + desc->data_offset;
  90695c:	8281      	l32i.n	a2, a8, 4
    return(ptr);
}
  90695e:	a922      	add.n	a2, a2, a9
  906960:	d10f      	retw.n
	...

00906964 <__adf_nbuf_pull_head>:
 * 
 * @return new data pointer
 */
a_uint8_t * 
__adf_nbuf_pull_head(__adf_nbuf_t buf, adf_os_size_t len)
{
  906964:	6c1004        	entry	a1, 32
    a_uint8_t *ptr = NULL;
    VDESC *desc = buf->desc_list;
  906967:	8820      	l32i.n	a8, a2, 0
    
    desc->data_offset += len;
  906969:	03034f        	extui	a3, a3, 0, 16
    desc->data_size -= len;
  90696c:	2a8106        	l16ui	a10, a8, 12
__adf_nbuf_pull_head(__adf_nbuf_t buf, adf_os_size_t len)
{
    a_uint8_t *ptr = NULL;
    VDESC *desc = buf->desc_list;
    
    desc->data_offset += len;
  90696f:	298105        	l16ui	a9, a8, 10
    desc->data_size -= len;
  906972:	03aa0c        	sub	a10, a10, a3
  906975:	2a8506        	s16i	a10, a8, 12
__adf_nbuf_pull_head(__adf_nbuf_t buf, adf_os_size_t len)
{
    a_uint8_t *ptr = NULL;
    VDESC *desc = buf->desc_list;
    
    desc->data_offset += len;
  906978:	a939      	add.n	a9, a3, a9
    desc->data_size -= len;
    buf->buf_length -= len;
  90697a:	2a2104        	l16ui	a10, a2, 8
__adf_nbuf_pull_head(__adf_nbuf_t buf, adf_os_size_t len)
{
    a_uint8_t *ptr = NULL;
    VDESC *desc = buf->desc_list;
    
    desc->data_offset += len;
  90697d:	09094f        	extui	a9, a9, 0, 16
  906980:	298505        	s16i	a9, a8, 10
    desc->data_size -= len;
    buf->buf_length -= len;
  906983:	03a30c        	sub	a3, a10, a3
  906986:	232504        	s16i	a3, a2, 8
    ptr = desc->buf_addr + desc->data_offset;
  906989:	8281      	l32i.n	a2, a8, 4
    
    return ptr;
}
  90698b:	a922      	add.n	a2, a2, a9
  90698d:	d10f      	retw.n
	...

00906990 <__adf_nbuf_copy>:
 * 
 * @return struct mbuf * (newly allocated buffer)
 */
__adf_nbuf_t 
__adf_nbuf_copy(__adf_nbuf_t src)
{
  906990:	6c1004        	entry	a1, 32
    __adf_nbuf_t buf = NULL; 

    adf_os_assert(src != NULL);
  906993:	cd25      	bnez.n	a2, 9069ac <__adf_nbuf_copy+0x1c>
  906995:	186915        	l32r	a8, 8e0dec <_bss_end+0x3cdedc>
  906998:	1a697d        	l32r	a10, 8e0f8c <_bss_end+0x3ce07c>
  90699b:	288212        	l32i	a8, a8, 72
  90699e:	1b6982        	l32r	a11, 8e0fa8 <_bss_end+0x3ce098>
  9069a1:	0b8000        	callx8	a8
  9069a4:	18697a        	l32r	a8, 8e0f8c <_bss_end+0x3ce07c>
  9069a7:	0c0200        	memw
  9069aa:	8880      	l32i.n	a8, a8, 0
    
    return buf;
}
  9069ac:	c020      	movi.n	a2, 0
  9069ae:	d10f      	retw.n

009069b0 <__adf_nbuf_unshare>:
 * 
 * @return new nbuf
 */
__adf_nbuf_t 
__adf_nbuf_unshare(__adf_nbuf_t  src)
{
  9069b0:	6c1004        	entry	a1, 32
    __adf_nbuf_t buf = NULL;

    adf_os_assert(src != NULL);
  9069b3:	cd25      	bnez.n	a2, 9069cc <__adf_nbuf_unshare+0x1c>
  9069b5:	186915        	l32r	a8, 8e0e0c <_bss_end+0x3cdefc>
  9069b8:	1a697d        	l32r	a10, 8e0fac <_bss_end+0x3ce09c>
  9069bb:	288212        	l32i	a8, a8, 72
  9069be:	1b6983        	l32r	a11, 8e0fcc <_bss_end+0x3ce0bc>
  9069c1:	0b8000        	callx8	a8
  9069c4:	18697a        	l32r	a8, 8e0fac <_bss_end+0x3ce09c>
  9069c7:	0c0200        	memw
  9069ca:	8880      	l32i.n	a8, a8, 0

    return buf;
}
  9069cc:	c020      	movi.n	a2, 0
  9069ce:	d10f      	retw.n

009069d0 <__adf_nbuf_frag_info>:
 * @param[out] sg (scatter/gather list of all the frags)
 * 
 */
void  
__adf_nbuf_frag_info(__adf_nbuf_t buf, adf_os_sglist_t	*sg)
{
  9069d0:	6c1004        	entry	a1, 32
    VDESC *desc = buf->desc_list;
  9069d3:	8820      	l32i.n	a8, a2, 0
  9069d5:	d930      	mov.n	a9, a3
    int count = 0;
  9069d7:	c0a0      	movi.n	a10, 0
    
    while( desc != NULL ) {
  9069d9:	600013        	j	9069f0 <__adf_nbuf_frag_info+0x20>
        sg->sg_segs[count].vaddr = desc->buf_addr + desc->data_offset;
  9069dc:	2b8105        	l16ui	a11, a8, 10
  9069df:	8c81      	l32i.n	a12, a8, 4
        sg->sg_segs[count].len   = desc->data_size;
        
        count++;        
  9069e1:	b1aa      	addi.n	a10, a10, 1
{
    VDESC *desc = buf->desc_list;
    int count = 0;
    
    while( desc != NULL ) {
        sg->sg_segs[count].vaddr = desc->buf_addr + desc->data_offset;
  9069e3:	abcb      	add.n	a11, a12, a11
  9069e5:	9b91      	s32i.n	a11, a9, 4
        sg->sg_segs[count].len   = desc->data_size;
  9069e7:	2b8106        	l16ui	a11, a8, 12
  9069ea:	9b92      	s32i.n	a11, a9, 8
        
        count++;        
        desc = desc->next_desc;
  9069ec:	8880      	l32i.n	a8, a8, 0
  9069ee:	b899      	addi.n	a9, a9, 8
__adf_nbuf_frag_info(__adf_nbuf_t buf, adf_os_sglist_t	*sg)
{
    VDESC *desc = buf->desc_list;
    int count = 0;
    
    while( desc != NULL ) {
  9069f0:	658fe8        	bnez	a8, 9069dc <__adf_nbuf_frag_info+0xc>
        
        count++;        
        desc = desc->next_desc;
    }
    
    sg->nsegs = count;
  9069f3:	9a30      	s32i.n	a10, a3, 0
  9069f5:	d10f      	retw.n
	...

009069f8 <__adf_nbuf_get_priv>:
 * 
 * @return uint8_t* ( pointer to the data )
 */
a_uint8_t *
__adf_nbuf_get_priv(__adf_nbuf_t buf)
{
  9069f8:	6c1004        	entry	a1, 32
    adf_os_assert(buf != NULL);
  9069fb:	cd25      	bnez.n	a2, 906a14 <__adf_nbuf_get_priv+0x1c>
  9069fd:	186915        	l32r	a8, 8e0e54 <_bss_end+0x3cdf44>
  906a00:	1a697d        	l32r	a10, 8e0ff4 <_bss_end+0x3ce0e4>
  906a03:	288212        	l32i	a8, a8, 72
  906a06:	1b6984        	l32r	a11, 8e1018 <_bss_end+0x3ce108>
  906a09:	0b8000        	callx8	a8
  906a0c:	18697a        	l32r	a8, 8e0ff4 <_bss_end+0x3ce0e4>
  906a0f:	0c0200        	memw
  906a12:	8880      	l32i.n	a8, a8, 0

    return buf->ctx;
}
  906a14:	bc22      	addi.n	a2, a2, 12
  906a16:	d10f      	retw.n

00906a18 <__adf_nbuf_queue_add>:
 * 
 */
void 
__adf_nbuf_queue_add(__adf_nbuf_qhead_t  *qhead, 
                     __adf_nbuf_t  buf)
{
  906a18:	6c1004        	entry	a1, 32
    qhead->qlen++;
  906a1b:	8822      	l32i.n	a8, a2, 8
  906a1d:	b188      	addi.n	a8, a8, 1
  906a1f:	9822      	s32i.n	a8, a2, 8

    buf->next_buf = NULL;
  906a21:	c080      	movi.n	a8, 0
  906a23:	9831      	s32i.n	a8, a3, 4

    if (qhead->head == NULL) {
  906a25:	8820      	l32i.n	a8, a2, 0
  906a27:	cc83      	bnez.n	a8, 906a2e <__adf_nbuf_queue_add+0x16>
        qhead->head = buf;
  906a29:	9320      	s32i.n	a3, a2, 0
  906a2b:	600003        	j	906a32 <__adf_nbuf_queue_add+0x1a>
    }
    else {
        qhead->tail->next_buf = buf;
  906a2e:	8821      	l32i.n	a8, a2, 4
  906a30:	9381      	s32i.n	a3, a8, 4
    }
    qhead->tail = buf;
  906a32:	9321      	s32i.n	a3, a2, 4
  906a34:	d10f      	retw.n
	...

00906a38 <__adf_nbuf_queue_remove>:
 * 
 * @return the nbuf
 */
__adf_nbuf_t   
__adf_nbuf_queue_remove(__adf_nbuf_qhead_t *qhead)
{
  906a38:	6c1004        	entry	a1, 32
  906a3b:	d820      	mov.n	a8, a2
    __adf_nbuf_t  b0 = NULL;

    if (qhead->head) {
  906a3d:	8220      	l32i.n	a2, a2, 0
  906a3f:	c929      	beqz.n	a2, 906a5c <__adf_nbuf_queue_remove+0x24>
        qhead->qlen--;
  906a41:	8982      	l32i.n	a9, a8, 8
        b0 = qhead->head;
        if ( qhead->head == qhead->tail ) {
  906a43:	8a81      	l32i.n	a10, a8, 4
__adf_nbuf_queue_remove(__adf_nbuf_qhead_t *qhead)
{
    __adf_nbuf_t  b0 = NULL;

    if (qhead->head) {
        qhead->qlen--;
  906a45:	b099      	addi.n	a9, a9, -1
  906a47:	9982      	s32i.n	a9, a8, 8
  906a49:	c090      	movi.n	a9, 0
        b0 = qhead->head;
        if ( qhead->head == qhead->tail ) {
  906a4b:	7a2907        	bne	a2, a10, 906a56 <__adf_nbuf_queue_remove+0x1e>
            qhead->head = NULL;
  906a4e:	9980      	s32i.n	a9, a8, 0
            qhead->tail = NULL;
  906a50:	9981      	s32i.n	a9, a8, 4
  906a52:	600004        	j	906a5a <__adf_nbuf_queue_remove+0x22>
  906a55:	008a21        	excw
        } else {
            qhead->head = qhead->head->next_buf;
  906a58:	9a80      	s32i.n	a10, a8, 0
        }
    
        b0->next_buf = NULL;
  906a5a:	9921      	s32i.n	a9, a2, 4
    }
	return b0;
}
  906a5c:	d10f      	retw.n
	...

00906a60 <__adf_nbuf_dmamap_create>:
 * 
 * @return a_status_t
 */
a_status_t 
__adf_nbuf_dmamap_create(__adf_os_device_t osdev, __adf_os_dma_map_t *dmap)
{
  906a60:	6c1004        	entry	a1, 32
    a_status_t retval = A_STATUS_OK;
    
    (*dmap) = A_ALLOCRAM(sizeof(struct __adf_dma_map));
  906a63:	126915        	l32r	a2, 8e0eb8 <_bss_end+0x3cdfa8>
  906a66:	c0a0      	movi.n	a10, 0
  906a68:	222252        	l32i	a2, a2, 0x148
  906a6b:	c0bc      	movi.n	a11, 12
  906a6d:	0b2000        	callx8	a2
  906a70:	9a30      	s32i.n	a10, a3, 0
    if(*dmap == NULL)
        return A_STATUS_ENOMEM;
  906a72:	c023      	movi.n	a2, 3
__adf_nbuf_dmamap_create(__adf_os_device_t osdev, __adf_os_dma_map_t *dmap)
{
    a_status_t retval = A_STATUS_OK;
    
    (*dmap) = A_ALLOCRAM(sizeof(struct __adf_dma_map));
    if(*dmap == NULL)
  906a74:	c8a2      	beqz.n	a10, 906a7a <__adf_nbuf_dmamap_create+0x1a>
        return A_STATUS_ENOMEM;
            
    (*dmap)->buf = NULL;
  906a76:	c020      	movi.n	a2, 0
  906a78:	92a0      	s32i.n	a2, a10, 0
    return retval;
}
  906a7a:	d10f      	retw.n

00906a7c <__adf_nbuf_map>:


a_status_t 
__adf_nbuf_map(__adf_os_device_t osdev, __adf_os_dma_map_t bmap, 
                          __adf_nbuf_t buf, adf_os_dma_dir_t dir)
{   
  906a7c:	6c1004        	entry	a1, 32
    bmap->buf = buf;
  906a7f:	9430      	s32i.n	a4, a3, 0
    
    return A_STATUS_OK;
}
  906a81:	c020      	movi.n	a2, 0
  906a83:	d10f      	retw.n
  906a85:	000000        	ill

00906a88 <__adf_nbuf_unmap>:

void 
__adf_nbuf_unmap(__adf_os_device_t osdev, __adf_os_dma_map_t bmap, 
                            adf_os_dma_dir_t dir)
{
  906a88:	6c1004        	entry	a1, 32
    bmap->buf = NULL;
  906a8b:	c080      	movi.n	a8, 0
  906a8d:	9830      	s32i.n	a8, a3, 0
  906a8f:	d10f      	retw.n
  906a91:	000000        	ill

00906a94 <__adf_nbuf_dmamap_destroy>:
}

void
__adf_nbuf_dmamap_destroy(__adf_os_device_t osdev, 
                          __adf_os_dma_map_t dmap)
{
  906a94:	6c1004        	entry	a1, 32
  906a97:	d10f      	retw.n
  906a99:	000000        	ill

00906a9c <__adf_nbuf_dmamap_info>:
 * @param[in]  bmap
 * @param[out] sg (map_info ptr)
 */
void 
__adf_nbuf_dmamap_info(__adf_os_dma_map_t bmap, adf_os_dmamap_info_t *sg)
{
  906a9c:	6c1004        	entry	a1, 32
    VDESC *desc = bmap->buf->desc_list;
  906a9f:	8820      	l32i.n	a8, a2, 0
  906aa1:	d930      	mov.n	a9, a3
  906aa3:	8880      	l32i.n	a8, a8, 0
    int count = 0;
  906aa5:	c0a0      	movi.n	a10, 0
    
    while( desc != NULL ) {
  906aa7:	600015        	j	906ac0 <__adf_nbuf_dmamap_info+0x24>
  906aaa:	00002b        	mulsh	a0, a0, a0
        sg->dma_segs[count].paddr = (adf_os_dma_addr_t)(desc->buf_addr + desc->data_offset);
  906aad:	8105      	l32i.n	a1, a0, 20
  906aaf:	8c81      	l32i.n	a12, a8, 4
        sg->dma_segs[count].len   = desc->data_size;
        
        count++;        
  906ab1:	b1aa      	addi.n	a10, a10, 1
{
    VDESC *desc = bmap->buf->desc_list;
    int count = 0;
    
    while( desc != NULL ) {
        sg->dma_segs[count].paddr = (adf_os_dma_addr_t)(desc->buf_addr + desc->data_offset);
  906ab3:	abcb      	add.n	a11, a12, a11
  906ab5:	9b91      	s32i.n	a11, a9, 4
        sg->dma_segs[count].len   = desc->data_size;
  906ab7:	2b8106        	l16ui	a11, a8, 12
        
        count++;        
        desc = desc->next_desc;
  906aba:	8880      	l32i.n	a8, a8, 0
    VDESC *desc = bmap->buf->desc_list;
    int count = 0;
    
    while( desc != NULL ) {
        sg->dma_segs[count].paddr = (adf_os_dma_addr_t)(desc->buf_addr + desc->data_offset);
        sg->dma_segs[count].len   = desc->data_size;
  906abc:	9b92      	s32i.n	a11, a9, 8
  906abe:	b899      	addi.n	a9, a9, 8
__adf_nbuf_dmamap_info(__adf_os_dma_map_t bmap, adf_os_dmamap_info_t *sg)
{
    VDESC *desc = bmap->buf->desc_list;
    int count = 0;
    
    while( desc != NULL ) {
  906ac0:	658fe8        	bnez	a8, 906aac <__adf_nbuf_dmamap_info+0x10>
        
        count++;        
        desc = desc->next_desc;
    }
    
    sg->nsegs = count;    
  906ac3:	9a30      	s32i.n	a10, a3, 0
  906ac5:	d10f      	retw.n
	...

00906ac8 <__adf_nbuf_set_rx_cksum>:
 * @param buf
 * @param cksum
 */
void 
__adf_nbuf_set_rx_cksum(__adf_nbuf_t buf, adf_nbuf_rx_cksum_t *cksum)
{
  906ac8:	6c1004        	entry	a1, 32
  906acb:	d10f      	retw.n
  906acd:	000000        	ill

00906ad0 <__adf_nbuf_get_vlan_info>:
}

a_status_t      
__adf_nbuf_get_vlan_info(adf_net_handle_t hdl, __adf_nbuf_t buf, 
                         adf_net_vlanhdr_t *vlan)
{
  906ad0:	6c1004        	entry	a1, 32
    return A_STATUS_OK;
}
  906ad3:	c020      	movi.n	a2, 0
  906ad5:	d10f      	retw.n
	...

00906ad8 <__adf_nbuf_create_frm_frag>:

__adf_nbuf_t
__adf_nbuf_create_frm_frag(__adf_nbuf_queue_t *qhead)
{
  906ad8:	6c1004        	entry	a1, 32
    VBUF *buf_tmp, *buf_head = NULL;
    VDESC *vdesc_prev = NULL, *vdesc_tmp = NULL;
    a_uint32_t cnt = 0, len = __adf_nbuf_queue_len(qhead);
    a_uint16_t total_len = 0;

    buf_head = VBUF_alloc_vbuf();
  906adb:	166915        	l32r	a6, 8e0f30 <_bss_end+0x3ce020>
    return A_STATUS_OK;
}

__adf_nbuf_t
__adf_nbuf_create_frm_frag(__adf_nbuf_queue_t *qhead)
{
  906ade:	022402        	or	a4, a2, a2
    VBUF *buf_tmp, *buf_head = NULL;
    VDESC *vdesc_prev = NULL, *vdesc_tmp = NULL;
    a_uint32_t cnt = 0, len = __adf_nbuf_queue_len(qhead);
    a_uint16_t total_len = 0;

    buf_head = VBUF_alloc_vbuf();
  906ae1:	2a62a1        	l32i	a10, a6, 0x284
 * 
 */
a_uint32_t  
__adf_nbuf_queue_len(__adf_nbuf_qhead_t *qhead)
{
    return qhead->qlen;
  906ae4:	252202        	l32i	a5, a2, 8
    VBUF *buf_tmp, *buf_head = NULL;
    VDESC *vdesc_prev = NULL, *vdesc_tmp = NULL;
    a_uint32_t cnt = 0, len = __adf_nbuf_queue_len(qhead);
    a_uint16_t total_len = 0;

    buf_head = VBUF_alloc_vbuf();
  906ae7:	0ba000        	callx8	a10
  906aea:	d2a0      	mov.n	a2, a10
 * @return (NULL if the Q is empty)
 */
__adf_nbuf_t   
__adf_nbuf_queue_first(__adf_nbuf_queue_t *qhead)
{
    return qhead->head;
  906aec:	8340      	l32i.n	a3, a4, 0
    a_uint16_t total_len = 0;

    buf_head = VBUF_alloc_vbuf();
    buf_tmp = __adf_nbuf_queue_first(qhead);

    __adf_os_assert(buf_head);
  906aee:	cda2      	bnez.n	a10, 906b04 <__adf_nbuf_create_frm_frag+0x2c>
  906af0:	266212        	l32i	a6, a6, 72
  906af3:	1a697d        	l32r	a10, 8e10e8 <_bss_end+0x3ce1d8>
  906af6:	1b6985        	l32r	a11, 8e110c <_bss_end+0x3ce1fc>
  906af9:	0b6000        	callx8	a6
  906afc:	16697a        	l32r	a6, 8e10e4 <_bss_end+0x3ce1d4>
  906aff:	0c0200        	memw
  906b02:	8660      	l32i.n	a6, a6, 0
    __adf_os_assert(buf_tmp);
  906b04:	cd35      	bnez.n	a3, 906b1d <__adf_nbuf_create_frm_frag+0x45>
  906b06:	166915        	l32r	a6, 8e0f5c <_bss_end+0x3ce04c>
  906b09:	1a697d        	l32r	a10, 8e1100 <_bss_end+0x3ce1f0>
  906b0c:	266212        	l32i	a6, a6, 72
  906b0f:	1b6985        	l32r	a11, 8e1124 <_bss_end+0x3ce214>
  906b12:	0b6000        	callx8	a6
  906b15:	16697a        	l32r	a6, 8e1100 <_bss_end+0x3ce1f0>
  906b18:	0c0200        	memw
  906b1b:	8660      	l32i.n	a6, a6, 0

    buf_head->desc_list = buf_tmp->desc_list;
  906b1d:	8330      	l32i.n	a3, a3, 0
  906b1f:	9320      	s32i.n	a3, a2, 0
__adf_nbuf_create_frm_frag(__adf_nbuf_queue_t *qhead)
{
    VBUF *buf_tmp, *buf_head = NULL;
    VDESC *vdesc_prev = NULL, *vdesc_tmp = NULL;
    a_uint32_t cnt = 0, len = __adf_nbuf_queue_len(qhead);
    a_uint16_t total_len = 0;
  906b21:	c030      	movi.n	a3, 0
__adf_nbuf_t
__adf_nbuf_create_frm_frag(__adf_nbuf_queue_t *qhead)
{
    VBUF *buf_tmp, *buf_head = NULL;
    VDESC *vdesc_prev = NULL, *vdesc_tmp = NULL;
    a_uint32_t cnt = 0, len = __adf_nbuf_queue_len(qhead);
  906b23:	d730      	mov.n	a7, a3

__adf_nbuf_t
__adf_nbuf_create_frm_frag(__adf_nbuf_queue_t *qhead)
{
    VBUF *buf_tmp, *buf_head = NULL;
    VDESC *vdesc_prev = NULL, *vdesc_tmp = NULL;
  906b25:	d630      	mov.n	a6, a3
    __adf_os_assert(buf_head);
    __adf_os_assert(buf_tmp);

    buf_head->desc_list = buf_tmp->desc_list;

    while ((buf_tmp = __adf_nbuf_queue_remove(qhead)) != NULL) {
  906b27:	60002d        	j	906b58 <__adf_nbuf_create_frm_frag+0x80>
  906b2a:	000029        	excw
        cnt++;

        //adf_os_print("merge buf: %x\n", buf_tmp->desc_list->buf_addr + buf_tmp->desc_list->data_offset);

        total_len += buf_tmp->buf_length;
  906b2d:	a104      	add.n	a4, a0, a1
    __adf_os_assert(buf_tmp);

    buf_head->desc_list = buf_tmp->desc_list;

    while ((buf_tmp = __adf_nbuf_queue_remove(qhead)) != NULL) {
        cnt++;
  906b2f:	b177      	addi.n	a7, a7, 1

        //adf_os_print("merge buf: %x\n", buf_tmp->desc_list->buf_addr + buf_tmp->desc_list->data_offset);

        total_len += buf_tmp->buf_length;
  906b31:	a933      	add.n	a3, a3, a9
  906b33:	03034f        	extui	a3, a3, 0, 16
  906b36:	89a0      	l32i.n	a9, a10, 0

        if (vdesc_prev) {
  906b38:	c860      	beqz.n	a6, 906b3c <__adf_nbuf_create_frm_frag+0x64>
            /* link "the last VDESC of previous VBUF" to "the 1st VDESC of this VBUF" */
            vdesc_prev->next_desc = buf_tmp->desc_list;
  906b3a:	9960      	s32i.n	a9, a6, 0
        }

        /* traverse VDESC list in this VBUF to find out the last VDESC */
        vdesc_tmp = buf_tmp->desc_list;
  906b3c:	d690      	mov.n	a6, a9
        while (vdesc_tmp->next_desc) {
  906b3e:	600002        	j	906b44 <__adf_nbuf_create_frm_frag+0x6c>
  906b41:	00d680        	excw
  906b44:	8860      	l32i.n	a8, a6, 0
  906b46:	658ff8        	bnez	a8, 906b42 <__adf_nbuf_create_frm_frag+0x6a>
        vdesc_prev = vdesc_tmp;

        /* return VBUF to the pool */
        buf_tmp->desc_list = NULL;
        buf_tmp->buf_length = 0;
        VBUF_free_vbuf(buf_tmp);
  906b49:	196915        	l32r	a9, 8e0fa0 <_bss_end+0x3ce090>
            vdesc_tmp = vdesc_tmp->next_desc;
        }
        vdesc_prev = vdesc_tmp;

        /* return VBUF to the pool */
        buf_tmp->desc_list = NULL;
  906b4c:	28a600        	s32i	a8, a10, 0
        buf_tmp->buf_length = 0;
  906b4f:	28a504        	s16i	a8, a10, 8
        VBUF_free_vbuf(buf_tmp);
  906b52:	2892a3        	l32i	a8, a9, 0x28c
  906b55:	0b8000        	callx8	a8
    __adf_os_assert(buf_head);
    __adf_os_assert(buf_tmp);

    buf_head->desc_list = buf_tmp->desc_list;

    while ((buf_tmp = __adf_nbuf_queue_remove(qhead)) != NULL) {
  906b58:	da40      	mov.n	a10, a4
  906b5a:	5bffb7        	call8	906a38 <__adf_nbuf_queue_remove>
  906b5d:	65afcb        	bnez	a10, 906b2c <__adf_nbuf_create_frm_frag+0x54>
        buf_tmp->desc_list = NULL;
        buf_tmp->buf_length = 0;
        VBUF_free_vbuf(buf_tmp);
    }

    if (cnt != len) {
  906b60:	757116        	beq	a7, a5, 906b7a <__adf_nbuf_create_frm_frag+0xa2>
        //adf_os_print("cnt: %x, len: %x, __adf_nbuf_queue_len: %x\n", cnt, len, 
        //             __adf_nbuf_queue_len(qhead));
        adf_os_assert(0);
  906b63:	146915        	l32r	a4, 8e0fb8 <_bss_end+0x3ce0a8>
  906b66:	1a697d        	l32r	a10, 8e115c <_bss_end+0x3ce24c>
  906b69:	244212        	l32i	a4, a4, 72
  906b6c:	1b6985        	l32r	a11, 8e1180 <_bss_end+0x3ce270>
  906b6f:	0b4000        	callx8	a4
  906b72:	14697a        	l32r	a4, 8e115c <_bss_end+0x3ce24c>
  906b75:	0c0200        	memw
  906b78:	8440      	l32i.n	a4, a4, 0
    }
    //__adf_os_assert(cnt == len);

    buf_head->buf_length = total_len;
  906b7a:	232504        	s16i	a3, a2, 8

    return buf_head;
}
  906b7d:	d10f      	retw.n
	...

00906b80 <__adf_nbuf_split_to_frag>:

void
__adf_nbuf_split_to_frag(__adf_nbuf_t buf, __adf_nbuf_qhead_t *qhead)
{
  906b80:	6c1004        	entry	a1, 32
 * @param qhead
 */
void 
__adf_nbuf_queue_init(__adf_nbuf_qhead_t *qhead)
{
    qhead->qlen = 0;
  906b83:	c040      	movi.n	a4, 0
  906b85:	9432      	s32i.n	a4, a3, 8
    qhead->head = NULL;
  906b87:	9430      	s32i.n	a4, a3, 0
    qhead->tail = NULL;
  906b89:	9431      	s32i.n	a4, a3, 4
  906b8b:	166915        	l32r	a6, 8e0fe0 <_bss_end+0x3ce0d0>
{
    VBUF *buf_tmp;
    VDESC *desc_tmp = NULL;

    __adf_nbuf_queue_init(qhead);
    desc_tmp = buf->desc_list;
  906b8e:	8420      	l32i.n	a4, a2, 0

    while (desc_tmp /*&& desc_tmp->buf_addr*/) {
  906b90:	60003a        	j	906bce <__adf_nbuf_split_to_frag+0x4e>
  906b93:	00002a        	muluh	a0, a0, a0
        buf_tmp = VBUF_alloc_vbuf();
  906b96:	62a10b        	j	8f0ca5 <memset+0x9e5d>
  906b99:	a000      	add.n	a0, a0, a0
  906b9b:	d5a0      	mov.n	a5, a10

        __adf_os_assert(buf_tmp);
  906b9d:	65a014        	bnez	a10, 906bb5 <__adf_nbuf_split_to_frag+0x35>
  906ba0:	276212        	l32i	a7, a6, 72
  906ba3:	1a697d        	l32r	a10, 8e1198 <_bss_end+0x3ce288>
  906ba6:	1b6986        	l32r	a11, 8e11c0 <_bss_end+0x3ce2b0>
  906ba9:	0b7000        	callx8	a7
  906bac:	17697a        	l32r	a7, 8e1194 <_bss_end+0x3ce284>
  906baf:	0c0200        	memw
  906bb2:	277200        	l32i	a7, a7, 0

        //desc_tmp->data_size = 0;
        buf_tmp->desc_list = desc_tmp;
        //buf_tmp->buf_length = desc_tmp->buf_size;
        buf_tmp->buf_length = desc_tmp->data_size;
  906bb5:	274106        	l16ui	a7, a4, 12
        buf_tmp = VBUF_alloc_vbuf();

        __adf_os_assert(buf_tmp);

        //desc_tmp->data_size = 0;
        buf_tmp->desc_list = desc_tmp;
  906bb8:	9450      	s32i.n	a4, a5, 0
        //buf_tmp->buf_length = desc_tmp->buf_size;
        buf_tmp->buf_length = desc_tmp->data_size;
  906bba:	275504        	s16i	a7, a5, 8
        buf_tmp->next_buf = NULL;
  906bbd:	c070      	movi.n	a7, 0
  906bbf:	9751      	s32i.n	a7, a5, 4

        //adf_os_print("split - buf: %x\n", buf_tmp->desc_list->buf_addr + buf_tmp->desc_list->data_offset);

        __adf_nbuf_queue_add(qhead, buf_tmp);
  906bc1:	db50      	mov.n	a11, a5
  906bc3:	da30      	mov.n	a10, a3
  906bc5:	5bff94        	call8	906a18 <__adf_nbuf_queue_add>

        desc_tmp = desc_tmp->next_desc;

        buf_tmp->desc_list->next_desc = NULL;
  906bc8:	8550      	l32i.n	a5, a5, 0

        //adf_os_print("split - buf: %x\n", buf_tmp->desc_list->buf_addr + buf_tmp->desc_list->data_offset);

        __adf_nbuf_queue_add(qhead, buf_tmp);

        desc_tmp = desc_tmp->next_desc;
  906bca:	8440      	l32i.n	a4, a4, 0

        buf_tmp->desc_list->next_desc = NULL;
  906bcc:	9750      	s32i.n	a7, a5, 0
    VDESC *desc_tmp = NULL;

    __adf_nbuf_queue_init(qhead);
    desc_tmp = buf->desc_list;

    while (desc_tmp /*&& desc_tmp->buf_addr*/) {
  906bce:	654fc3        	bnez	a4, 906b95 <__adf_nbuf_split_to_frag+0x15>
        buf_tmp->desc_list->next_desc = NULL;
    }

    buf->desc_list = NULL;
    buf->buf_length = 0;
    VBUF_free_vbuf(buf);
  906bd1:	2362a3        	l32i	a3, a6, 0x28c
        desc_tmp = desc_tmp->next_desc;

        buf_tmp->desc_list->next_desc = NULL;
    }

    buf->desc_list = NULL;
  906bd4:	9420      	s32i.n	a4, a2, 0
    buf->buf_length = 0;
  906bd6:	242504        	s16i	a4, a2, 8
    VBUF_free_vbuf(buf);
  906bd9:	da20      	mov.n	a10, a2
  906bdb:	0b3000        	callx8	a3
  906bde:	d10f      	retw.n

00906be0 <__adf_nbuf_last>:
 * 
 * @return struct mbuf*
 */
VDESC * 
__adf_nbuf_last(VBUF *buf)
{
  906be0:	6c1004        	entry	a1, 32
    VDESC *desc = buf->desc_list;
  906be3:	8220      	l32i.n	a2, a2, 0
    
    //for(; desc->next_desc != NULL; desc = desc->next_desc)
    //    ;
    while(desc->next_desc != NULL)
  906be5:	600001        	j	906bea <__adf_nbuf_last+0xa>
    {
        desc = desc->next_desc;
  906be8:	d280      	mov.n	a2, a8
{
    VDESC *desc = buf->desc_list;
    
    //for(; desc->next_desc != NULL; desc = desc->next_desc)
    //    ;
    while(desc->next_desc != NULL)
  906bea:	8820      	l32i.n	a8, a2, 0
  906bec:	658ff8        	bnez	a8, 906be8 <__adf_nbuf_last+0x8>
    {
        desc = desc->next_desc;
    }
    
    return desc;
}
  906bef:	d10f      	retw.n
  906bf1:	000000        	ill

00906bf4 <__adf_nbuf_trim_tail>:
 * @param len (how much to strip down)
 * 
 */
void 
__adf_nbuf_trim_tail(__adf_nbuf_t buf, adf_os_size_t len)
{
  906bf4:	6c1004        	entry	a1, 32
    VDESC *last_desc = __adf_nbuf_last(buf);
  906bf7:	022a02        	or	a10, a2, a2
  906bfa:	5bfff9        	call8	906be0 <__adf_nbuf_last>
  906bfd:	d4a0      	mov.n	a4, a10
    
    adf_os_assert(buf != NULL);
  906bff:	cd25      	bnez.n	a2, 906c18 <__adf_nbuf_trim_tail+0x24>
  906c01:	186915        	l32r	a8, 8e1058 <_bss_end+0x3ce148>
  906c04:	1a697d        	l32r	a10, 8e11f8 <_bss_end+0x3ce2e8>
  906c07:	288212        	l32i	a8, a8, 72
  906c0a:	1b6987        	l32r	a11, 8e1228 <_bss_end+0x3ce318>
  906c0d:	0b8000        	callx8	a8
  906c10:	18697a        	l32r	a8, 8e11f8 <_bss_end+0x3ce2e8>
  906c13:	0c0200        	memw
  906c16:	8880      	l32i.n	a8, a8, 0
    last_desc->data_size -= len;
  906c18:	284106        	l16ui	a8, a4, 12
  906c1b:	03034f        	extui	a3, a3, 0, 16
  906c1e:	03880c        	sub	a8, a8, a3
  906c21:	284506        	s16i	a8, a4, 12
    buf->buf_length -= len;
  906c24:	242104        	l16ui	a4, a2, 8
  906c27:	03430c        	sub	a3, a4, a3
  906c2a:	232504        	s16i	a3, a2, 8
  906c2d:	d10f      	retw.n
	...

00906c30 <__adf_nbuf_put_tail>:
 * @return previous tail (data+len),NULL if the len is more than
 *         space available
 */
a_uint8_t *
__adf_nbuf_put_tail(__adf_nbuf_t buf, adf_os_size_t len)
{
  906c30:	6c1004        	entry	a1, 32
    a_uint8_t *tail = NULL;
    VDESC *last_desc = __adf_nbuf_last(buf);
  906c33:	da20      	mov.n	a10, a2
  906c35:	5bffea        	call8	906be0 <__adf_nbuf_last>
    
    tail = last_desc->buf_addr + last_desc->data_offset + last_desc->data_size;
  906c38:	28a106        	l16ui	a8, a10, 12
  906c3b:	29a105        	l16ui	a9, a10, 10
    last_desc->data_size += len;
  906c3e:	03034f        	extui	a3, a3, 0, 16
__adf_nbuf_put_tail(__adf_nbuf_t buf, adf_os_size_t len)
{
    a_uint8_t *tail = NULL;
    VDESC *last_desc = __adf_nbuf_last(buf);
    
    tail = last_desc->buf_addr + last_desc->data_offset + last_desc->data_size;
  906c41:	a989      	add.n	a9, a8, a9
    last_desc->data_size += len;
  906c43:	a838      	add.n	a8, a3, a8
  906c45:	28a506        	s16i	a8, a10, 12
    buf->buf_length += len;
  906c48:	282104        	l16ui	a8, a2, 8
__adf_nbuf_put_tail(__adf_nbuf_t buf, adf_os_size_t len)
{
    a_uint8_t *tail = NULL;
    VDESC *last_desc = __adf_nbuf_last(buf);
    
    tail = last_desc->buf_addr + last_desc->data_offset + last_desc->data_size;
  906c4b:	8ba1      	l32i.n	a11, a10, 4
    last_desc->data_size += len;
    buf->buf_length += len;
  906c4d:	a833      	add.n	a3, a3, a8
  906c4f:	232504        	s16i	a3, a2, 8
    
    return tail;
}
  906c52:	a9b2      	add.n	a2, a11, a9
  906c54:	d10f      	retw.n
	...

00906c58 <__adf_nbuf_headroom>:
 * 
 * @return num of bytes available
 */
a_uint32_t
__adf_nbuf_headroom(__adf_nbuf_t  buf)
{
  906c58:	6c1004        	entry	a1, 32
    return buf->desc_list->data_offset;
  906c5b:	8820      	l32i.n	a8, a2, 0
}
  906c5d:	228105        	l16ui	a2, a8, 10
  906c60:	d10f      	retw.n
	...

00906c64 <__adf_nbuf_tailroom>:
 * @return num of bytes
 */

a_uint32_t 
__adf_nbuf_tailroom(__adf_nbuf_t  buf)
{
  906c64:	6c1004        	entry	a1, 32
    VDESC *last_desc = __adf_nbuf_last(buf);
  906c67:	da20      	mov.n	a10, a2
  906c69:	5bffdd        	call8	906be0 <__adf_nbuf_last>
    
    return last_desc->buf_size - last_desc->data_offset - last_desc->data_size;
  906c6c:	28a104        	l16ui	a8, a10, 8
  906c6f:	22a105        	l16ui	a2, a10, 10
  906c72:	02820c        	sub	a2, a8, a2
  906c75:	28a106        	l16ui	a8, a10, 12
}
  906c78:	08220c        	sub	a2, a2, a8
  906c7b:	d10f      	retw.n
  906c7d:	000000        	ill

00906c80 <__adf_nbuf_len>:
 * 
 * @return total length of packet (sum of all frag lengths)
 */ 
a_uint32_t
__adf_nbuf_len(__adf_nbuf_t  buf)
{
  906c80:	6c1004        	entry	a1, 32
    return buf->buf_length; 
}
  906c83:	222104        	l16ui	a2, a2, 8
  906c86:	d10f      	retw.n

00906c88 <__adf_nbuf_clone>:
 * 
 * @return Read-only copy of the nbuf (including clusters)
 */
__adf_nbuf_t 
__adf_nbuf_clone(__adf_nbuf_t  src)
{
  906c88:	6c1004        	entry	a1, 32
    __adf_nbuf_t buf = NULL;
    
    return buf;
}
  906c8b:	c020      	movi.n	a2, 0
  906c8d:	d10f      	retw.n
	...

00906c90 <__adf_nbuf_cat>:

void
__adf_nbuf_cat(__adf_nbuf_t dst, __adf_nbuf_t src)
{
  906c90:	6c1004        	entry	a1, 32
  906c93:	d10f      	retw.n
  906c95:	000000        	ill

00906c98 <__adf_nbuf_is_cloned>:
 * 
 * @return a_bool_t
 */
a_bool_t
__adf_nbuf_is_cloned(__adf_nbuf_t  buf)
{
  906c98:	6c1004        	entry	a1, 32
    return A_FALSE;
}
  906c9b:	c020      	movi.n	a2, 0
  906c9d:	d10f      	retw.n
	...

00906ca0 <__adf_nbuf_peek_header>:
 * @brief This will return the header's addr & m_len
 */
void
__adf_nbuf_peek_header(__adf_nbuf_t buf, a_uint8_t   **addr, 
                       a_uint32_t	*len)
{
  906ca0:	6c1004        	entry	a1, 32
    VDESC *desc = buf->desc_list;
  906ca3:	8820      	l32i.n	a8, a2, 0
    
    *addr = desc->buf_addr + desc->data_offset;
  906ca5:	298105        	l16ui	a9, a8, 10
  906ca8:	8a81      	l32i.n	a10, a8, 4
    *len = desc->data_size; 
  906caa:	288106        	l16ui	a8, a8, 12
__adf_nbuf_peek_header(__adf_nbuf_t buf, a_uint8_t   **addr, 
                       a_uint32_t	*len)
{
    VDESC *desc = buf->desc_list;
    
    *addr = desc->buf_addr + desc->data_offset;
  906cad:	a9a9      	add.n	a9, a10, a9
  906caf:	9930      	s32i.n	a9, a3, 0
    *len = desc->data_size; 
  906cb1:	9840      	s32i.n	a8, a4, 0
  906cb3:	d10f      	retw.n
  906cb5:	000000        	ill

00906cb8 <__adf_nbuf_queue_init>:
 * @brief init the queue
 * @param qhead
 */
void 
__adf_nbuf_queue_init(__adf_nbuf_qhead_t *qhead)
{
  906cb8:	6c1004        	entry	a1, 32
    qhead->qlen = 0;
  906cbb:	c080      	movi.n	a8, 0
  906cbd:	9822      	s32i.n	a8, a2, 8
    qhead->head = NULL;
  906cbf:	9820      	s32i.n	a8, a2, 0
    qhead->tail = NULL;
  906cc1:	9821      	s32i.n	a8, a2, 4
  906cc3:	d10f      	retw.n
  906cc5:	000000        	ill

00906cc8 <__adf_nbuf_queue_len>:
 * @return length
 * 
 */
a_uint32_t  
__adf_nbuf_queue_len(__adf_nbuf_qhead_t *qhead)
{
  906cc8:	6c1004        	entry	a1, 32
    return qhead->qlen;
}
  906ccb:	8222      	l32i.n	a2, a2, 8
  906ccd:	d10f      	retw.n
	...

00906cd0 <__adf_nbuf_queue_first>:
 * 
 * @return (NULL if the Q is empty)
 */
__adf_nbuf_t   
__adf_nbuf_queue_first(__adf_nbuf_queue_t *qhead)
{
  906cd0:	6c1004        	entry	a1, 32
    return qhead->head;
}
  906cd3:	8220      	l32i.n	a2, a2, 0
  906cd5:	d10f      	retw.n
	...

00906cd8 <__adf_nbuf_queue_next>:
 * 
 * @return (NULL if no packets are there)
 */
__adf_nbuf_t   
__adf_nbuf_queue_next(__adf_nbuf_t  buf)
{
  906cd8:	6c1004        	entry	a1, 32
    return buf->next_buf;
}
  906cdb:	8221      	l32i.n	a2, a2, 4
  906cdd:	d10f      	retw.n
	...

00906ce0 <__adf_nbuf_is_queue_empty>:
 * 
 * @return a_bool_t
 */
a_bool_t  
__adf_nbuf_is_queue_empty(__adf_nbuf_qhead_t *qhead)
{
  906ce0:	6c1004        	entry	a1, 32
    return ((qhead->qlen == 0));
  906ce3:	8922      	l32i.n	a9, a2, 8
  906ce5:	c081      	movi.n	a8, 1
  906ce7:	c020      	movi.n	a2, 0
  906ce9:	098238        	moveqz	a2, a8, a9
}
  906cec:	d10f      	retw.n
	...

00906cf0 <_buf_pool_static_init>:
    pAPIs->_free_buf = _buf_pool_static_free_buf;
    pAPIs->_shutdown = _buf_pool_static_shutdown;
}
 
LOCAL pool_handle_t _buf_pool_static_init(adf_os_handle_t handle)
{
  906cf0:	6c1004        	entry	a1, 32
  906cf3:	c080      	movi.n	a8, 0
    pAPIs->_alloc_buf_align = _buf_pool_static_alloc_buf_align;
    pAPIs->_free_buf = _buf_pool_static_free_buf;
    pAPIs->_shutdown = _buf_pool_static_shutdown;
}
 
LOCAL pool_handle_t _buf_pool_static_init(adf_os_handle_t handle)
  906cf5:	126988        	l32r	a2, 8e1318 <_bss_end+0x3ce408>
{
#if 1
    int i;
    
    for(i=0; i < POOL_ID_MAX; i++) {
        g_poolCtx.bufQ[i] = NULL;
  906cf8:	db80      	mov.n	a11, a8
LOCAL pool_handle_t _buf_pool_static_init(adf_os_handle_t handle)
{
#if 1
    int i;
    
    for(i=0; i < POOL_ID_MAX; i++) {
  906cfa:	c298      	movi.n	a9, 40
    pAPIs->_alloc_buf_align = _buf_pool_static_alloc_buf_align;
    pAPIs->_free_buf = _buf_pool_static_free_buf;
    pAPIs->_shutdown = _buf_pool_static_shutdown;
}
 
LOCAL pool_handle_t _buf_pool_static_init(adf_os_handle_t handle)
  906cfc:	a28a      	add.n	a10, a8, a2
{
#if 1
    int i;
    
    for(i=0; i < POOL_ID_MAX; i++) {
        g_poolCtx.bufQ[i] = NULL;
  906cfe:	9ba0      	s32i.n	a11, a10, 0
  906d00:	b488      	addi.n	a8, a8, 4
LOCAL pool_handle_t _buf_pool_static_init(adf_os_handle_t handle)
{
#if 1
    int i;
    
    for(i=0; i < POOL_ID_MAX; i++) {
  906d02:	7989f6        	bne	a8, a9, 906cfc <_buf_pool_static_init+0xc>
    ctx = (BUF_POOL_STATIC_CONTEXT *)adf_os_mem_alloc(sizeof(BUF_POOL_STATIC_CONTEXT));
    ctx->NetHandle = handle;
    
    return ctx; 
#endif    
}      
  906d05:	d10f      	retw.n
	...

00906d08 <_buf_pool_static_shutdown>:
    
LOCAL void _buf_pool_static_shutdown(pool_handle_t handle) 
{
  906d08:	6c1004        	entry	a1, 32
  906d0b:	d10f      	retw.n
  906d0d:	000000        	ill

00906d10 <_buf_pool_static_create_pool>:
    // SHALL NOT BE USED in FW
}

LOCAL void _buf_pool_static_create_pool(pool_handle_t handle, BUF_POOL_ID poolId, int nItems, int nSize)
{
  906d10:	6c1006        	entry	a1, 48
        desc->data_size = 0;
        
        buf->buf_length = 0;        
        buf->desc_list = desc;
        
        if ( g_poolCtx.bufQ[poolId] == NULL ) {
  906d13:	126988        	l32r	a2, 8e1334 <_bss_end+0x3ce424>
{
    // SHALL NOT BE USED in FW
}

LOCAL void _buf_pool_static_create_pool(pool_handle_t handle, BUF_POOL_ID poolId, int nItems, int nSize)
{
  906d16:	d940      	mov.n	a9, a4
    VDESC *desc;
    
    //BUF_POOL_STATIC_CONTEXT *ctx = (BUF_POOL_STATIC_CONTEXT *)handle;
    
    for ( i = 0; i < nItems; i++) {
        buf = VBUF_alloc_vbuf();
  906d18:	176915        	l32r	a7, 8e116c <_bss_end+0x3ce25c>
    VBUF *buf;
    VDESC *desc;
    
    //BUF_POOL_STATIC_CONTEXT *ctx = (BUF_POOL_STATIC_CONTEXT *)handle;
    
    for ( i = 0; i < nItems; i++) {
  906d1b:	c040      	movi.n	a4, 0
        desc->data_size = 0;
        
        buf->buf_length = 0;        
        buf->desc_list = desc;
        
        if ( g_poolCtx.bufQ[poolId] == NULL ) {
  906d1d:	02330a        	addx4	a3, a3, a2
    VBUF *buf;
    VDESC *desc;
    
    //BUF_POOL_STATIC_CONTEXT *ctx = (BUF_POOL_STATIC_CONTEXT *)handle;
    
    for ( i = 0; i < nItems; i++) {
  906d20:	60003e        	j	906d62 <_buf_pool_static_create_pool+0x52>
  906d23:	002a72        	excw
        buf = VBUF_alloc_vbuf();
  906d26:	a199      	add.n	a9, a9, a1
  906d28:	100ba0        	l32r	a0, 8c9ba8 <_bss_end+0x3b6c98>
  906d2b:	00d2a0        	excw
        desc = VDESC_alloc_vdesc();
  906d2e:	2a72a6        	l32i	a10, a7, 0x298
  906d31:	0ba000        	callx8	a10
#include "Magpie_api.h"

static inline void *	__adf_os_mem_alloc(adf_os_size_t size)
{
//    return (malloc(size,M_DEVBUF,M_DONTWAIT | M_ZERO));
    return A_ALLOCRAM(size);
  906d34:	287252        	l32i	a8, a7, 0x148
  906d37:	d6a0      	mov.n	a6, a10
  906d39:	db50      	mov.n	a11, a5
  906d3b:	c0a0      	movi.n	a10, 0
  906d3d:	0b8000        	callx8	a8

        desc->buf_addr = (A_UINT8 *)adf_os_mem_alloc(nSize);
        desc->buf_size = nSize;
        desc->data_offset = 0;
  906d40:	c080      	movi.n	a8, 0
    
    for ( i = 0; i < nItems; i++) {
        buf = VBUF_alloc_vbuf();
        desc = VDESC_alloc_vdesc();

        desc->buf_addr = (A_UINT8 *)adf_os_mem_alloc(nSize);
  906d42:	9a61      	s32i.n	a10, a6, 4
        desc->buf_size = nSize;
  906d44:	256504        	s16i	a5, a6, 8
        desc->data_offset = 0;
  906d47:	286505        	s16i	a8, a6, 10
        desc->data_size = 0;
  906d4a:	286506        	s16i	a8, a6, 12
        
        buf->buf_length = 0;        
        buf->desc_list = desc;
  906d4d:	9620      	s32i.n	a6, a2, 0
        
        if ( g_poolCtx.bufQ[poolId] == NULL ) {
  906d4f:	8630      	l32i.n	a6, a3, 0
        desc->buf_addr = (A_UINT8 *)adf_os_mem_alloc(nSize);
        desc->buf_size = nSize;
        desc->data_offset = 0;
        desc->data_size = 0;
        
        buf->buf_length = 0;        
  906d51:	282504        	s16i	a8, a2, 8
        buf->desc_list = desc;
        
        if ( g_poolCtx.bufQ[poolId] == NULL ) {
  906d54:	8910      	l32i.n	a9, a1, 0
  906d56:	cc62      	bnez.n	a6, 906d5c <_buf_pool_static_create_pool+0x4c>
  906d58:	600002        	j	906d5e <_buf_pool_static_create_pool+0x4e>
  906d5b:	009621        	excw
            g_poolCtx.bufQ[poolId] = buf;
        } else {
            buf->next_buf = g_poolCtx.bufQ[poolId];
            g_poolCtx.bufQ[poolId] = buf;
  906d5e:	9230      	s32i.n	a2, a3, 0
    VBUF *buf;
    VDESC *desc;
    
    //BUF_POOL_STATIC_CONTEXT *ctx = (BUF_POOL_STATIC_CONTEXT *)handle;
    
    for ( i = 0; i < nItems; i++) {
  906d60:	b144      	addi.n	a4, a4, 1
  906d62:	7942be        	blt	a4, a9, 906d24 <_buf_pool_static_create_pool+0x14>
        } else {
            buf->next_buf = g_poolCtx.bufQ[poolId];
            g_poolCtx.bufQ[poolId] = buf;
        }
    }
}
  906d65:	d10f      	retw.n
	...

00906d68 <_buf_pool_static_alloc_buf>:
            
LOCAL adf_nbuf_t  _buf_pool_static_alloc_buf(pool_handle_t handle, BUF_POOL_ID poolId, int reserve)
{
  906d68:	6c1004        	entry	a1, 32
    VBUF *buf;
    
    buf = g_poolCtx.bufQ[poolId];
  906d6b:	126988        	l32r	a2, 8e138c <_bss_end+0x3ce47c>
  906d6e:	02330a        	addx4	a3, a3, a2
  906d71:	8230      	l32i.n	a2, a3, 0
    if ( buf != NULL ) {
  906d73:	c921      	beqz.n	a2, 906d88 <_buf_pool_static_alloc_buf+0x20>
        g_poolCtx.bufQ[poolId] = buf->next_buf;
  906d75:	8821      	l32i.n	a8, a2, 4
  906d77:	9830      	s32i.n	a8, a3, 0
        
        buf->next_buf = NULL;
        buf->desc_list->data_offset = reserve;
  906d79:	8920      	l32i.n	a9, a2, 0
    
    buf = g_poolCtx.bufQ[poolId];
    if ( buf != NULL ) {
        g_poolCtx.bufQ[poolId] = buf->next_buf;
        
        buf->next_buf = NULL;
  906d7b:	c080      	movi.n	a8, 0
  906d7d:	9821      	s32i.n	a8, a2, 4
        buf->desc_list->data_offset = reserve;
  906d7f:	249505        	s16i	a4, a9, 10
        buf->desc_list->data_size = 0;
  906d82:	289506        	s16i	a8, a9, 12
        buf->buf_length = 0;
  906d85:	282504        	s16i	a8, a2, 8
    }
    
    return buf;
}
  906d88:	d10f      	retw.n
	...

00906d8c <_buf_pool_static_alloc_buf_align>:

LOCAL adf_nbuf_t  _buf_pool_static_alloc_buf_align(pool_handle_t handle, BUF_POOL_ID poolId, int reserve, int align)
{
  906d8c:	6c1004        	entry	a1, 32
    return _buf_pool_static_alloc_buf(handle, poolId, reserve);
  906d8f:	da20      	mov.n	a10, a2
  906d91:	db30      	mov.n	a11, a3
  906d93:	dc40      	mov.n	a12, a4
  906d95:	5bfff4        	call8	906d68 <_buf_pool_static_alloc_buf>
}
  906d98:	d2a0      	mov.n	a2, a10
  906d9a:	d10f      	retw.n

00906d9c <_buf_pool_static_free_buf>:
    
LOCAL void _buf_pool_static_free_buf(pool_handle_t handle, BUF_POOL_ID poolId, adf_nbuf_t buf)
{
  906d9c:	6c1004        	entry	a1, 32
    if ( g_poolCtx.bufQ[poolId] == NULL ) {
  906d9f:	186988        	l32r	a8, 8e13c0 <_bss_end+0x3ce4b0>
  906da2:	08330a        	addx4	a3, a3, a8
  906da5:	8830      	l32i.n	a8, a3, 0
  906da7:	cc81      	bnez.n	a8, 906dac <_buf_pool_static_free_buf+0x10>
  906da9:	600001        	j	906dae <_buf_pool_static_free_buf+0x12>
        g_poolCtx.bufQ[poolId] = buf;
    } else {
        buf->next_buf = g_poolCtx.bufQ[poolId];
  906dac:	9841      	s32i.n	a8, a4, 4
        g_poolCtx.bufQ[poolId] = buf;
  906dae:	9430      	s32i.n	a4, a3, 0
  906db0:	d10f      	retw.n
	...

00906db4 <buf_pool_module_install>:
LOCAL void _buf_pool_static_shutdown(pool_handle_t handle);      

BUF_POOL_STATIC_CONTEXT g_poolCtx;

void buf_pool_module_install(struct buf_pool_api *pAPIs)
{   
  906db4:	6c1004        	entry	a1, 32
    pAPIs->_init = _buf_pool_static_init;
  906db7:	186989        	l32r	a8, 8e13dc <_bss_end+0x3ce4cc>
  906dba:	9820      	s32i.n	a8, a2, 0
    pAPIs->_create_pool = _buf_pool_static_create_pool;
  906dbc:	18698a        	l32r	a8, 8e13e4 <_bss_end+0x3ce4d4>
  906dbf:	9822      	s32i.n	a8, a2, 8
    pAPIs->_alloc_buf = _buf_pool_static_alloc_buf;
  906dc1:	18698b        	l32r	a8, 8e13f0 <_bss_end+0x3ce4e0>
  906dc4:	9823      	s32i.n	a8, a2, 12
    pAPIs->_alloc_buf_align = _buf_pool_static_alloc_buf_align;
  906dc6:	18698c        	l32r	a8, 8e13f8 <_bss_end+0x3ce4e8>
  906dc9:	9824      	s32i.n	a8, a2, 16
    pAPIs->_free_buf = _buf_pool_static_free_buf;
  906dcb:	18698d        	l32r	a8, 8e1400 <_bss_end+0x3ce4f0>
  906dce:	9825      	s32i.n	a8, a2, 20
    pAPIs->_shutdown = _buf_pool_static_shutdown;
  906dd0:	18698e        	l32r	a8, 8e1408 <_bss_end+0x3ce4f8>
  906dd3:	9821      	s32i.n	a8, a2, 4
  906dd5:	d10f      	retw.n
	...

00906dd8 <db_incorect_format>:
int cmd_not_found;
uint16_t gvLen;
int pressed_time;

static void db_incorect_format(void)
{
  906dd8:	6c1004        	entry	a1, 32
	A_PRINTF("Error! Incorrect format.\n\r");
  906ddb:	186915        	l32r	a8, 8e1230 <_bss_end+0x3ce320>
  906dde:	1a698f        	l32r	a10, 8e141c <_bss_end+0x3ce50c>
  906de1:	288212        	l32i	a8, a8, 72
  906de4:	0b8000        	callx8	a8
  906de7:	d10f      	retw.n
  906de9:	000000        	ill

00906dec <zf_debug_init>:
	} while (mem1 < mem2);
	A_PRINTF("\n\r");
}

static void zf_debug_init(void)
{
  906dec:	6c1006        	entry	a1, 48
	uint8_t ch;

	/* Purge Rx FIFO */
	while ((zm_get_char(&ch)) != 0)
  906def:	126915        	l32r	a2, 8e1244 <_bss_end+0x3ce334>
  906df2:	282215        	l32i	a8, a2, 84
  906df5:	da10      	mov.n	a10, a1
  906df7:	0b8000        	callx8	a8
  906dfa:	65aff4        	bnez	a10, 906df2 <zf_debug_init+0x6>
	{
	}

	cmd_buf_ptr = 0;
  906dfd:	126990        	l32r	a2, 8e1440 <_bss_end+0x3ce530>
  906e00:	9a20      	s32i.n	a10, a2, 0
	cmd_buf_full = FALSE;
  906e02:	126991        	l32r	a2, 8e1448 <_bss_end+0x3ce538>
  906e05:	9a20      	s32i.n	a10, a2, 0
	gvLen = 0;
  906e07:	126992        	l32r	a2, 8e1450 <_bss_end+0x3ce540>
  906e0a:	2a2500        	s16i	a10, a2, 0
	pressed_time = 0;
  906e0d:	126993        	l32r	a2, 8e145c <_bss_end+0x3ce54c>
  906e10:	9a20      	s32i.n	a10, a2, 0
  906e12:	d10f      	retw.n

00906e14 <db_ascii_to_hex>:
	}
	return (int)A_STRLEN(cmd_str);
}

static int db_ascii_to_hex(char *num_str, unsigned long *hex_num)
{
  906e14:	6c1004        	entry	a1, 32
	int i = 0;

	*hex_num = 0;
  906e17:	c080      	movi.n	a8, 0
  906e19:	9830      	s32i.n	a8, a3, 0
	while (num_str[i])
	{
		if ((num_str[i] >= '0') && (num_str[i] <= '9'))
  906e1b:	c099      	movi.n	a9, 9
static int db_ascii_to_hex(char *num_str, unsigned long *hex_num)
{
	int i = 0;

	*hex_num = 0;
	while (num_str[i])
  906e1d:	60004b        	j	906e6c <db_ascii_to_hex+0x58>
	{
		if ((num_str[i] >= '0') && (num_str[i] <= '9'))
  906e20:	2a8cd0        	addi	a10, a8, -48
  906e23:	0a0a47        	extui	a10, a10, 0, 8
  906e26:	7a930e        	bltu	a9, a10, 906e38 <db_ascii_to_hex+0x24>
		{
			*hex_num <<= 4;
  906e29:	8830      	l32i.n	a8, a3, 0
  906e2b:	0c8811        	slli	a8, a8, 4
  906e2e:	9830      	s32i.n	a8, a3, 0
			*hex_num += (num_str[i] - '0');
  906e30:	288cd0        	addi	a8, a8, -48
  906e33:	60002c        	j	906e63 <db_ascii_to_hex+0x4f>
  906e36:	00002a        	muluh	a0, a0, a0
		}
		else if ((num_str[i] >= 'A') && (num_str[i] <= 'F'))
  906e39:	8cbf      	l32i.n	a12, a11, 60
  906e3b:	0a0a47        	extui	a10, a10, 0, 8
  906e3e:	6fa60e        	bgeui	a10, 6, 906e50 <db_ascii_to_hex+0x3c>
		{
			*hex_num <<= 4;
  906e41:	8830      	l32i.n	a8, a3, 0
  906e43:	0c8811        	slli	a8, a8, 4
  906e46:	9830      	s32i.n	a8, a3, 0
			*hex_num += (num_str[i] - 'A' + 10);
  906e48:	288cc9        	addi	a8, a8, -55
  906e4b:	600014        	j	906e63 <db_ascii_to_hex+0x4f>
  906e4e:	000028        	mull	a0, a0, a0
		}
		else if ((num_str[i] >= 'a') && (num_str[i] <= 'f'))
  906e51:	8c9f      	l32i.n	a12, a9, 60
  906e53:	080847        	extui	a8, a8, 0, 8
  906e56:	6f861c        	bgeui	a8, 6, 906e76 <db_ascii_to_hex+0x62>
		{
			*hex_num <<= 4;
  906e59:	8830      	l32i.n	a8, a3, 0
  906e5b:	0c8811        	slli	a8, a8, 4
  906e5e:	9830      	s32i.n	a8, a3, 0
			*hex_num += (num_str[i] - 'a' + 10);
  906e60:	288ca9        	addi	a8, a8, -87
  906e63:	2a2000        	l8ui	a10, a2, 0
  906e66:	b122      	addi.n	a2, a2, 1
  906e68:	aa88      	add.n	a8, a8, a10
  906e6a:	9830      	s32i.n	a8, a3, 0
static int db_ascii_to_hex(char *num_str, unsigned long *hex_num)
{
	int i = 0;

	*hex_num = 0;
	while (num_str[i])
  906e6c:	282000        	l8ui	a8, a2, 0
  906e6f:	658fad        	bnez	a8, 906e20 <db_ascii_to_hex+0xc>
		{
			return -1;
		}
		i++;
	}
	return 0;
  906e72:	d280      	mov.n	a2, a8
  906e74:	d10f      	retw.n
			*hex_num <<= 4;
			*hex_num += (num_str[i] - 'a' + 10);
		}
		else
		{
			return -1;
  906e76:	c72f      	movi.n	a2, -1
		}
		i++;
	}
	return 0;
}
  906e78:	d10f      	retw.n
	...

00906e7c <db_hex_to_ascii>:
	}
	return 0;
}

static int db_hex_to_ascii(unsigned long hex_num, char *num_str)
{
  906e7c:	6c1004        	entry	a1, 32
  906e7f:	d930      	mov.n	a9, a3
  906e81:	c18c      	movi.n	a8, 28
	unsigned long four_bits;

	for (i=7; i>=0; i--)
	{
		four_bits = (hex_num >> i*4) & 0xf;
		if (four_bits < 10)
  906e83:	c0c9      	movi.n	a12, 9
static int db_hex_to_ascii(unsigned long hex_num, char *num_str)
{
	int i;
	unsigned long four_bits;

	for (i=7; i>=0; i--)
  906e85:	2bfafc        	movi	a11, -4
	{
		four_bits = (hex_num >> i*4) & 0xf;
  906e88:	008004        	ssr	a8
  906e8b:	020a19        	srl	a10, a2
  906e8e:	0a0a43        	extui	a10, a10, 0, 4
		if (four_bits < 10)
  906e91:	7ac307        	bltu	a12, a10, 906e9c <db_hex_to_ascii+0x20>
		{
			num_str[7-i] = four_bits + '0';
  906e94:	2aac30        	addi	a10, a10, 48
  906e97:	600004        	j	906e9f <db_hex_to_ascii+0x23>
  906e9a:	00002a        	muluh	a0, a0, a0
		}
		else
		{
			num_str[7-i] = four_bits - 10 + 'A';
  906e9d:	ac37      	add.n	a7, a3, a12
  906e9f:	2a9400        	s8i	a10, a9, 0
  906ea2:	288cfc        	addi	a8, a8, -4
  906ea5:	b199      	addi.n	a9, a9, 1
static int db_hex_to_ascii(unsigned long hex_num, char *num_str)
{
	int i;
	unsigned long four_bits;

	for (i=7; i>=0; i--)
  906ea7:	7b89dd        	bne	a8, a11, 906e88 <db_hex_to_ascii+0xc>
		else
		{
			num_str[7-i] = four_bits - 10 + 'A';
		}
	}
	num_str[8] = 0;
  906eaa:	c020      	movi.n	a2, 0
  906eac:	223408        	s8i	a2, a3, 8
	return 0;
}
  906eaf:	c020      	movi.n	a2, 0
  906eb1:	d10f      	retw.n
	...

00906eb4 <db_help_cmd>:

int db_help_cmd(char *cmd, char *param1, char *param2, char *param3)
{
  906eb4:	6c1004        	entry	a1, 32
	int i;

	i = 0;

	A_PRINTF("%s %s\n", ATH_DEBUGGER_VERSION_STR, ATH_COMMAND_LIST_STR);
  906eb7:	146915        	l32r	a4, 8e130c <_bss_end+0x3ce3fc>
  906eba:	1a6994        	l32r	a10, 8e150c <_bss_end+0x3ce5fc>
  906ebd:	224212        	l32i	a2, a4, 72
  906ec0:	1b6995        	l32r	a11, 8e1514 <_bss_end+0x3ce604>
  906ec3:	1c6996        	l32r	a12, 8e151c <_bss_end+0x3ce60c>
  906ec6:	0b2000        	callx8	a2
  906ec9:	136997        	l32r	a3, 8e1528 <_bss_end+0x3ce618>

int db_help_cmd(char *cmd, char *param1, char *param2, char *param3)
{
	int i;

	i = 0;
  906ecc:	c020      	movi.n	a2, 0

	A_PRINTF("%s %s\n", ATH_DEBUGGER_VERSION_STR, ATH_COMMAND_LIST_STR);

	while (command_table[i].cmd_func)
  906ece:	600016        	j	906ee8 <db_help_cmd+0x34>
	}
	num_str[8] = 0;
	return 0;
}

int db_help_cmd(char *cmd, char *param1, char *param2, char *param3)
  906ed1:	293cfc        	addi	a9, a3, -4
  906ed4:	2b3cf8        	addi	a11, a3, -8

	A_PRINTF("%s %s\n", ATH_DEBUGGER_VERSION_STR, ATH_COMMAND_LIST_STR);

	while (command_table[i].cmd_func)
	{
		A_PRINTF("%s\t%s\n\r", command_table[i].cmd_str,
  906ed7:	284212        	l32i	a8, a4, 72
  906eda:	1a6998        	l32r	a10, 8e153c <_bss_end+0x3ce62c>
  906edd:	8bb0      	l32i.n	a11, a11, 0
  906edf:	8c90      	l32i.n	a12, a9, 0
				       command_table[i].help_str);
		i++;
  906ee1:	b122      	addi.n	a2, a2, 1

	A_PRINTF("%s %s\n", ATH_DEBUGGER_VERSION_STR, ATH_COMMAND_LIST_STR);

	while (command_table[i].cmd_func)
	{
		A_PRINTF("%s\t%s\n\r", command_table[i].cmd_str,
  906ee3:	0b8000        	callx8	a8
  906ee6:	bc33      	addi.n	a3, a3, 12

	i = 0;

	A_PRINTF("%s %s\n", ATH_DEBUGGER_VERSION_STR, ATH_COMMAND_LIST_STR);

	while (command_table[i].cmd_func)
  906ee8:	8830      	l32i.n	a8, a3, 0
  906eea:	658fe3        	bnez	a8, 906ed1 <db_help_cmd+0x1d>
		A_PRINTF("%s\t%s\n\r", command_table[i].cmd_str,
				       command_table[i].help_str);
		i++;
	}
	return i;
}
  906eed:	d10f      	retw.n
	...

00906ef0 <db_cmd_starthtc>:
#endif
	return 1;
}

static int db_cmd_starthtc(char *cmd, char *param1, char *param2, char *param3)
{
  906ef0:	6c1004        	entry	a1, 32
    extern htc_handle_t htc_handle;
    HTC_Ready(htc_handle);
  906ef3:	126915        	l32r	a2, 8e1348 <_bss_end+0x3ce438>
  906ef6:	282281        	l32i	a8, a2, 0x204
  906ef9:	126999        	l32r	a2, 8e1560 <generic_hif_module_install+0x18>
  906efc:	8a20      	l32i.n	a10, a2, 0
  906efe:	0b8000        	callx8	a8
}
  906f01:	d10f      	retw.n
	...

00906f04 <db_cmd_memcmp>:
#endif
#endif /* #if defined(PROJECT_K2) */

/* Memory Comparison */
static int db_cmd_memcmp(char *cmd, char *param1, char *param2, char *param3)
{
  906f04:	6c1006        	entry	a1, 48
	unsigned long       addr1, addr2, len;
	A_UINT8             *buf1, *buf2;

	if (db_ascii_to_hex(param1, &addr1) != -1 &&
  906f07:	033a02        	or	a10, a3, a3
  906f0a:	2b1c08        	addi	a11, a1, 8
  906f0d:	5bffc1        	call8	906e14 <db_ascii_to_hex>
  906f10:	68a045        	beqi	a10, -1, 906f59 <db_cmd_memcmp+0x55>
	    db_ascii_to_hex(param2, &addr2) != -1 &&
  906f13:	044a02        	or	a10, a4, a4
  906f16:	2b1c04        	addi	a11, a1, 4
  906f19:	5bffbe        	call8	906e14 <db_ascii_to_hex>
static int db_cmd_memcmp(char *cmd, char *param1, char *param2, char *param3)
{
	unsigned long       addr1, addr2, len;
	A_UINT8             *buf1, *buf2;

	if (db_ascii_to_hex(param1, &addr1) != -1 &&
  906f1c:	68a039        	beqi	a10, -1, 906f59 <db_cmd_memcmp+0x55>
	    db_ascii_to_hex(param2, &addr2) != -1 &&
	    db_ascii_to_hex(param3, &len) != -1 &&
  906f1f:	055a02        	or	a10, a5, a5
  906f22:	011b02        	or	a11, a1, a1
  906f25:	5bffbb        	call8	906e14 <db_ascii_to_hex>
{
	unsigned long       addr1, addr2, len;
	A_UINT8             *buf1, *buf2;

	if (db_ascii_to_hex(param1, &addr1) != -1 &&
	    db_ascii_to_hex(param2, &addr2) != -1 &&
  906f28:	68a02d        	beqi	a10, -1, 906f59 <db_cmd_memcmp+0x55>
	    db_ascii_to_hex(param3, &len) != -1 &&
	    addr1 != addr2 && addr1%4 == 0 && addr2%4 == 0 && len%4 == 0)
  906f2b:	8a12      	l32i.n	a10, a1, 8
  906f2d:	8b11      	l32i.n	a11, a1, 4
	unsigned long       addr1, addr2, len;
	A_UINT8             *buf1, *buf2;

	if (db_ascii_to_hex(param1, &addr1) != -1 &&
	    db_ascii_to_hex(param2, &addr2) != -1 &&
	    db_ascii_to_hex(param3, &len) != -1 &&
  906f2f:	7ba126        	beq	a10, a11, 906f59 <db_cmd_memcmp+0x55>
	    addr1 != addr2 && addr1%4 == 0 && addr2%4 == 0 && len%4 == 0)
  906f32:	0a0241        	extui	a2, a10, 0, 2
  906f35:	ce20      	bnez.n	a2, 906f59 <db_cmd_memcmp+0x55>
  906f37:	0b0241        	extui	a2, a11, 0, 2
  906f3a:	cd2b      	bnez.n	a2, 906f59 <db_cmd_memcmp+0x55>
  906f3c:	8c10      	l32i.n	a12, a1, 0
  906f3e:	0c0241        	extui	a2, a12, 0, 2
  906f41:	cd24      	bnez.n	a2, 906f59 <db_cmd_memcmp+0x55>
	{
		buf1 = (A_UINT8 *)addr1;
		buf2 = (A_UINT8 *)addr2;        ;

		A_PRINTF("memcmp(buf1, buf2, len) = %d\n\r", A_MEMCMP(buf1, buf2, len));
  906f43:	186915        	l32r	a8, 8e1398 <_bss_end+0x3ce488>
  906f46:	8587      	l32i.n	a5, a8, 28
  906f48:	248212        	l32i	a4, a8, 72
  906f4b:	0b5000        	callx8	a5
  906f4e:	dba0      	mov.n	a11, a10
  906f50:	1a699a        	l32r	a10, 8e15b8 <athos_indirection_table_install+0x44>
  906f53:	0b4000        	callx8	a4
  906f56:	d10f      	retw.n
  906f58:	005bff        	excw
		return 0;
	}

	db_incorect_format();
  906f5b:	9fc7      	s32i.n	a15, a12, 28
	return -1;
  906f5d:	2fd10f        	l16ui	a15, a13, 30

00906f60 <db_cmd_memdump>:
}

/* Memory Dump */
static int db_cmd_memdump(char *cmd, char *param1, char *param2, char *param3)
{
  906f60:	6c1006        	entry	a1, 48
	unsigned long       addr1, addr2;

	if (db_ascii_to_hex(param1, &addr1) != -1 && db_ascii_to_hex(param2, &addr2) != -1 && addr1 < addr2 && addr1%4 == 0)
  906f63:	033a02        	or	a10, a3, a3
  906f66:	2b1c04        	addi	a11, a1, 4
  906f69:	5bffaa        	call8	906e14 <db_ascii_to_hex>
  906f6c:	69a002        	bnei	a10, -1, 906f72 <db_cmd_memdump+0x12>
  906f6f:	60008e        	j	907001 <db_cmd_memdump+0xa1>
  906f72:	da40      	mov.n	a10, a4
  906f74:	db10      	mov.n	a11, a1
  906f76:	5bffa7        	call8	906e14 <db_ascii_to_hex>
  906f79:	69a002        	bnei	a10, -1, 906f7f <db_cmd_memdump+0x1f>
  906f7c:	600081        	j	907001 <db_cmd_memdump+0xa1>
  906f7f:	8211      	l32i.n	a2, a1, 4
  906f81:	241200        	l32i	a4, a1, 0
  906f84:	742b79        	bgeu	a2, a4, 907001 <db_cmd_memdump+0xa1>
  906f87:	020341        	extui	a3, a2, 0, 2
  906f8a:	653073        	bnez	a3, 907001 <db_cmd_memdump+0xa1>
	unsigned int i = 0;
	const char *tmp;

	do {
		if (i == 0) {
			A_PRINTF("\n\r%06x: ", mem1);
  906f8d:	176915        	l32r	a7, 8e13e4 <_bss_end+0x3ce4d4>
{
	unsigned int i = 0;
	const char *tmp;

	do {
		if (i == 0) {
  906f90:	cc3c      	bnez.n	a3, 906fa0 <db_cmd_memdump+0x40>
			A_PRINTF("\n\r%06x: ", mem1);
  906f92:	257212        	l32i	a5, a7, 72
  906f95:	1a699b        	l32r	a10, 8e1604 <athos_indirection_table_install+0x90>
  906f98:	db20      	mov.n	a11, a2
  906f9a:	0b5000        	callx8	a5
  906f9d:	022502        	or	a5, a2, a2
			tmp = mem1;
		}

		A_PRINTF("%04x ", *(uint16_t *)mem1);
  906fa0:	166915        	l32r	a6, 8e13f4 <_bss_end+0x3ce4e4>
  906fa3:	2b2100        	l16ui	a11, a2, 0
  906fa6:	286212        	l32i	a8, a6, 72
  906fa9:	1a699c        	l32r	a10, 8e161c <athos_indirection_table_install+0xa8>

		mem1 += 2;
		i++;
  906fac:	233c01        	addi	a3, a3, 1
		if (i == 0) {
			A_PRINTF("\n\r%06x: ", mem1);
			tmp = mem1;
		}

		A_PRINTF("%04x ", *(uint16_t *)mem1);
  906faf:	0b8000        	callx8	a8

		mem1 += 2;
  906fb2:	b222      	addi.n	a2, a2, 2
		i++;

		if (i == 8) {
  906fb4:	693834        	bnei	a3, 8, 906fec <db_cmd_memdump+0x8c>
			A_PRINTF(" ");
  906fb7:	236212        	l32i	a3, a6, 72
  906fba:	1a699d        	l32r	a10, 8e1630 <athos_indirection_table_install+0xbc>
  906fbd:	0b3000        	callx8	a3
			do {
				if (*tmp > 0x20 && *tmp < 0x7e)
  906fc0:	c53c      	movi.n	a3, 92
  906fc2:	2b5000        	l8ui	a11, a5, 0
  906fc5:	166915        	l32r	a6, 8e141c <_bss_end+0x3ce50c>
  906fc8:	28bcdf        	addi	a8, a11, -33
  906fcb:	080847        	extui	a8, a8, 0, 8
					A_PRINTF("%c", *tmp);
  906fce:	266212        	l32i	a6, a6, 72
		i++;

		if (i == 8) {
			A_PRINTF(" ");
			do {
				if (*tmp > 0x20 && *tmp < 0x7e)
  906fd1:	783308        	bltu	a3, a8, 906fdd <db_cmd_memdump+0x7d>
					A_PRINTF("%c", *tmp);
  906fd4:	1a699e        	l32r	a10, 8e164c <athos_indirection_table_install+0xd8>
  906fd7:	0b6000        	callx8	a6
  906fda:	600005        	j	906fe3 <db_cmd_memdump+0x83>
				else
					A_PRINTF(".");
  906fdd:	1a699f        	l32r	a10, 8e165c <athos_indirection_table_install+0xe8>
  906fe0:	0b6000        	callx8	a6
				tmp++;
  906fe3:	255c01        	addi	a5, a5, 1
			} while (tmp < mem1);
  906fe6:	7253d8        	bltu	a5, a2, 906fc2 <db_cmd_memdump+0x62>
			i = 0;
  906fe9:	230a00        	movi	a3, 0
		}
	} while (mem1 < mem2);
  906fec:	7423a0        	bltu	a2, a4, 906f90 <db_cmd_memdump+0x30>
	A_PRINTF("\n\r");
  906fef:	126915        	l32r	a2, 8e1444 <_bss_end+0x3ce534>
  906ff2:	1a69a0        	l32r	a10, 8e1674 <athos_indirection_table_install+0x100>
  906ff5:	222212        	l32i	a2, a2, 72
  906ff8:	0b2000        	callx8	a2
	unsigned long       addr1, addr2;

	if (db_ascii_to_hex(param1, &addr1) != -1 && db_ascii_to_hex(param2, &addr2) != -1 && addr1 < addr2 && addr1%4 == 0)
	{
		db_print_dump((const char *)addr1, (const char *)addr2);
		return 0;
  906ffb:	c020      	movi.n	a2, 0
  906ffd:	d10f      	retw.n
  906fff:	00005b        	extui	a0, a0, 16, 12
	}

	db_incorect_format();
  907002:	ff          	.byte 0xff
  907003:	75c72f        	bbci	a12, 21, 907036 <db_str_cmd+0x2e>
	return -1;
}
  907006:	d10f      	retw.n

00907008 <db_str_cmd>:
	db_incorect_format();
	return -1;
}

static int db_str_cmd(char *cmd, char *param1, char *param2, char *param3)
{
  907008:	6c100a        	entry	a1, 80
	unsigned long val;
	unsigned long addr;
	char val_str[20];
	char addr_str[20];

	if ((A_STRLEN(param2) > 0) &&
  90700b:	186915        	l32r	a8, 8e1460 <_bss_end+0x3ce550>
  90700e:	da40      	mov.n	a10, a4
  907010:	288266        	l32i	a8, a8, 0x198
  907013:	0b8000        	callx8	a8
  907016:	6ba102        	bgei	a10, 1, 90701c <db_str_cmd+0x14>
  907019:	6000a4        	j	9070c1 <db_str_cmd+0xb9>
	    (db_ascii_to_hex(param1, &addr) != -1) &&
  90701c:	da30      	mov.n	a10, a3
  90701e:	2b1c28        	addi	a11, a1, 40
  907021:	5bff7c        	call8	906e14 <db_ascii_to_hex>
	unsigned long val;
	unsigned long addr;
	char val_str[20];
	char addr_str[20];

	if ((A_STRLEN(param2) > 0) &&
  907024:	69a002        	bnei	a10, -1, 90702a <db_str_cmd+0x22>
  907027:	600096        	j	9070c1 <db_str_cmd+0xb9>
	    (db_ascii_to_hex(param1, &addr) != -1) &&
	    (db_ascii_to_hex(param2, &val) != -1))
  90702a:	da40      	mov.n	a10, a4
  90702c:	2b1c2c        	addi	a11, a1, 44
  90702f:	5bff79        	call8	906e14 <db_ascii_to_hex>
	unsigned long addr;
	char val_str[20];
	char addr_str[20];

	if ((A_STRLEN(param2) > 0) &&
	    (db_ascii_to_hex(param1, &addr) != -1) &&
  907032:	69a002        	bnei	a10, -1, 907038 <db_str_cmd+0x30>
  907035:	600088        	j	9070c1 <db_str_cmd+0xb9>
	    (db_ascii_to_hex(param2, &val) != -1))
	{
		if (strcmp(cmd, "STR") == 0)
  907038:	1b69a1        	l32r	a11, 8e16bc <athos_indirection_table_install+0x148>
  90703b:	da20      	mov.n	a10, a2
  90703d:	5b7d48        	call8	8e6560 <strcmp>
  907040:	cda1      	bnez.n	a10, 907055 <db_str_cmd+0x4d>
		{
			addr &= 0xfffffffc;
  907042:	821a      	l32i.n	a2, a1, 40
  907044:	c73c      	movi.n	a3, -4
  907046:	023201        	and	a2, a3, a2
			iowrite32(addr, val);
  907049:	831b      	l32i.n	a3, a1, 44
	    (db_ascii_to_hex(param1, &addr) != -1) &&
	    (db_ascii_to_hex(param2, &val) != -1))
	{
		if (strcmp(cmd, "STR") == 0)
		{
			addr &= 0xfffffffc;
  90704b:	921a      	s32i.n	a2, a1, 40
	*(volatile uint16_t *) addr = b;
}

static inline void iowrite32(volatile uint32_t addr, const uint32_t b)
{
	*(volatile uint32_t *) addr = b;
  90704d:	0c0200        	memw
  907050:	9320      	s32i.n	a3, a2, 0
  907052:	600044        	j	90709a <db_str_cmd+0x92>
			iowrite32(addr, val);
		}

		else if (strcmp(cmd, "STRH") == 0)
  907055:	1b69a2        	l32r	a11, 8e16e0 <athos_indirection_table_install+0x16c>
  907058:	da20      	mov.n	a10, a2
  90705a:	5b7d41        	call8	8e6560 <strcmp>
  90705d:	cda3      	bnez.n	a10, 907074 <db_str_cmd+0x6c>
		{
			addr &= 0xfffffffe;
  90705f:	821a      	l32i.n	a2, a1, 40
  907061:	c73e      	movi.n	a3, -2
  907063:	023201        	and	a2, a3, a2
  907066:	231117        	l16ui	a3, a1, 46
  907069:	921a      	s32i.n	a2, a1, 40
	*(volatile uint8_t *) addr = b;
}

static inline void iowrite16(volatile uint32_t addr, const uint16_t b)
{
	*(volatile uint16_t *) addr = b;
  90706b:	0c0200        	memw
  90706e:	232500        	s16i	a3, a2, 0
  907071:	600025        	j	90709a <db_str_cmd+0x92>
			//*(volatile unsigned short *)(addr & 0xfffffffe) = (unsigned short)val;
			iowrite16(addr, val);
		}
		else if (strcmp(cmd, "STRB") == 0)
  907074:	1b69a3        	l32r	a11, 8e1700 <athos_indirection_table_install+0x18c>
  907077:	da20      	mov.n	a10, a2
  907079:	5b7d39        	call8	8e6560 <strcmp>
  90707c:	cdaa      	bnez.n	a10, 90709a <db_str_cmd+0x92>
		{
			if( addr & 0x00f00000 )
  90707e:	821a      	l32i.n	a2, a1, 40
  907080:	1369a4        	l32r	a3, 8e1710 <athos_indirection_table_install+0x19c>
  907083:	841b      	l32i.n	a4, a1, 44
  907085:	732003        	bnone	a2, a3, 90708c <db_str_cmd+0x84>
  907088:	600005        	j	907091 <db_str_cmd+0x89>
  90708b:	00c033        	excw
				iowrite8(addr, val);
			else
				iowrite8(addr^3, val);
  90708e:	032203        	xor	a2, a2, a3
  907091:	040447        	extui	a4, a4, 0, 8
	return *(const volatile uint32_t *) addr;
}

static inline void iowrite8(volatile uint32_t addr, const uint8_t b)
{
	*(volatile uint8_t *) addr = b;
  907094:	0c0200        	memw
  907097:	242400        	s8i	a4, a2, 0
			//*(volatile unsigned char *)addr = (unsigned char)val;
		}

		db_hex_to_ascii(val, val_str);
  90709a:	8a1b      	l32i.n	a10, a1, 44
  90709c:	2b1c14        	addi	a11, a1, 20
  90709f:	5bff77        	call8	906e7c <db_hex_to_ascii>
		db_hex_to_ascii(addr, addr_str);
  9070a2:	8a1a      	l32i.n	a10, a1, 40
  9070a4:	db10      	mov.n	a11, a1
  9070a6:	5bff75        	call8	906e7c <db_hex_to_ascii>

		A_PRINTF("%s : %s\n\r", addr_str, val_str);
  9070a9:	126915        	l32r	a2, 8e1500 <_bss_end+0x3ce5f0>
  9070ac:	1a69a5        	l32r	a10, 8e1740 <athos_indirection_table_install+0x1cc>
  9070af:	222212        	l32i	a2, a2, 72
  9070b2:	db10      	mov.n	a11, a1
  9070b4:	2c1c14        	addi	a12, a1, 20
  9070b7:	0b2000        	callx8	a2
		return 0;
  9070ba:	c020      	movi.n	a2, 0
  9070bc:	d10f      	retw.n
  9070be:	000000        	ill
	}

	db_incorect_format();
  9070c1:	5bff45        	call8	906dd8 <db_incorect_format>
	return -1;
  9070c4:	c72f      	movi.n	a2, -1
}
  9070c6:	d10f      	retw.n

009070c8 <db_ldr_cmd>:
	}
	return i;
}

static int db_ldr_cmd(char *cmd, char *param1, char *param2, char *param3)
{
  9070c8:	6c100a        	entry	a1, 80
	unsigned long val;
	unsigned long addr;
	char val_str[20];
	char addr_str[20];

	if (db_ascii_to_hex(param1, &addr) != -1)
  9070cb:	033a02        	or	a10, a3, a3
  9070ce:	2b1c28        	addi	a11, a1, 40
  9070d1:	5bff50        	call8	906e14 <db_ascii_to_hex>
  9070d4:	d3a0      	mov.n	a3, a10
  9070d6:	68a06b        	beqi	a10, -1, 907145 <db_ldr_cmd+0x7d>
	{
		if( addr == 0 )
  9070d9:	831a      	l32i.n	a3, a1, 40
  9070db:	cd31      	bnez.n	a3, 9070f0 <db_ldr_cmd+0x28>
		{
			A_PRINTF("Error! bad address 0x%08x.\n\r",
  9070dd:	126915        	l32r	a2, 8e1534 <_bss_end+0x3ce624>
  9070e0:	1a69a6        	l32r	a10, 8e1778 <athos_indirection_table_install+0x204>
  9070e3:	222212        	l32i	a2, a2, 72
  9070e6:	033b02        	or	a11, a3, a3
  9070e9:	0b2000        	callx8	a2
				 (unsigned long)addr);
			return -1;
  9070ec:	c72f      	movi.n	a2, -1
  9070ee:	d10f      	retw.n
		}
		if (strcmp(cmd, "LDR") == 0)
  9070f0:	1b69a7        	l32r	a11, 8e178c <athos_indirection_table_install+0x218>
  9070f3:	da20      	mov.n	a10, a2
  9070f5:	5b7d1a        	call8	8e6560 <strcmp>
  9070f8:	ccad      	bnez.n	a10, 907109 <db_ldr_cmd+0x41>
		{
			addr &= 0xfffffffc;
  9070fa:	c72c      	movi.n	a2, -4
  9070fc:	023301        	and	a3, a3, a2
  9070ff:	931a      	s32i.n	a3, a1, 40
	return *(const volatile uint16_t *) addr;
}

static inline uint32_t ioread32(const volatile uint32_t addr)
{
	return *(const volatile uint32_t *) addr;
  907101:	0c0200        	memw
  907104:	8430      	l32i.n	a4, a3, 0
  907106:	600017        	j	907121 <db_ldr_cmd+0x59>
			//val = *(unsigned long *)addr;

			val = ioread32(addr);
		}
		else if (strcmp(cmd, "LDRH") == 0)
  907109:	1b69a8        	l32r	a11, 8e17ac <athos_indirection_table_install+0x238>
  90710c:	022a02        	or	a10, a2, a2
  90710f:	5b7d14        	call8	8e6560 <strcmp>
  907112:	ccab      	bnez.n	a10, 907121 <db_ldr_cmd+0x59>
		{
			addr &= 0xfffffffe;
  907114:	c72e      	movi.n	a2, -2
  907116:	023301        	and	a3, a3, a2
	return *(const volatile uint8_t *) addr;
}

static inline uint16_t ioread16(const volatile uint32_t addr)
{
	return *(const volatile uint16_t *) addr;
  907119:	243100        	l16ui	a4, a3, 0
  90711c:	931a      	s32i.n	a3, a1, 40
  90711e:	04044f        	extui	a4, a4, 0, 16
		}
		else if (strcmp(cmd, "LDRB") == 0)
		{
		}

		db_hex_to_ascii(val, val_str);
  907121:	2b1c14        	addi	a11, a1, 20
  907124:	da40      	mov.n	a10, a4
  907126:	5bff55        	call8	906e7c <db_hex_to_ascii>
		db_hex_to_ascii(addr, addr_str);
  907129:	8a1a      	l32i.n	a10, a1, 40
  90712b:	db10      	mov.n	a11, a1
  90712d:	5bff53        	call8	906e7c <db_hex_to_ascii>

		A_PRINTF("%s : %s\n\r", addr_str, val_str);
  907130:	126915        	l32r	a2, 8e1584 <athos_indirection_table_install+0x10>
  907133:	1a69a5        	l32r	a10, 8e17c8 <athos_indirection_table_install+0x254>
  907136:	222212        	l32i	a2, a2, 72
  907139:	db10      	mov.n	a11, a1
  90713b:	2c1c14        	addi	a12, a1, 20
  90713e:	0b2000        	callx8	a2
		return 0;
  907141:	c020      	movi.n	a2, 0
  907143:	d10f      	retw.n
	}

	db_incorect_format();
  907145:	5bff24        	call8	906dd8 <db_incorect_format>
  907148:	63ffa0        	j	9070ec <db_ldr_cmd+0x24>
	...

0090714c <db_intr_cmd>:
}

uint32_t delay = 0;

static int db_intr_cmd(char *cmd, char *param1, char *param2, char *param3)
{
  90714c:	6c1006        	entry	a1, 48
#if SYSTEM_MODULE_INTR
	uint32_t pending_intrs;

	if(strcmp(param1, "read") == 0 )
  90714f:	1b69a9        	l32r	a11, 8e17f4 <athos_indirection_table_install+0x280>
  907152:	033a02        	or	a10, a3, a3
  907155:	5b7d02        	call8	8e6560 <strcmp>
  907158:	65a024        	bnez	a10, 907180 <db_intr_cmd+0x34>
	{
		{
			/* Update snapshot of pending interrupts */

			pending_intrs = A_INTR_GET_INTRPENDING();
  90715b:	146915        	l32r	a4, 8e15b0 <athos_indirection_table_install+0x3c>
  90715e:	2a424f        	l32i	a10, a4, 0x13c
  907161:	0ba000        	callx8	a10
  907164:	d2a0      	mov.n	a2, a10

			A_PRINTF("intr mask [0x%08x]\n\r", xthal_get_intenable());
  907166:	234212        	l32i	a3, a4, 72
  907169:	5b7e05        	call8	8e6980 <xthal_get_intenable>
  90716c:	dba0      	mov.n	a11, a10
  90716e:	1a69aa        	l32r	a10, 8e1818 <athos_indirection_table_install+0x2a4>
  907171:	0b3000        	callx8	a3
			A_PRINTF("intr on [0x%08x]\n\r", pending_intrs);
  907174:	1a69ab        	l32r	a10, 8e1820 <athos_indirection_table_install+0x2ac>
  907177:	234212        	l32i	a3, a4, 72
  90717a:	db20      	mov.n	a11, a2
  90717c:	600089        	j	907209 <db_intr_cmd+0xbd>
  90717f:	001b69        	excw
		}
	}
	else if (strcmp(param1, "timer") == 0 )
  907182:	acda      	add.n	a10, a13, a12
  907184:	305b7c        	excw
  907187:	f6          	.byte 0xf6
  907188:	65a084        	bnez	a10, 907210 <db_intr_cmd+0xc4>
	{
		uint32_t data = 0;

		if (strcmp(param2, "on") == 0 )
  90718b:	1b69ad        	l32r	a11, 8e1840 <athos_indirection_table_install+0x2cc>
			A_PRINTF("intr on [0x%08x]\n\r", pending_intrs);
		}
	}
	else if (strcmp(param1, "timer") == 0 )
	{
		uint32_t data = 0;
  90718e:	9a10      	s32i.n	a10, a1, 0

		if (strcmp(param2, "on") == 0 )
  907190:	da40      	mov.n	a10, a4
  907192:	5b7cf3        	call8	8e6560 <strcmp>
  907195:	65a013        	bnez	a10, 9071ac <db_intr_cmd+0x60>
		{
			/* TODO: this part is probably dead. */
			pending_intrs = A_INTR_GET_INTRENABLE()|CMNOS_IMASK_XTTIMER;
  907198:	146915        	l32r	a4, 8e15ec <athos_indirection_table_install+0x78>
  90719b:	230a02        	movi	a3, 2
  90719e:	2a424d        	l32i	a10, a4, 0x134
  9071a1:	0ba000        	callx8	a10
  9071a4:	03a302        	or	a3, a10, a3
  9071a7:	600019        	j	9071c4 <db_intr_cmd+0x78>
  9071aa:	00001b        	sra	a0, a0
			A_INTR_SET_INTRENABLE(pending_intrs);
			A_PRINTF("- intr [0x%08x]\n\r", pending_intrs);
		}
		else if ( strcmp(param2, "off") == 0 )
  9071ad:	69afda        	bnei	a10, 0x100, 90718b <db_intr_cmd+0x3f>
  9071b0:	405b7c        	excw
  9071b3:	eb          	.byte 0xeb
  9071b4:	cea5      	bnez.n	a10, 9071dd <db_intr_cmd+0x91>
		{
			pending_intrs = A_INTR_GET_INTRENABLE()&(~CMNOS_IMASK_XTTIMER);
  9071b6:	146915        	l32r	a4, 8e160c <athos_indirection_table_install+0x98>
  9071b9:	c73d      	movi.n	a3, -3
  9071bb:	2a424d        	l32i	a10, a4, 0x134
  9071be:	0ba000        	callx8	a10
  9071c1:	03a301        	and	a3, a10, a3
			A_INTR_SET_INTRENABLE(pending_intrs);
  9071c4:	22424e        	l32i	a2, a4, 0x138
  9071c7:	033a02        	or	a10, a3, a3
  9071ca:	0b2000        	callx8	a2
			A_PRINTF("- intr [0x%08x]\n\r", pending_intrs);
  9071cd:	1a69ae        	l32r	a10, 8e1888 <athos_indirection_table_install+0x314>
  9071d0:	244212        	l32i	a4, a4, 72
  9071d3:	db30      	mov.n	a11, a3
  9071d5:	0b4000        	callx8	a4
  9071d8:	600049        	j	907225 <db_intr_cmd+0xd9>
  9071db:	0000da        	excw
            
		}
		else if( db_ascii_to_hex(param2, &data)==0 )
  9071de:	40db10        	excw
  9071e1:	5bff0c        	call8	906e14 <db_ascii_to_hex>
  9071e4:	cfad      	bnez.n	a10, 907225 <db_intr_cmd+0xd9>
		{
			if( data>=0 && data <=10 )
  9071e6:	8410      	l32i.n	a4, a1, 0
  9071e8:	c02a      	movi.n	a2, 10
  9071ea:	1369b0        	l32r	a3, 8e18ac <athos_indirection_table_install+0x338>
  9071ed:	742304        	bltu	a2, a4, 9071f5 <db_intr_cmd+0xa9>
				delay = data;
  9071f0:	9430      	s32i.n	a4, a3, 0
  9071f2:	600004        	j	9071fa <db_intr_cmd+0xae>
			else
				delay = 3;
  9071f5:	c023      	movi.n	a2, 3
  9071f7:	223600        	s32i	a2, a3, 0
            
			A_PRINTF("==>set cb to %d seconds \n\r", delay);
  9071fa:	126915        	l32r	a2, 8e1650 <athos_indirection_table_install+0xdc>
  9071fd:	1a69b1        	l32r	a10, 8e18c4 <athos_indirection_table_install+0x350>
  907200:	232212        	l32i	a3, a2, 72
  907203:	1269b0        	l32r	a2, 8e18c4 <athos_indirection_table_install+0x350>
  907206:	2b2200        	l32i	a11, a2, 0
  907209:	0b3000        	callx8	a3
  90720c:	600015        	j	907225 <db_intr_cmd+0xd9>
  90720f:	001369        	excw
		}

	}
	else
	{
		A_PRINTF("\tintr read - read the interrenable status\n\r");
  907212:	151a69        	l32r	a5, 8cdbb8 <_bss_end+0x3baca8>
  907215:	b222      	addi.n	a2, a2, 2
  907217:	32120b        	excw
  90721a:	20001a        	l8ui	a0, a0, 26
		A_PRINTF("\tintr timer on/off/tick - timer attach on/off/ticks\n\r");
  90721d:	69b322        	bnei	a11, 3, 907243 <db_wdt_cmd+0x17>
  907220:	32120b        	excw
  907223:	2000c0        	l8ui	a0, a0, 192

	}

#endif //#if SYSTEM_MODULE_INTR
	return 0;
}
  907226:	20d10f        	l16ui	a0, a13, 30
  907229:	000000        	ill

0090722c <db_wdt_cmd>:
    extern htc_handle_t htc_handle;
    HTC_Ready(htc_handle);
}

static int db_wdt_cmd(char *cmd, char *param1, char *param2, char *param3)
{
  90722c:	6c1008        	entry	a1, 64
        if ( strcmp(param1, "rst") == 0 )
  90722f:	1b69b4        	l32r	a11, 8e1900 <athos_indirection_table_install+0x38c>
  907232:	033a02        	or	a10, a3, a3
  907235:	5b7cca        	call8	8e6560 <strcmp>
  907238:	cda1      	bnez.n	a10, 90724d <db_wdt_cmd+0x21>
        {
		A_PRINTF(" reseting...\n\n\r");
  90723a:	136915        	l32r	a3, 8e1690 <athos_indirection_table_install+0x11c>
  90723d:	1a69b5        	l32r	a10, 8e1914 <athos_indirection_table_install+0x3a0>
  907240:	243212        	l32i	a4, a3, 72
  907243:	0b4000        	callx8	a4
		A_WDT_RESET();
  907246:	22325d        	l32i	a2, a3, 0x174
  907249:	600010        	j	90725d <db_wdt_cmd+0x31>
  90724c:	001b69        	excw
        }
        else if( strcmp(param1, "on") == 0 )
  90724f:	adda      	add.n	a10, a13, a13
  907251:	305b7c        	excw
  907254:	c3cc      	movi.n	a12, 60
  907256:	ab12      	add.n	a2, a1, a11
        {
		A_WDT_ENABLE();
  907258:	691522        	bnei	a1, 5, 90727e <db_wdt_cmd+0x52>
  90725b:	22590b        	l16si	a2, a5, 22
  90725e:	2000d1        	l8ui	a0, a0, 209
  907261:	0f0000        	callx12	a0
        }
        else if (strcmp(param1, "off") == 0 )
  907264:	1b69af        	l32r	a11, 8e1920 <athos_indirection_table_install+0x3ac>
  907267:	da30      	mov.n	a10, a3
  907269:	5b7cbd        	call8	8e6560 <strcmp>
  90726c:	cca8      	bnez.n	a10, 907278 <db_wdt_cmd+0x4c>
        {
		A_WDT_DISABLE();
  90726e:	126915        	l32r	a2, 8e16c4 <athos_indirection_table_install+0x150>
  907271:	22225a        	l32i	a2, a2, 0x168
  907274:	63ffe5        	j	90725d <db_wdt_cmd+0x31>
  907277:	001b69        	excw
        }
        else if ( strcmp(param1, "boot") == 0 )
  90727a:	b6da      	addi.n	a10, a13, 6
  90727c:	305b7c        	excw
  90727f:	b8ce      	addi.n	a14, a12, 8
  907281:	a413      	add.n	a3, a1, a4
        {
		A_PRINTF("Last BOOT is ");
  907283:	69151a        	bnei	a1, 5, 9072a1 <db_wdt_cmd+0x75>
  907286:	69b724        	bnei	a11, 7, 9072ae <db_wdt_cmd+0x82>
  907289:	32120b        	excw
  90728c:	40002a        	excw
		if (ENUM_WDT_BOOT == A_WDT_LASTBOOT() )
  90728f:	325e0b        	excw
  907292:	a000      	add.n	a0, a0, a0
			A_PRINTF("wdt");
  907294:	233212        	l32i	a3, a3, 72
		A_WDT_DISABLE();
        }
        else if ( strcmp(param1, "boot") == 0 )
        {
		A_PRINTF("Last BOOT is ");
		if (ENUM_WDT_BOOT == A_WDT_LASTBOOT() )
  907297:	69a105        	bnei	a10, 1, 9072a0 <db_wdt_cmd+0x74>
			A_PRINTF("wdt");
  90729a:	1a69b8        	l32r	a10, 8e197c <athos_indirection_table_install+0x408>
  90729d:	600002        	j	9072a3 <db_wdt_cmd+0x77>
		else
			A_PRINTF("normal boot");
  9072a0:	1a69b9        	l32r	a10, 8e1984 <athos_indirection_table_install+0x410>
  9072a3:	0b3000        	callx8	a3
  9072a6:	d10f      	retw.n
        }
        else if (strcmp(param1, "loop") == 0 )
  9072a8:	1b69ba        	l32r	a11, 8e1990 <athos_indirection_table_install+0x41c>
  9072ab:	da30      	mov.n	a10, a3
  9072ad:	5b7cac        	call8	8e6560 <strcmp>
  9072b0:	ceac      	bnez.n	a10, 9072e0 <db_wdt_cmd+0xb4>
        {
		T_WDT_CMD wdt_cmd;
		uint32_t time_offset;
		A_PRINTF(" doing the wdt reseting...");
  9072b2:	136915        	l32r	a3, 8e1708 <athos_indirection_table_install+0x194>
  9072b5:	1a69bb        	l32r	a10, 8e19a4 <athos_indirection_table_install+0x430>
  9072b8:	253212        	l32i	a5, a3, 72
  9072bb:	0b5000        	callx8	a5

		if( db_ascii_to_hex(param2, &time_offset)!=0 )
  9072be:	da40      	mov.n	a10, a4
  9072c0:	2b1c10        	addi	a11, a1, 16
  9072c3:	5bfed4        	call8	906e14 <db_ascii_to_hex>
		{
			if( time_offset < 0 || time_offset >0xffffffff )
				time_offset = 0xffffff;
		}
		A_PRINTF(" (wdt tick: 0x%08x...\n\n\r", time_offset);
  9072c6:	2b1204        	l32i	a11, a1, 16
  9072c9:	243212        	l32i	a4, a3, 72
  9072cc:	1a69bc        	l32r	a10, 8e19bc <athos_indirection_table_install+0x448>
  9072cf:	0b4000        	callx8	a4
		wdt_cmd.cmd = WDT_TIMEOUT;
		wdt_cmd.timeout = time_offset;

		A_WDT_SET(wdt_cmd);
  9072d2:	8b14      	l32i.n	a11, a1, 16
  9072d4:	23325b        	l32i	a3, a3, 0x16c
  9072d7:	c0a1      	movi.n	a10, 1
  9072d9:	0b3000        	callx8	a3
  9072dc:	63fffc        	j	9072dc <db_wdt_cmd+0xb0>
  9072df:	001b69        	excw
		while(1) ;
        }
        else if (strcmp(param1, "noloop") == 0 )
  9072e2:	bdda      	addi.n	a10, a13, 13
  9072e4:	305b7c        	excw
  9072e7:	9ece      	s32i.n	a14, a12, 56
  9072e9:	ad13      	add.n	a3, a1, a13
        {
		T_WDT_CMD wdt_cmd;
		uint32_t time_offset;
		A_PRINTF(" doing the wdt reseting...");
  9072eb:	69151a        	bnei	a1, 5, 907309 <db_wdt_cmd+0xdd>
  9072ee:	69bb24        	bnei	a11, 16, 907316 <db_wdt_cmd+0xea>
  9072f1:	32120b        	excw
  9072f4:	40002b        	excw

		if( db_ascii_to_hex(param3, &time_offset)!=0 )
  9072f7:	1c10da        	l32r	a12, 8cb660 <_bss_end+0x3b8750>
  9072fa:	505bfe        	call0	91e2f4 <_etext+0xf1f7>
  9072fd:	c62b      	movi.n	a2, -21
		{
			if( time_offset < 0 || time_offset >0xffffffff )
				time_offset = 0xffffff;
		}
		A_PRINTF(" (wdt tick: 0x%08x...\n\n\r", time_offset);
  9072ff:	120424        	l32r	a2, 8c8390 <_bss_end+0x3b5480>
  907302:	32121a        	excw
  907305:	69bc0b        	bnei	a11, 32, 907314 <db_wdt_cmd+0xe8>
  907308:	40008b        	excw

		wdt_cmd.cmd = WDT_TIMEOUT;
		wdt_cmd.timeout = time_offset;

		A_WDT_SET(wdt_cmd);
  90730b:	142332        	l32r	a4, 8cffd4 <_bss_end+0x3bd0c4>
  90730e:	5bc0a1        	call8	8f7594 <memset+0x1074c>
  907311:	0b3000        	callx8	a3
  907314:	d10f      	retw.n
  907316:	000000        	ill
        }
        else if( strcmp(param1, "event") == 0 )
  907319:	1b69be        	l32r	a11, 8e1a14 <athos_indirection_table_install+0x4a0>
  90731c:	da30      	mov.n	a10, a3
  90731e:	5b7c90        	call8	8e6560 <strcmp>
  907321:	65a04f        	bnez	a10, 907374 <db_wdt_cmd+0x148>

#include <adf_os_io_pvt.h>

static inline uint8_t ioread8(const volatile uint32_t addr)
{
	return *(const volatile uint8_t *) addr;
  907324:	13695c        	l32r	a3, 8e1894 <athos_indirection_table_install+0x320>
        {
		uint32_t event= 0x00123400;

		/* disable ep3 intr */
		iowrite8_usb(0x17, ioread8_usb(0x17)|0xc0);
  907327:	240ac0        	movi	a4, 192
  90732a:	223000        	l8ui	a2, a3, 0
  90732d:	18695f        	l32r	a8, 8e18ac <athos_indirection_table_install+0x338>
  907330:	020247        	extui	a2, a2, 0, 8
  907333:	042202        	or	a2, a2, a4
	return *(const volatile uint32_t *) addr;
}

static inline void iowrite8(volatile uint32_t addr, const uint8_t b)
{
	*(volatile uint8_t *) addr = b;
  907336:	0c0200        	memw
  907339:	223400        	s8i	a2, a3, 0
	*(volatile uint16_t *) addr = b;
}

static inline void iowrite32(volatile uint32_t addr, const uint32_t b)
{
	*(volatile uint32_t *) addr = b;
  90733c:	12693c        	l32r	a2, 8e182c <athos_indirection_table_install+0x2b8>
  90733f:	c04f      	movi.n	a4, 15
  907341:	0c0200        	memw
  907344:	9420      	s32i.n	a4, a2, 0
  907346:	1469bf        	l32r	a4, 8e1a44 <athos_indirection_table_install+0x4d0>
  907349:	12695d        	l32r	a2, 8e18c0 <athos_indirection_table_install+0x34c>
  90734c:	0c0200        	memw
  90734f:	9420      	s32i.n	a4, a2, 0

#include <adf_os_io_pvt.h>

static inline uint8_t ioread8(const volatile uint32_t addr)
{
	return *(const volatile uint8_t *) addr;
  907351:	228000        	l8ui	a2, a8, 0

		/* ZM_EP3_DATA_REG = event; */
		iowrite32_usb(0xF8, event);

		/* tx done */
		iowrite8_usb(0xAE, ioread8_usb(0xAE) | 0x08);
  907354:	c048      	movi.n	a4, 8
  907356:	020247        	extui	a2, a2, 0, 8
  907359:	042202        	or	a2, a2, a4
	return *(const volatile uint32_t *) addr;
}

static inline void iowrite8(volatile uint32_t addr, const uint8_t b)
{
	*(volatile uint8_t *) addr = b;
  90735c:	0c0200        	memw
  90735f:	228400        	s8i	a2, a8, 0

#include <adf_os_io_pvt.h>

static inline uint8_t ioread8(const volatile uint32_t addr)
{
	return *(const volatile uint8_t *) addr;
  907362:	223000        	l8ui	a2, a3, 0

		/* enable ep3 intr */
		iowrite8_usb(0x17, ioread8_usb(0x17) & 0xbf);
  907365:	24fabf        	movi	a4, -65
  907368:	020247        	extui	a2, a2, 0, 8
  90736b:	042201        	and	a2, a2, a4
	return *(const volatile uint32_t *) addr;
}

static inline void iowrite8(volatile uint32_t addr, const uint8_t b)
{
	*(volatile uint8_t *) addr = b;
  90736e:	0c0200        	memw
  907371:	223400        	s8i	a2, a3, 0
        }
}
  907374:	d10f      	retw.n
	...

00907378 <db_usb_cmd>:
#endif //#if SYSTEM_MODULE_INTR
	return 0;
}

static int db_usb_cmd(char *cmd, char *param1, char *param2, char *param3)
{
  907378:	6c1004        	entry	a1, 32
	A_PRINTF("THIS IS USB COMMAND\n\r");
  90737b:	126915        	l32r	a2, 8e17d0 <athos_indirection_table_install+0x25c>
  90737e:	1a69c0        	l32r	a10, 8e1a80 <athos_indirection_table_install+0x50c>
  907381:	282212        	l32i	a8, a2, 72
  907384:	0b8000        	callx8	a8

	if( strcmp(param1, "que") == 0 )
  907387:	1b69c1        	l32r	a11, 8e1a8c <athos_indirection_table_install+0x518>
  90738a:	033a02        	or	a10, a3, a3
  90738d:	5b7c74        	call8	8e6560 <strcmp>
  907390:	cca4      	bnez.n	a10, 907398 <db_usb_cmd+0x20>
	{
		HIFusb_DescTraceDump();
  907392:	5b7115        	call8	8e37e8 <HIFusb_DescTraceDump>
  907395:	600011        	j	9073aa <db_usb_cmd+0x32>
	}
	else
	{
		A_PRINTF("\tusb que - dump descriptor queue\n\r");
  907398:	282212        	l32i	a8, a2, 72
  90739b:	1a69c2        	l32r	a10, 8e1aa4 <athos_indirection_table_install+0x530>
  90739e:	0b8000        	callx8	a8
		A_PRINTF("\tusb fw on/off - enable/disable write fw download to ram\n\r");
  9073a1:	1a69c3        	l32r	a10, 8e1ab0 <athos_indirection_table_install+0x53c>
  9073a4:	222212        	l32i	a2, a2, 72
  9073a7:	0b2000        	callx8	a2

	}
	return 0;
}
  9073aa:	c020      	movi.n	a2, 0
  9073ac:	d10f      	retw.n
	...

009073b0 <db_info_cmd>:
		clk_change(clk, ratio, baud);
	}
}

static int db_info_cmd(char *cmd, char *param1, char *param2, char *param3)
{
  9073b0:	6c1004        	entry	a1, 32
#if 1

	if(strcmp(param1, "ram") == 0 )
  9073b3:	1b69c4        	l32r	a11, 8e1ac4 <athos_indirection_table_install+0x550>
  9073b6:	033a02        	or	a10, a3, a3
  9073b9:	5b7c69        	call8	8e6560 <strcmp>
  9073bc:	65a00d        	bnez	a10, 9073cd <db_info_cmd+0x1d>
	{
		A_ALLOCRAM_DEBUG();
  9073bf:	186915        	l32r	a8, 8e1814 <athos_indirection_table_install+0x2a0>
  9073c2:	288253        	l32i	a8, a8, 0x14c
  9073c5:	0b8000        	callx8	a8
  9073c8:	600004        	j	9073d0 <db_info_cmd+0x20>
  9073cb:	00005b        	extui	a0, a0, 16, 12
	* is dead too */
	else if(strcmp(param1, "cpu") == 0)
		zfPrintCpuUtilization();
#endif
	else   // defalut dump
		HIFusb_DescTraceDump();
  9073ce:	7106c0        	bbci	a0, 1, 907392 <db_usb_cmd+0x1a>
		A_PRINTF("read 0x%08x (0x%08x) use %d clocks\n\r", data3, data, ccount2-ccount1);

	}
#endif
	return 1;
}
  9073d1:	21d10f        	l16ui	a1, a13, 30

009073d4 <zf_debug_task>:
	gvLen = 0;
	pressed_time = 0;
}

static void zf_debug_task(void)
{
  9073d4:	6c1006        	entry	a1, 48
	int i;
	uint8_t ch;

	if ((zm_get_char(&ch)) == 0)
  9073d7:	136915        	l32r	a3, 8e182c <athos_indirection_table_install+0x2b8>
  9073da:	da10      	mov.n	a10, a1
  9073dc:	223215        	l32i	a2, a3, 84
  9073df:	0b2000        	callx8	a2
  9073e2:	64a250        	beqz	a10, 907636 <zf_debug_task+0x262>
	{
		return;
	}

	if (db_get_cmd_line(ch, raw_cmd, &gvLen) == 0)
  9073e5:	2b1000        	l8ui	a11, a1, 0

static uint16_t db_get_cmd_line(uint8_t ch, char *cmd_line, uint16_t *i)
{
	int cmd_buf_loc;

	switch (ch)
  9073e8:	69b802        	bnei	a11, 8, 9073ee <zf_debug_task+0x1a>
  9073eb:	6000f6        	j	9074e5 <zf_debug_task+0x111>
  9073ee:	c028      	movi.n	a2, 8
  9073f0:	7b2306        	bltu	a2, a11, 9073fa <zf_debug_task+0x26>
  9073f3:	64b23f        	beqz	a11, 907636 <zf_debug_task+0x262>
  9073f6:	60010a        	j	907504 <zf_debug_task+0x130>
  9073f9:	00c02d        	excw
  9073fc:	72b179        	beq	a11, a2, 907479 <zf_debug_task+0xa5>
  9073ff:	c52c      	movi.n	a2, 92
  907401:	72b102        	beq	a11, a2, 907407 <zf_debug_task+0x33>
  907404:	6000fc        	j	907504 <zf_debug_task+0x130>
	{
	case '\\' : /* Last command */
		pressed_time++;
  907407:	126993        	l32r	a2, 8e1a54 <athos_indirection_table_install+0x4e0>
  90740a:	8320      	l32i.n	a3, a2, 0
  90740c:	b133      	addi.n	a3, a3, 1
		if (pressed_time >= COMMAND_BUFFER_SIZE)
  90740e:	6b3602        	bgei	a3, 6, 907414 <zf_debug_task+0x40>
	int cmd_buf_loc;

	switch (ch)
	{
	case '\\' : /* Last command */
		pressed_time++;
  907411:	232600        	s32i	a3, a2, 0
		if (pressed_time >= COMMAND_BUFFER_SIZE)
		{
			pressed_time--;
		}
		cmd_buf_loc = cmd_buf_ptr - pressed_time;
  907414:	136990        	l32r	a3, 8e1a54 <athos_indirection_table_install+0x4e0>
  907417:	8220      	l32i.n	a2, a2, 0
  907419:	8a30      	l32i.n	a10, a3, 0
  90741b:	02aa0c        	sub	a10, a10, a2
		if (cmd_buf_loc < 0)
  90741e:	67a00e        	bgez	a10, 907430 <zf_debug_task+0x5c>
		{
			if (cmd_buf_full == TRUE)
  907421:	126991        	l32r	a2, 8e1a68 <athos_indirection_table_install+0x4f4>
  907424:	8320      	l32i.n	a3, a2, 0
			{
				cmd_buf_loc += COMMAND_BUFFER_SIZE;
  907426:	b6a2      	addi.n	a2, a10, 6
  907428:	b033      	addi.n	a3, a3, -1
  90742a:	2a0a00        	movi	a10, 0
  90742d:	032a38        	moveqz	a10, a2, a3
			{
				cmd_buf_loc = 0;
			}
		}

		if (A_STRLEN(cmd_buffer[cmd_buf_loc]) != 0)
  907430:	1269c5        	l32r	a2, 8e1b44 <athos_indirection_table_install+0x5d0>
  907433:	0aaa0a        	addx4	a10, a10, a10
  907436:	02a30b        	addx8	a3, a10, a2
  907439:	126915        	l32r	a2, 8e1890 <athos_indirection_table_install+0x31c>
  90743c:	033a02        	or	a10, a3, a3
  90743f:	242266        	l32i	a4, a2, 0x198
  907442:	0b4000        	callx8	a4
  907445:	64a1ed        	beqz	a10, 907636 <zf_debug_task+0x262>
		{
			A_STRCPY(cmd_line, cmd_buffer[cmd_buf_loc]);
  907448:	1469c6        	l32r	a4, 8e1b60 <athos_indirection_table_install+0x5ec>
  90744b:	252264        	l32i	a5, a2, 0x190
  90744e:	db30      	mov.n	a11, a3
  907450:	da40      	mov.n	a10, a4
  907452:	0b5000        	callx8	a5
			*i = A_STRLEN(cmd_buffer[cmd_buf_loc]);
  907455:	252266        	l32i	a5, a2, 0x198
  907458:	da30      	mov.n	a10, a3
  90745a:	0b5000        	callx8	a5
  90745d:	136992        	l32r	a3, 8e1aa8 <athos_indirection_table_install+0x534>
  907460:	2a3500        	s16i	a10, a3, 0
			A_PRINTF("\r>");
  907463:	232212        	l32i	a3, a2, 72
  907466:	1a69c7        	l32r	a10, 8e1b84 <athos_indirection_table_install+0x610>
  907469:	0b3000        	callx8	a3
			A_PRINTF("%s", cmd_line);
  90746c:	1a69c8        	l32r	a10, 8e1b8c <athos_indirection_table_install+0x618>
  90746f:	222212        	l32i	a2, a2, 72
  907472:	db40      	mov.n	a11, a4
  907474:	6000d1        	j	907549 <zf_debug_task+0x175>
  907477:	000012        	srai	a0, a0, 0
		}
		break;
	case 13 : /* Return */
		pressed_time = 0;
  90747a:	6993c0        	bnei	a9, 3, 90743e <zf_debug_task+0x6a>
  90747d:	509520        	call0	92c900 <_etext+0x1d803>
		cmd_line[*i] = 0;
  907480:	126992        	l32r	a2, 8e1ac8 <athos_indirection_table_install+0x554>
  907483:	1469c6        	l32r	a4, 8e1b9c <athos_indirection_table_install+0x628>
  907486:	262100        	l16ui	a6, a2, 0
		A_PRINTF("\n\r");
  907489:	1a69a0        	l32r	a10, 8e1b0c <athos_indirection_table_install+0x598>
			A_PRINTF("%s", cmd_line);
		}
		break;
	case 13 : /* Return */
		pressed_time = 0;
		cmd_line[*i] = 0;
  90748c:	064608        	add	a6, a4, a6
  90748f:	256400        	s8i	a5, a6, 0
		A_PRINTF("\n\r");
  907492:	253212        	l32i	a5, a3, 72
  907495:	0b5000        	callx8	a5
		if (*i != 0)
  907498:	222100        	l16ui	a2, a2, 0
  90749b:	ca2d      	beqz.n	a2, 9074cc <zf_debug_task+0xf8>
		{
			//Filter duplicated string in command history
			if (strcmp(cmd_buffer[(cmd_buf_ptr==0)?(COMMAND_BUFFER_SIZE-1):(cmd_buf_ptr-1)], cmd_line) != 0)
  90749d:	166990        	l32r	a6, 8e1ae0 <athos_indirection_table_install+0x56c>
  9074a0:	c0a5      	movi.n	a10, 5
  9074a2:	8260      	l32i.n	a2, a6, 0
  9074a4:	db40      	mov.n	a11, a4
  9074a6:	252cff        	addi	a5, a2, -1
  9074a9:	025a39        	movnez	a10, a5, a2
  9074ac:	1569c5        	l32r	a5, 8e1bc0 <athos_indirection_table_install+0x64c>
  9074af:	0aaa0a        	addx4	a10, a10, a10
  9074b2:	05aa0b        	addx8	a10, a10, a5
  9074b5:	5b7c2a        	call8	8e6560 <strcmp>
  9074b8:	c9a0      	beqz.n	a10, 9074cc <zf_debug_task+0xf8>
			{
				A_STRCPY(cmd_buffer[cmd_buf_ptr++], cmd_line);
  9074ba:	b127      	addi.n	a7, a2, 1
  9074bc:	022a0a        	addx4	a10, a2, a2
  9074bf:	233264        	l32i	a3, a3, 0x190
  9074c2:	9760      	s32i.n	a7, a6, 0
  9074c4:	05aa0b        	addx8	a10, a10, a5
  9074c7:	db40      	mov.n	a11, a4
  9074c9:	0b3000        	callx8	a3
			}
		}
		if (cmd_buf_ptr >= COMMAND_BUFFER_SIZE)
  9074cc:	126990        	l32r	a2, 8e1b0c <athos_indirection_table_install+0x598>
  9074cf:	8320      	l32i.n	a3, a2, 0
  9074d1:	6b3602        	bgei	a3, 6, 9074d7 <zf_debug_task+0x103>
  9074d4:	600148        	j	907620 <zf_debug_task+0x24c>
		{
			cmd_buf_ptr = 0;
  9074d7:	c030      	movi.n	a3, 0
  9074d9:	9320      	s32i.n	a3, a2, 0
			cmd_buf_full = TRUE;
  9074db:	126991        	l32r	a2, 8e1b20 <athos_indirection_table_install+0x5ac>
  9074de:	c031      	movi.n	a3, 1
  9074e0:	9320      	s32i.n	a3, a2, 0
  9074e2:	60013a        	j	907620 <zf_debug_task+0x24c>
		}
		return 1;
	case '\b' : /* Backspace */
		pressed_time = 0;
  9074e5:	126993        	l32r	a2, 8e1b34 <athos_indirection_table_install+0x5c0>
  9074e8:	c040      	movi.n	a4, 0
  9074ea:	9420      	s32i.n	a4, a2, 0
		if (*i > 0)
  9074ec:	126992        	l32r	a2, 8e1b34 <athos_indirection_table_install+0x5c0>
  9074ef:	242100        	l16ui	a4, a2, 0
  9074f2:	644140        	beqz	a4, 907636 <zf_debug_task+0x262>
		{
			*i = *i-1;
  9074f5:	b044      	addi.n	a4, a4, -1
  9074f7:	242500        	s16i	a4, a2, 0
			A_PRINTF("\b \b");
  9074fa:	1a69c9        	l32r	a10, 8e1c20 <athos_indirection_table_install+0x6ac>
  9074fd:	223212        	l32i	a2, a3, 72
  907500:	600115        	j	907619 <zf_debug_task+0x245>
  907503:	0022bc        	excw
		}
		break;
	case 0 : //None
		break;
	default :
		if ((ch >= ' ') && (ch <= '~'))
  907506:	e0          	.byte 0xe0
  907507:	020247        	extui	a2, a2, 0, 8
  90750a:	c53e      	movi.n	a3, 94
  90750c:	72332d        	bltu	a3, a2, 90753d <zf_debug_task+0x169>
		{
			pressed_time = 0;
  90750f:	126993        	l32r	a2, 8e1b5c <athos_indirection_table_install+0x5e8>
  907512:	c030      	movi.n	a3, 0
  907514:	9320      	s32i.n	a3, a2, 0
			if (*i < DB_MAX_COMMAND_LENGTH-2)
  907516:	136992        	l32r	a3, 8e1b60 <athos_indirection_table_install+0x5ec>
  907519:	c245      	movi.n	a4, 37
  90751b:	223100        	l16ui	a2, a3, 0
  90751e:	724b02        	bgeu	a4, a2, 907524 <zf_debug_task+0x150>
  907521:	600111        	j	907636 <zf_debug_task+0x262>
				{
					//if ((buf <= 'z') && (buf >= 'a'))
					//{
					//    buf -= 'a' - 'A';
					//}
					cmd_line[*i] = ch;
  907524:	1469c6        	l32r	a4, 8e1c3c <athos_indirection_table_install+0x6c8>
					*i = *i + 1;
					A_PRINTF("%c", ch);
  907527:	1a699e        	l32r	a10, 8e1ba0 <athos_indirection_table_install+0x62c>
				{
					//if ((buf <= 'z') && (buf >= 'a'))
					//{
					//    buf -= 'a' - 'A';
					//}
					cmd_line[*i] = ch;
  90752a:	a244      	add.n	a4, a4, a2
					*i = *i + 1;
  90752c:	b122      	addi.n	a2, a2, 1
  90752e:	223500        	s16i	a2, a3, 0
					A_PRINTF("%c", ch);
  907531:	126915        	l32r	a2, 8e1988 <athos_indirection_table_install+0x414>
				{
					//if ((buf <= 'z') && (buf >= 'a'))
					//{
					//    buf -= 'a' - 'A';
					//}
					cmd_line[*i] = ch;
  907534:	2b4400        	s8i	a11, a4, 0
					*i = *i + 1;
					A_PRINTF("%c", ch);
  907537:	222212        	l32i	a2, a2, 72
  90753a:	60000b        	j	907549 <zf_debug_task+0x175>
			}
		}
		else
		{
			ch = 7; /* Beep */
			A_PRINTF("%c", ch);
  90753d:	126915        	l32r	a2, 8e1994 <athos_indirection_table_install+0x420>
  907540:	1a699e        	l32r	a10, 8e1bb8 <athos_indirection_table_install+0x644>
  907543:	222212        	l32i	a2, a2, 72
  907546:	2b0a07        	movi	a11, 7
  907549:	0b2000        	callx8	a2
  90754c:	d10f      	retw.n
  90754e:	000012        	srai	a0, a0, 0
	cmd_buf_full = FALSE;
	gvLen = 0;
	pressed_time = 0;
}

static void zf_debug_task(void)
  907551:	69c6c0        	bnei	a12, 6, 907515 <zf_debug_task+0x141>
  907554:	b1a2      	addi.n	a2, a10, 1
  907556:	c922      	beqz.n	a2, 90756c <zf_debug_task+0x198>


	for (k=0; k<4; k++)
	{
		/* Remove preceeding spaces */
		while (raw_str[i++] == ' '){}
  907558:	9000      	s32i.n	a0, a0, 0
  90755a:	b1cc      	addi.n	a12, a12, 1
	cmd_buf_full = FALSE;
	gvLen = 0;
	pressed_time = 0;
}

static void zf_debug_task(void)
  90755c:	a8a7      	add.n	a7, a10, a8


	for (k=0; k<4; k++)
	{
		/* Remove preceeding spaces */
		while (raw_str[i++] == ' '){}
  90755e:	692c2b        	bnei	a2, 32, 90758d <zf_debug_task+0x1b9>
  907561:	63ffeb        	j	907550 <zf_debug_task+0x17c>

		/* Copy command string */
		j = 0;
		while(raw_str[i] && (raw_str[i] != ' '))
		{
			if (k == 0)
  907564:	cdea      	bnez.n	a14, 907582 <zf_debug_task+0x1ae>
			{
				if ((raw_str[i] <= 'z') && (raw_str[i] >= 'a'))
  907566:	22dc9f        	addi	a2, a13, -97
  907569:	020247        	extui	a2, a2, 0, 8
  90756c:	723305        	bltu	a3, a2, 907575 <zf_debug_task+0x1a1>
				{
					raw_str[i] -= 'a' - 'A';
  90756f:	2ddce0        	addi	a13, a13, -32
  907572:	2d9400        	s8i	a13, a9, 0
	cmd_buf_full = FALSE;
	gvLen = 0;
	pressed_time = 0;
}

static void zf_debug_task(void)
  907575:	afb2      	add.n	a2, a11, a15
			{
				if ((raw_str[i] <= 'z') && (raw_str[i] >= 'a'))
				{
					raw_str[i] -= 'a' - 'A';
				}
				cmd_str[k*DB_MAX_COMMAND_LENGTH + j++] = raw_str[i++];
  907577:	269000        	l8ui	a6, a9, 0
	cmd_buf_full = FALSE;
	gvLen = 0;
	pressed_time = 0;
}

static void zf_debug_task(void)
  90757a:	b022      	addi.n	a2, a2, -1
			{
				if ((raw_str[i] <= 'z') && (raw_str[i] >= 'a'))
				{
					raw_str[i] -= 'a' - 'A';
				}
				cmd_str[k*DB_MAX_COMMAND_LENGTH + j++] = raw_str[i++];
  90757c:	262400        	s8i	a6, a2, 0
  90757f:	600006        	j	907589 <zf_debug_task+0x1b5>
	cmd_buf_full = FALSE;
	gvLen = 0;
	pressed_time = 0;
}

static void zf_debug_task(void)
  907582:	ab72      	add.n	a2, a7, a11
  907584:	b022      	addi.n	a2, a2, -1
				}
				cmd_str[k*DB_MAX_COMMAND_LENGTH + j++] = raw_str[i++];
			}
			else
			{
				cmd_str[k*DB_MAX_COMMAND_LENGTH + j++] = raw_str[i++];
  907586:	2d2400        	s8i	a13, a2, 0
  907589:	b199      	addi.n	a9, a9, 1
  90758b:	b1bb      	addi.n	a11, a11, 1
		while (raw_str[i++] == ' '){}
		i--;

		/* Copy command string */
		j = 0;
		while(raw_str[i] && (raw_str[i] != ' '))
  90758d:	2d9000        	l8ui	a13, a9, 0
	cmd_buf_full = FALSE;
	gvLen = 0;
	pressed_time = 0;
}

static void zf_debug_task(void)
  907590:	059c0c        	sub	a12, a9, a5
		while (raw_str[i++] == ' '){}
		i--;

		/* Copy command string */
		j = 0;
		while(raw_str[i] && (raw_str[i] != ' '))
  907593:	04d201        	and	a2, a13, a4
	cmd_buf_full = FALSE;
	gvLen = 0;
	pressed_time = 0;
}

static void zf_debug_task(void)
  907596:	b0b6      	addi.n	a6, a11, -1
		while (raw_str[i++] == ' '){}
		i--;

		/* Copy command string */
		j = 0;
		while(raw_str[i] && (raw_str[i] != ' '))
  907598:	652fc8        	bnez	a2, 907564 <zf_debug_task+0x190>
			else
			{
				cmd_str[k*DB_MAX_COMMAND_LENGTH + j++] = raw_str[i++];
			}
		}
		cmd_str[k*DB_MAX_COMMAND_LENGTH + j] = 0;
  90759b:	a8a7      	add.n	a7, a10, a8
  90759d:	067608        	add	a6, a7, a6
  9075a0:	226400        	s8i	a2, a6, 0
  9075a3:	288c28        	addi	a8, a8, 40
	int i = 0;
	int j;
	int k;


	for (k=0; k<4; k++)
  9075a6:	260aa0        	movi	a6, 160
  9075a9:	2eec01        	addi	a14, a14, 1
  9075ac:	7689a0        	bne	a8, a6, 907550 <zf_debug_task+0x17c>
				cmd_str[k*DB_MAX_COMMAND_LENGTH + j++] = raw_str[i++];
			}
		}
		cmd_str[k*DB_MAX_COMMAND_LENGTH + j] = 0;
	}
	return (int)A_STRLEN(cmd_str);
  9075af:	136915        	l32r	a3, 8e1a04 <athos_indirection_table_install+0x490>
  9075b2:	233266        	l32i	a3, a3, 0x198
  9075b5:	0b3000        	callx8	a3
	if (db_get_cmd_line(ch, raw_cmd, &gvLen) == 0)
	{
		return;
	}

	if (db_formalize_command(raw_cmd, cmd_str))
  9075b8:	64a054        	beqz	a10, 907610 <zf_debug_task+0x23c>
	{
		gvLen = 0;
  9075bb:	136992        	l32r	a3, 8e1c04 <athos_indirection_table_install+0x690>
  9075be:	223500        	s16i	a2, a3, 0
		i = 0;

		cmd_not_found = TRUE;
  9075c1:	1269cb        	l32r	a2, 8e1cf0 <athos_indirection_table_install+0x77c>
  9075c4:	c031      	movi.n	a3, 1
  9075c6:	9320      	s32i.n	a3, a2, 0
  9075c8:	126997        	l32r	a2, 8e1c24 <athos_indirection_table_install+0x6b0>
		while(command_table[i].cmd_func)
		{
			if (!strcmp(command_table[i].cmd_str, cmd_str))
  9075cb:	1369ca        	l32r	a3, 8e1cf4 <athos_indirection_table_install+0x780>
  9075ce:	600026        	j	9075f8 <zf_debug_task+0x224>
	cmd_buf_full = FALSE;
	gvLen = 0;
	pressed_time = 0;
}

static void zf_debug_task(void)
  9075d1:	252cf8        	addi	a5, a2, -8
		i = 0;

		cmd_not_found = TRUE;
		while(command_table[i].cmd_func)
		{
			if (!strcmp(command_table[i].cmd_str, cmd_str))
  9075d4:	8a50      	l32i.n	a10, a5, 0
  9075d6:	033b02        	or	a11, a3, a3
  9075d9:	5b7be1        	call8	8e6560 <strcmp>
  9075dc:	bc22      	addi.n	a2, a2, 12
  9075de:	cda6      	bnez.n	a10, 9075f8 <zf_debug_task+0x224>
			{
				cmd_not_found = FALSE;
  9075e0:	1269cb        	l32r	a2, 8e1d0c <athos_indirection_table_install+0x798>
				command_table[i].cmd_func(cmd_str,
  9075e3:	1b69cc        	l32r	a11, 8e1d14 <athos_indirection_table_install+0x7a0>
  9075e6:	1c69cd        	l32r	a12, 8e1d1c <athos_indirection_table_install+0x7a8>
  9075e9:	1d69ce        	l32r	a13, 8e1d24 <athos_indirection_table_install+0x7b0>
		cmd_not_found = TRUE;
		while(command_table[i].cmd_func)
		{
			if (!strcmp(command_table[i].cmd_str, cmd_str))
			{
				cmd_not_found = FALSE;
  9075ec:	9a20      	s32i.n	a10, a2, 0
				command_table[i].cmd_func(cmd_str,
  9075ee:	033a02        	or	a10, a3, a3
  9075f1:	0b4000        	callx8	a4
  9075f4:	600005        	j	9075fd <zf_debug_task+0x229>
  9075f7:	008420        	excw
	{
		gvLen = 0;
		i = 0;

		cmd_not_found = TRUE;
		while(command_table[i].cmd_func)
  9075fa:	654fd3        	bnez	a4, 9075d1 <zf_debug_task+0x1fd>
							  cmd_str+DB_MAX_COMMAND_LENGTH*3);
				break;
			}
			i++;
		}
		if (cmd_not_found)
  9075fd:	1269cb        	l32r	a2, 8e1d2c <athos_indirection_table_install+0x7b8>
  907600:	8220      	l32i.n	a2, a2, 0
  907602:	c82a      	beqz.n	a2, 907610 <zf_debug_task+0x23c>
		{
			A_PRINTF("Error, HELP for command list.\n\r");
  907604:	126915        	l32r	a2, 8e1a58 <athos_indirection_table_install+0x4e4>
  907607:	1a69cf        	l32r	a10, 8e1d44 <athos_indirection_table_install+0x7d0>
  90760a:	222212        	l32i	a2, a2, 72
  90760d:	0b2000        	callx8	a2
		}

	}

	A_PRINTF(">");
  907610:	126915        	l32r	a2, 8e1a64 <athos_indirection_table_install+0x4f0>
  907613:	1a69d0        	l32r	a10, 8e1d54 <athos_indirection_table_install+0x7e0>
  907616:	222212        	l32i	a2, a2, 72
  907619:	0b2000        	callx8	a2
  90761c:	d10f      	retw.n
  90761e:	00001a        	sll	a0, a0
  907621:	69cac0        	bnei	a12, 12, 9075e5 <zf_debug_task+0x211>
		cmd_line[*i] = 0;
		A_PRINTF("\n\r");
		if (*i != 0)
		{
			//Filter duplicated string in command history
			if (strcmp(cmd_buffer[(cmd_buf_ptr==0)?(COMMAND_BUFFER_SIZE-1):(cmd_buf_ptr-1)], cmd_line) != 0)
  907624:	80dc      	l32i.n	a0, a13, 48
  907626:	80de      	l32i.n	a0, a13, 56
  907628:	8015      	l32i.n	a0, a1, 20
	cmd_buf_full = FALSE;
	gvLen = 0;
	pressed_time = 0;
}

static void zf_debug_task(void)
  90762a:	69c624        	bnei	a12, 6, 907652 <db_ascii_to_int+0x1a>
		while (raw_str[i++] == ' '){}
		i--;

		/* Copy command string */
		j = 0;
		while(raw_str[i] && (raw_str[i] != ' '))
  90762d:	fa          	.byte 0xfa
  90762e:	dfc1      	excw
		{
			if (k == 0)
			{
				if ((raw_str[i] <= 'z') && (raw_str[i] >= 'a'))
  907630:	39dfa0        	excw
	cmd_buf_full = FALSE;
	gvLen = 0;
	pressed_time = 0;
}

static void zf_debug_task(void)
  907633:	63ff19        	j	907550 <zf_debug_task+0x17c>
  907636:	d10f      	retw.n

00907638 <db_ascii_to_int>:
	}
	return 0;
}

int db_ascii_to_int(char *num_str, unsigned long *int_num)
{
  907638:	6c1004        	entry	a1, 32
	int i = 0;

	*int_num = 0;
  90763b:	c080      	movi.n	a8, 0
  90763d:	9830      	s32i.n	a8, a3, 0
	while (num_str[i])
	{
		if ((num_str[i] >= '0') && (num_str[i] <= '9'))
  90763f:	c099      	movi.n	a9, 9
int db_ascii_to_int(char *num_str, unsigned long *int_num)
{
	int i = 0;

	*int_num = 0;
	while (num_str[i])
  907641:	60001e        	j	907663 <db_ascii_to_int+0x2b>
	{
		if ((num_str[i] >= '0') && (num_str[i] <= '9'))
  907644:	288cd0        	addi	a8, a8, -48
  907647:	080847        	extui	a8, a8, 0, 8
  90764a:	78931f        	bltu	a9, a8, 90766d <db_ascii_to_int+0x35>
		{
			*int_num *= 10;
  90764d:	8830      	l32i.n	a8, a3, 0
  90764f:	08880a        	addx4	a8, a8, a8
  907652:	0f8811        	slli	a8, a8, 1
  907655:	9830      	s32i.n	a8, a3, 0
			*int_num += (num_str[i] - '0');
  907657:	2a2000        	l8ui	a10, a2, 0
  90765a:	288cd0        	addi	a8, a8, -48
  90765d:	aa88      	add.n	a8, a8, a10
  90765f:	9830      	s32i.n	a8, a3, 0
  907661:	b122      	addi.n	a2, a2, 1
int db_ascii_to_int(char *num_str, unsigned long *int_num)
{
	int i = 0;

	*int_num = 0;
	while (num_str[i])
  907663:	282000        	l8ui	a8, a2, 0
  907666:	658fda        	bnez	a8, 907644 <db_ascii_to_int+0xc>
		{
			return -1;
		}
		i++;
	}
	return 0;
  907669:	d280      	mov.n	a2, a8
  90766b:	d10f      	retw.n
			*int_num *= 10;
			*int_num += (num_str[i] - '0');
		}
		else
		{
			return -1;
  90766d:	c72f      	movi.n	a2, -1
		}
		i++;
	}
	return 0;
}
  90766f:	d10f      	retw.n
  907671:	000000        	ill

00907674 <db_clock_cmd>:
	A_UART_HWINIT((clk*1000*1000)/ratio, baud);

}

static int db_clock_cmd(char *cmd, char *param1, char *param2, char *param3)
{
  907674:	6c1006        	entry	a1, 48
	uint32_t ratio = 1;
	uint32_t baud = 19200;
	uint32_t clk = 0;
  907677:	c020      	movi.n	a2, 0
    
	if( db_ascii_to_int(param1, &clk) != -1 )
  907679:	033a02        	or	a10, a3, a3
  90767c:	db10      	mov.n	a11, a1

static int db_clock_cmd(char *cmd, char *param1, char *param2, char *param3)
{
	uint32_t ratio = 1;
	uint32_t baud = 19200;
	uint32_t clk = 0;
  90767e:	221600        	s32i	a2, a1, 0
    
	if( db_ascii_to_int(param1, &clk) != -1 )
  907681:	5bffed        	call8	907638 <db_ascii_to_int>
  907684:	68a059        	beqi	a10, -1, 9076e1 <db_clock_cmd+0x6d>
	{
		A_PRINTF("changing clock to %d\n", clk);
  907687:	186915        	l32r	a8, 8e1adc <athos_indirection_table_install+0x568>
  90768a:	1a69d1        	l32r	a10, 8e1dd0 <athos_indirection_table_install+0x85c>
  90768d:	288212        	l32i	a8, a8, 72
  907690:	8b10      	l32i.n	a11, a1, 0
  907692:	0b8000        	callx8	a8
		clk_change(clk, ratio, baud);
  907695:	8810      	l32i.n	a8, a1, 0

static void clk_change(uint32_t clk, uint32_t ratio, uint32_t baud)
{
	uint32_t clk_sel = 0;

	switch(clk){
  907697:	c2ac      	movi.n	a10, 44
		break;
        case 88:
		clk_sel = 1;
		break;
        case 44:
		clk_sel = 2;
  907699:	c092      	movi.n	a9, 2

static void clk_change(uint32_t clk, uint32_t ratio, uint32_t baud)
{
	uint32_t clk_sel = 0;

	switch(clk){
  90769b:	7a8122        	beq	a8, a10, 9076c1 <db_clock_cmd+0x4d>
  90769e:	78a30e        	bltu	a10, a8, 9076b0 <db_clock_cmd+0x3c>
        case 22:
		clk_sel = 0;
  9076a1:	d920      	mov.n	a9, a2

static void clk_change(uint32_t clk, uint32_t ratio, uint32_t baud)
{
	uint32_t clk_sel = 0;

	switch(clk){
  9076a3:	c126      	movi.n	a2, 22
  9076a5:	728118        	beq	a8, a2, 9076c1 <db_clock_cmd+0x4d>
		break;
        case 117:
		clk_sel = 4;
		break;
        case 40:
		clk_sel = 6;            
  9076a8:	c096      	movi.n	a9, 6

static void clk_change(uint32_t clk, uint32_t ratio, uint32_t baud)
{
	uint32_t clk_sel = 0;

	switch(clk){
  9076aa:	c228      	movi.n	a2, 40
  9076ac:	60000c        	j	9076bc <db_clock_cmd+0x48>
  9076af:	00c528        	mull	a5, a12, a0
        case 22:
		clk_sel = 0;
		break;
        case 88:
		clk_sel = 1;
  9076b2:	c091      	movi.n	a9, 1

static void clk_change(uint32_t clk, uint32_t ratio, uint32_t baud)
{
	uint32_t clk_sel = 0;

	switch(clk){
  9076b4:	728109        	beq	a8, a2, 9076c1 <db_clock_cmd+0x4d>
		break;
        case 44:
		clk_sel = 2;
		break;
        case 117:
		clk_sel = 4;
  9076b7:	c094      	movi.n	a9, 4

static void clk_change(uint32_t clk, uint32_t ratio, uint32_t baud)
{
	uint32_t clk_sel = 0;

	switch(clk){
  9076b9:	220a75        	movi	a2, 117
  9076bc:	728101        	beq	a8, a2, 9076c1 <db_clock_cmd+0x4d>
		break;
        case 40:
		clk_sel = 6;            
		break;
        default:
		clk_sel = 6;
  9076bf:	c096      	movi.n	a9, 6
		break;
	}

	iowrite32(0x50040, (0x300|clk_sel|(ratio>>1)<<12));
  9076c1:	223a00        	movi	a2, 0x300
  9076c4:	029902        	or	a9, a9, a2
  9076c7:	1269d2        	l32r	a2, 8e1e10 <athos_indirection_table_install+0x89c>
	A_UART_HWINIT((clk*1000*1000)/ratio, baud);
  9076ca:	1a69d3        	l32r	a10, 8e1e18 <athos_indirection_table_install+0x8a4>
	*(volatile uint16_t *) addr = b;
}

static inline void iowrite32(volatile uint32_t addr, const uint32_t b)
{
	*(volatile uint32_t *) addr = b;
  9076cd:	0c0200        	memw
  9076d0:	9920      	s32i.n	a9, a2, 0
  9076d2:	126915        	l32r	a2, 8e1b28 <athos_indirection_table_install+0x5b4>
  9076d5:	0a8a28        	mull	a10, a8, a10
  9076d8:	22221a        	l32i	a2, a2, 104
  9076db:	1b69d4        	l32r	a11, 8e1e2c <athos_indirection_table_install+0x8b8>
  9076de:	0b2000        	callx8	a2
	if( db_ascii_to_int(param1, &clk) != -1 )
	{
		A_PRINTF("changing clock to %d\n", clk);
		clk_change(clk, ratio, baud);
	}
}
  9076e1:	d10f      	retw.n
	...

009076e4 <dbg_timer_func>:
	db_incorect_format();
	return -1;
}

LOCAL void dbg_timer_func(A_HANDLE alarm, void *data)
{
  9076e4:	6c1004        	entry	a1, 32
	A_PRINTF("this is a timer alarm function 0x%08x\n\r", xthal_get_ccount());
  9076e7:	126915        	l32r	a2, 8e1b3c <athos_indirection_table_install+0x5c8>
  9076ea:	222212        	l32i	a2, a2, 72
  9076ed:	5b7c9a        	call8	8e6958 <xthal_get_ccount>
  9076f0:	dba0      	mov.n	a11, a10
  9076f2:	1a69d5        	l32r	a10, 8e1e48 <athos_indirection_table_install+0x8d4>
  9076f5:	0b2000        	callx8	a2
  9076f8:	d10f      	retw.n
	...

009076fc <cmnos_dbg_module_install>:

	db_incorect_format();
	return -1;
}
void cmnos_dbg_module_install(struct dbg_api *apis)
{
  9076fc:	6c1004        	entry	a1, 32
	apis->_dbg_init = zf_debug_init;
  9076ff:	1869d6        	l32r	a8, 8e1e58 <athos_indirection_table_install+0x8e4>
  907702:	9820      	s32i.n	a8, a2, 0
	apis->_dbg_task = zf_debug_task;
  907704:	1869d7        	l32r	a8, 8e1e60 <athos_indirection_table_install+0x8ec>
  907707:	9821      	s32i.n	a8, a2, 4
  907709:	d10f      	retw.n
	...

0090770c <_fw_usbfifo_recv_command>:

typedef void (* USBFIFO_recv_command)(VBUF *cmd);
USBFIFO_recv_command m_origUsbfifoRecvCmd = NULL;

void _fw_usbfifo_recv_command(VBUF *buf)
{
  90770c:	6c1004        	entry	a1, 32
	uint8_t *cmd_data;
	uint32_t tmp;

	cmd_data = (uint8_t *)(buf->desc_list->buf_addr +
  90770f:	8820      	l32i.n	a8, a2, 0

typedef void (* USBFIFO_recv_command)(VBUF *cmd);
USBFIFO_recv_command m_origUsbfifoRecvCmd = NULL;

void _fw_usbfifo_recv_command(VBUF *buf)
{
  907711:	da20      	mov.n	a10, a2
	uint8_t *cmd_data;
	uint32_t tmp;

	cmd_data = (uint8_t *)(buf->desc_list->buf_addr +
  907713:	298105        	l16ui	a9, a8, 10
				buf->desc_list->data_offset);
	tmp = *((uint32_t *)cmd_data);
  907716:	8881      	l32i.n	a8, a8, 4
  907718:	a988      	add.n	a8, a8, a9
	if (tmp == 0xFFFFFFFF)
  90771a:	8880      	l32i.n	a8, a8, 0
  90771c:	698004        	bnei	a8, -1, 907724 <_fw_usbfifo_recv_command+0x18>
		_fw_usb_suspend_reboot();
  90771f:	580cca        	call8	90aa48 <_fw_usb_suspend_reboot>
  907722:	d10f      	retw.n
	else
		m_origUsbfifoRecvCmd(buf);
  907724:	1869d8        	l32r	a8, 8e1e84 <athos_indirection_table_install+0x910>
  907727:	8880      	l32i.n	a8, a8, 0
  907729:	0b8000        	callx8	a8
  90772c:	d10f      	retw.n
	...

00907730 <_fw_usbfifo_init>:
}

void _fw_usbfifo_init(USB_FIFO_CONFIG *pConfig)
{
  907730:	6c1004        	entry	a1, 32
	m_origUsbfifoRecvCmd = pConfig->recv_command;
  907733:	8921      	l32i.n	a9, a2, 4
  907735:	1869d8        	l32r	a8, 8e1e98 <athos_indirection_table_install+0x924>
  907738:	9980      	s32i.n	a9, a8, 0

	usbFifoConf.get_command_buf = pConfig->get_command_buf;
  90773a:	1869d9        	l32r	a8, 8e1ea0 <athos_indirection_table_install+0x92c>
  90773d:	8920      	l32i.n	a9, a2, 0
  90773f:	9980      	s32i.n	a9, a8, 0
	usbFifoConf.recv_command    = _fw_usbfifo_recv_command;
  907741:	1969da        	l32r	a9, 8e1eac <athos_indirection_table_install+0x938>
  907744:	9981      	s32i.n	a9, a8, 4
	usbFifoConf.get_event_buf   = pConfig->get_event_buf;
  907746:	8922      	l32i.n	a9, a2, 8
	usbFifoConf.send_event_done = pConfig->send_event_done;
  907748:	8223      	l32i.n	a2, a2, 12
{
	m_origUsbfifoRecvCmd = pConfig->recv_command;

	usbFifoConf.get_command_buf = pConfig->get_command_buf;
	usbFifoConf.recv_command    = _fw_usbfifo_recv_command;
	usbFifoConf.get_event_buf   = pConfig->get_event_buf;
  90774a:	9982      	s32i.n	a9, a8, 8
	usbFifoConf.send_event_done = pConfig->send_event_done;
  90774c:	9283      	s32i.n	a2, a8, 12
  90774e:	d10f      	retw.n

00907750 <cold_reboot>:
}

void cold_reboot(void)
{
  907750:	6c1004        	entry	a1, 32
	A_PRINTF("Cold reboot initiated.");
  907753:	126915        	l32r	a2, 8e1ba8 <athos_indirection_table_install+0x634>
  907756:	1a69db        	l32r	a10, 8e1ec4 <athos_indirection_table_install+0x950>
  907759:	282212        	l32i	a8, a2, 72
  90775c:	0b8000        	callx8	a8
  90775f:	186919        	l32r	a8, 8e1bc4 <athos_indirection_table_install+0x650>
  907762:	c090      	movi.n	a9, 0
#if defined(PROJECT_MAGPIE)
	iowrite32(WATCH_DOG_MAGIC_PATTERN_ADDR, 0);
#elif defined(PROJECT_K2)
	iowrite32(MAGPIE_REG_RST_STATUS_ADDR, 0);
#endif /* #if defined(PROJECT_MAGPIE) */
	A_USB_JUMP_BOOT();
  907764:	22222c        	l32i	a2, a2, 176
  907767:	0c0200        	memw
  90776a:	298600        	s32i	a9, a8, 0
  90776d:	0b2000        	callx8	a2
  907770:	d10f      	retw.n
	...

00907774 <usb_status_in_patch>:

/*
 * support more than 64 bytes command on ep3
 */
void usb_status_in_patch(void)
{
  907774:	6c1004        	entry	a1, 32
	static VBUF *evntbuf = NULL;
	static volatile uint32_t *regaddr;
	static BOOLEAN cmd_is_new = TRUE;
	BOOLEAN cmd_end = FALSE;

	if (cmd_is_new) {
  907777:	1269dc        	l32r	a2, 8e1ee8 <athos_indirection_table_install+0x974>
  90777a:	282100        	l16ui	a8, a2, 0
  90777d:	648048        	beqz	a8, 9077c9 <usb_status_in_patch+0x55>
		evntbuf = usbFifoConf.get_event_buf();
  907780:	1869d9        	l32r	a8, 8e1ee4 <athos_indirection_table_install+0x970>
  907783:	8a82      	l32i.n	a10, a8, 8
  907785:	0ba000        	callx8	a10
  907788:	1869dd        	l32r	a8, 8e1efc <athos_indirection_table_install+0x988>
  90778b:	9a80      	s32i.n	a10, a8, 0
		if (evntbuf != NULL) {
  90778d:	c9af      	beqz.n	a10, 9077b0 <usb_status_in_patch+0x3c>
			regaddr = (uint32_t *)VBUF_GET_DATA_ADDR(evntbuf);
  90778f:	88a0      	l32i.n	a8, a10, 0
  907791:	298105        	l16ui	a9, a8, 10
  907794:	8881      	l32i.n	a8, a8, 4
  907796:	a989      	add.n	a9, a8, a9
  907798:	1869de        	l32r	a8, 8e1f10 <athos_indirection_table_install+0x99c>
  90779b:	9980      	s32i.n	a9, a8, 0
			buf_len = evntbuf->buf_length;
  90779d:	1869df        	l32r	a8, 8e1f1c <athos_indirection_table_install+0x9a8>
  9077a0:	29a104        	l16ui	a9, a10, 8
  9077a3:	298500        	s16i	a9, a8, 0
		} else {
			mUSB_STATUS_IN_INT_DISABLE();
			return;
		}

		cmd_is_new = FALSE;
  9077a6:	c080      	movi.n	a8, 0
  9077a8:	282500        	s16i	a8, a2, 0
  9077ab:	60001a        	j	9077c9 <usb_status_in_patch+0x55>
  9077ae:	000012        	srai	a0, a0, 0

#include <adf_os_io_pvt.h>

static inline uint8_t ioread8(const volatile uint32_t addr)
{
	return *(const volatile uint8_t *) addr;
  9077b1:	695c29        	bnei	a5, 32, 9077de <usb_status_in_patch+0x6a>
		evntbuf = usbFifoConf.get_event_buf();
		if (evntbuf != NULL) {
			regaddr = (uint32_t *)VBUF_GET_DATA_ADDR(evntbuf);
			buf_len = evntbuf->buf_length;
		} else {
			mUSB_STATUS_IN_INT_DISABLE();
  9077b4:	0ac028        	mull	a0, a12, a10
  9077b7:	200008        	l8ui	a0, a0, 8
  9077ba:	084709        	addx2	a7, a4, a8
  9077bd:	8802      	l32i.n	a8, a0, 8
	return *(const volatile uint32_t *) addr;
}

static inline void iowrite8(volatile uint32_t addr, const uint8_t b)
{
	*(volatile uint8_t *) addr = b;
  9077bf:	0c0200        	memw
  9077c2:	282400        	s8i	a8, a2, 0
  9077c5:	d10f      	retw.n
  9077c7:	00001a        	sll	a0, a0
		}

		cmd_is_new = FALSE;
	}

	if (buf_len > USB_EP3_MAX_PKT_SIZE) {
  9077ca:	69dfc4        	bnei	a13, 0x100, 907792 <usb_status_in_patch+0x1e>
  9077cd:	9028      	s32i.n	a0, a2, 32
  9077cf:	a100      	add.n	a0, a0, a1
	}
	/* TODO: 64 bytes...
	 * controller supposed will take care of zero-length? */
	else {
		reg_buf_len = buf_len;
		cmd_end = TRUE;
  9077d1:	c021      	movi.n	a2, 1
		}

		cmd_is_new = FALSE;
	}

	if (buf_len > USB_EP3_MAX_PKT_SIZE) {
  9077d3:	789b09        	bgeu	a9, a8, 9077e0 <usb_status_in_patch+0x6c>
		reg_buf_len = USB_EP3_MAX_PKT_SIZE;
		buf_len -= USB_EP3_MAX_PKT_SIZE;
  9077d6:	288cc0        	addi	a8, a8, -64
  9077d9:	28a500        	s16i	a8, a10, 0
	uint16_t reg_buf_len;
	static uint16_t buf_len;
	static VBUF *evntbuf = NULL;
	static volatile uint32_t *regaddr;
	static BOOLEAN cmd_is_new = TRUE;
	BOOLEAN cmd_end = FALSE;
  9077dc:	c020      	movi.n	a2, 0

		cmd_is_new = FALSE;
	}

	if (buf_len > USB_EP3_MAX_PKT_SIZE) {
		reg_buf_len = USB_EP3_MAX_PKT_SIZE;
  9077de:	d890      	mov.n	a8, a9
  9077e0:	1969de        	l32r	a9, 8e1f58 <athos_indirection_table_install+0x9e4>
		reg_buf_len = buf_len;
		cmd_end = TRUE;
	}

	/* INT use EP3 */
	for (count = 0; count < (reg_buf_len / 4); count++)
  9077e3:	082c14        	srli	a12, a8, 2
  9077e6:	8b90      	l32i.n	a11, a9, 0
  9077e8:	1e695d        	l32r	a14, 8e1d5c <athos_indirection_table_install+0x7e8>
  9077eb:	dab0      	mov.n	a10, a11
  9077ed:	c090      	movi.n	a9, 0
  9077ef:	600010        	j	907803 <usb_status_in_patch+0x8f>
  9077f2:	00000c        	sub	a0, a0, a0
	{
		iowrite32_usb(ZM_EP3_DATA_OFFSET, *regaddr);
  9077f5:	02008d        	excw
  9077f8:	d0b1      	excw
		reg_buf_len = buf_len;
		cmd_end = TRUE;
	}

	/* INT use EP3 */
	for (count = 0; count < (reg_buf_len / 4); count++)
  9077fa:	990c      	s32i.n	a9, a0, 48
	*(volatile uint16_t *) addr = b;
}

static inline void iowrite32(volatile uint32_t addr, const uint32_t b)
{
	*(volatile uint32_t *) addr = b;
  9077fc:	02009d        	excw
  9077ff:	e0          	.byte 0xe0
  907800:	09094f        	extui	a9, a9, 0, 16
  907803:	dda0      	mov.n	a13, a10
  907805:	b4aa      	addi.n	a10, a10, 4
  907807:	7c99e9        	bne	a9, a12, 9077f4 <usb_status_in_patch+0x80>
  90780a:	1a69de        	l32r	a10, 8e1f84 <athos_indirection_table_install+0xa10>
  90780d:	0b990a        	addx4	a9, a9, a11
  907810:	99a0      	s32i.n	a9, a10, 0
	{
		iowrite32_usb(ZM_EP3_DATA_OFFSET, *regaddr);
		regaddr++;
	}

	remainder = reg_buf_len % 4;
  907812:	080841        	extui	a8, a8, 0, 2

	if (remainder) {
  907815:	cb84      	beqz.n	a8, 90784d <usb_status_in_patch+0xd9>
  907817:	19693c        	l32r	a9, 8e1d08 <athos_indirection_table_install+0x794>
		switch(remainder) {
  90781a:	688207        	beqi	a8, 2, 907825 <usb_status_in_patch+0xb1>
  90781d:	698309        	bnei	a8, 3, 90782a <usb_status_in_patch+0xb6>
  907820:	c087      	movi.n	a8, 7
  907822:	600006        	j	90782c <usb_status_in_patch+0xb8>
  907825:	c083      	movi.n	a8, 3
  907827:	600001        	j	90782c <usb_status_in_patch+0xb8>
  90782a:	c081      	movi.n	a8, 1
  90782c:	0c0200        	memw
  90782f:	9890      	s32i.n	a8, a9, 0
		case 1:
			iowrite32_usb(ZM_CBUS_FIFO_SIZE_OFFSET, 0x1);
			break;
		}

		iowrite32_usb(ZM_EP3_DATA_OFFSET, *regaddr);
  907831:	1869de        	l32r	a8, 8e1fac <athos_indirection_table_install+0xa38>
  907834:	8880      	l32i.n	a8, a8, 0
  907836:	0c0200        	memw
  907839:	8980      	l32i.n	a9, a8, 0
  90783b:	18695d        	l32r	a8, 8e1db0 <athos_indirection_table_install+0x83c>
  90783e:	0c0200        	memw
  907841:	9980      	s32i.n	a9, a8, 0
  907843:	18693c        	l32r	a8, 8e1d34 <athos_indirection_table_install+0x7c0>
  907846:	c09f      	movi.n	a9, 15
  907848:	0c0200        	memw
  90784b:	9980      	s32i.n	a9, a8, 0

#include <adf_os_io_pvt.h>

static inline uint8_t ioread8(const volatile uint32_t addr)
{
	return *(const volatile uint8_t *) addr;
  90784d:	18695f        	l32r	a8, 8e1dcc <athos_indirection_table_install+0x858>

		/* Restore CBus FIFO size to word size */
		iowrite32_usb(ZM_CBUS_FIFO_SIZE_OFFSET, 0xF);
	}

	mUSB_EP3_XFER_DONE();
  907850:	c0a8      	movi.n	a10, 8
  907852:	298000        	l8ui	a9, a8, 0
  907855:	090947        	extui	a9, a9, 0, 8
  907858:	0a9902        	or	a9, a9, a10
	return *(const volatile uint32_t *) addr;
}

static inline void iowrite8(volatile uint32_t addr, const uint8_t b)
{
	*(volatile uint8_t *) addr = b;
  90785b:	0c0200        	memw
  90785e:	298400        	s8i	a9, a8, 0

	if (evntbuf != NULL && cmd_end) {
  907861:	1869dd        	l32r	a8, 8e1fd8 <athos_indirection_table_install+0xa64>
  907864:	8a80      	l32i.n	a10, a8, 0
  907866:	c9a2      	beqz.n	a10, 90787c <usb_status_in_patch+0x108>
  907868:	642010        	beqz	a2, 90787c <usb_status_in_patch+0x108>
		usbFifoConf.send_event_done(evntbuf);
  90786b:	1269d9        	l32r	a2, 8e1fd0 <athos_indirection_table_install+0xa5c>
  90786e:	222203        	l32i	a2, a2, 12
  907871:	0b2000        	callx8	a2
		cmd_is_new = TRUE;
  907874:	1269dc        	l32r	a2, 8e1fe4 <athos_indirection_table_install+0xa70>
  907877:	c081      	movi.n	a8, 1
  907879:	282500        	s16i	a8, a2, 0
  90787c:	d10f      	retw.n
	...

00907880 <usb_reg_out_patch>:

/*
 * support more than 64 bytes command on ep4 
 */
void usb_reg_out_patch(void)
{
  907880:	6c1004        	entry	a1, 32

#include <adf_os_io_pvt.h>

static inline uint8_t ioread8(const volatile uint32_t addr)
{
	return *(const volatile uint8_t *) addr;
  907883:	1269e0        	l32r	a2, 8e2004 <athos_indirection_table_install+0xa90>
	static BOOLEAN cmd_is_new = TRUE;

	/* get the size of this transcation */
	usbfifolen = ioread8_usb(ZM_EP4_BYTE_COUNT_LOW_OFFSET);

	if (usbfifolen > USB_EP4_MAX_PKT_SIZE) {
  907886:	230a40        	movi	a3, 64
  907889:	222000        	l8ui	a2, a2, 0
  90788c:	020247        	extui	a2, a2, 0, 8
  90788f:	723b11        	bgeu	a3, a2, 9078a4 <usb_reg_out_patch+0x24>
		A_PRINTF("EP4 FIFO Bug? Buffer is too big: %x\n", usbfifolen);
  907892:	136915        	l32r	a3, 8e1ce8 <athos_indirection_table_install+0x774>
  907895:	1a69e1        	l32r	a10, 8e201c <athos_indirection_table_install+0xaa8>
  907898:	233212        	l32i	a3, a3, 72
  90789b:	022b02        	or	a11, a2, a2
  90789e:	0b3000        	callx8	a3
		cold_reboot();
  9078a1:	5bffab        	call8	907750 <cold_reboot>
	}

	/* check is command is new */
	if(cmd_is_new) {
  9078a4:	1369e2        	l32r	a3, 8e202c <athos_indirection_table_install+0xab8>
  9078a7:	243100        	l16ui	a4, a3, 0
  9078aa:	cb4a      	beqz.n	a4, 9078e8 <usb_reg_out_patch+0x68>

		buf = usbFifoConf.get_command_buf();
  9078ac:	1469d9        	l32r	a4, 8e2010 <athos_indirection_table_install+0xa9c>
  9078af:	8a40      	l32i.n	a10, a4, 0
  9078b1:	0ba000        	callx8	a10
  9078b4:	1469e3        	l32r	a4, 8e2040 <athos_indirection_table_install+0xacc>
		cmd_len = 0;
  9078b7:	c080      	movi.n	a8, 0
	}

	/* check is command is new */
	if(cmd_is_new) {

		buf = usbFifoConf.get_command_buf();
  9078b9:	9a40      	s32i.n	a10, a4, 0
		cmd_len = 0;
  9078bb:	1469e4        	l32r	a4, 8e204c <athos_indirection_table_install+0xad8>
  9078be:	284500        	s16i	a8, a4, 0

		if(!buf) {
  9078c1:	cda5      	bnez.n	a10, 9078da <usb_reg_out_patch+0x5a>
			A_PRINTF("%s: Filed to get new buffer.\n", __func__);
  9078c3:	136915        	l32r	a3, 8e1d18 <athos_indirection_table_install+0x7a4>
  9078c6:	1a69e5        	l32r	a10, 8e205c <athos_indirection_table_install+0xae8>
  9078c9:	233212        	l32i	a3, a3, 72
  9078cc:	1b69e6        	l32r	a11, 8e2064 <athos_indirection_table_install+0xaf0>
  9078cf:	0b3000        	callx8	a3
		usbfifolen = (usbfifolen >> 2) + 1;
	else
		usbfifolen = usbfifolen >> 2;

	/* retrieve the data from fifo */
	for(ii = 0; ii < usbfifolen; ii++) {
  9078d2:	c080      	movi.n	a8, 0
	return *(const volatile uint16_t *) addr;
}

static inline uint32_t ioread32(const volatile uint32_t addr)
{
	return *(const volatile uint32_t *) addr;
  9078d4:	1369e9        	l32r	a3, 8e2078 <athos_indirection_table_install+0xb04>
  9078d7:	6000a7        	j	907982 <usb_reg_out_patch+0x102>
			A_PRINTF("%s: Filed to get new buffer.\n", __func__);
			goto err;
		}

		/* copy free, assignment buffer of the address */
		regaddr = (uint32_t *)buf->desc_list->buf_addr;
  9078da:	84a0      	l32i.n	a4, a10, 0

		cmd_is_new = FALSE;
  9078dc:	283500        	s16i	a8, a3, 0
			A_PRINTF("%s: Filed to get new buffer.\n", __func__);
			goto err;
		}

		/* copy free, assignment buffer of the address */
		regaddr = (uint32_t *)buf->desc_list->buf_addr;
  9078df:	294201        	l32i	a9, a4, 4
  9078e2:	1469e7        	l32r	a4, 8e2080 <athos_indirection_table_install+0xb0c>
  9078e5:	294600        	s32i	a9, a4, 0

		cmd_is_new = FALSE;
	}

	/* just in case, suppose should not happen */
	if(!buf)
  9078e8:	1369e3        	l32r	a3, 8e2074 <athos_indirection_table_install+0xb00>
  9078eb:	8a30      	l32i.n	a10, a3, 0
  9078ed:	64afe1        	beqz	a10, 9078d2 <usb_reg_out_patch+0x52>
	 */
	if(usbfifolen < USB_EP4_MAX_PKT_SIZE)
		cmd_is_last = TRUE;

	/* accumulate the size */
	cmd_len += usbfifolen;
  9078f0:	1369e4        	l32r	a3, 8e2080 <athos_indirection_table_install+0xb0c>

	if (cmd_len > buf->desc_list->buf_size) {
  9078f3:	88a0      	l32i.n	a8, a10, 0
	 */
	if(usbfifolen < USB_EP4_MAX_PKT_SIZE)
		cmd_is_last = TRUE;

	/* accumulate the size */
	cmd_len += usbfifolen;
  9078f5:	293100        	l16ui	a9, a3, 0
  9078f8:	a929      	add.n	a9, a2, a9
  9078fa:	09094f        	extui	a9, a9, 0, 16
  9078fd:	293500        	s16i	a9, a3, 0

	if (cmd_len > buf->desc_list->buf_size) {
  907900:	238104        	l16ui	a3, a8, 8
  907903:	793b0b        	bgeu	a3, a9, 907912 <usb_reg_out_patch+0x92>
		A_PRINTF("%s: Data length on EP4 FIFO is bigger as "
  907906:	136915        	l32r	a3, 8e1d5c <athos_indirection_table_install+0x7e8>
  907909:	1a69e8        	l32r	a10, 8e20ac <athos_indirection_table_install+0xb38>
  90790c:	233212        	l32i	a3, a3, 72
  90790f:	63ffb9        	j	9078cc <usb_reg_out_patch+0x4c>
		goto err;
	}

	/* round it to alignment */
	if(usbfifolen % 4)
		usbfifolen = (usbfifolen >> 2) + 1;
  907912:	c031      	movi.n	a3, 1
			 "allocated buffer data! Drop it!\n", __func__);
		goto err;
	}

	/* round it to alignment */
	if(usbfifolen % 4)
  907914:	020441        	extui	a4, a2, 0, 2
		usbfifolen = (usbfifolen >> 2) + 1;
  907917:	c0b0      	movi.n	a11, 0
  907919:	043b39        	movnez	a11, a3, a4
  90791c:	1369e7        	l32r	a3, 8e20b8 <athos_indirection_table_install+0xb44>
	else
		usbfifolen = usbfifolen >> 2;
  90791f:	022c14        	srli	a12, a2, 2
  907922:	8330      	l32i.n	a3, a3, 0
		goto err;
	}

	/* round it to alignment */
	if(usbfifolen % 4)
		usbfifolen = (usbfifolen >> 2) + 1;
  907924:	abcc      	add.n	a12, a12, a11
  907926:	dd30      	mov.n	a13, a3
	else
		usbfifolen = usbfifolen >> 2;

	/* retrieve the data from fifo */
	for(ii = 0; ii < usbfifolen; ii++) {
  907928:	c0b0      	movi.n	a11, 0
  90792a:	1f69e9        	l32r	a15, 8e20d0 <athos_indirection_table_install+0xb5c>
  90792d:	60000f        	j	907940 <usb_reg_out_patch+0xc0>
  907930:	000c02        	or	a12, a0, a0
  907933:	0084f0        	excw
  907936:	b1bb      	addi.n	a11, a11, 1
		/* read fifo data out */
		ep4_data = ioread32_usb(ZM_EP4_DATA_OFFSET);
		*regaddr = ep4_data;
  907938:	0c0200        	memw
  90793b:	94e0      	s32i.n	a4, a14, 0
		usbfifolen = (usbfifolen >> 2) + 1;
	else
		usbfifolen = usbfifolen >> 2;

	/* retrieve the data from fifo */
	for(ii = 0; ii < usbfifolen; ii++) {
  90793d:	0b0b4f        	extui	a11, a11, 0, 16
  907940:	ded0      	mov.n	a14, a13
  907942:	b4dd      	addi.n	a13, a13, 4
  907944:	7cb9e9        	bne	a11, a12, 907931 <usb_reg_out_patch+0xb1>
  907947:	1c69e7        	l32r	a12, 8e20e4 <athos_indirection_table_install+0xb70>
  90794a:	03bb0a        	addx4	a11, a11, a3
  90794d:	9bc0      	s32i.n	a11, a12, 0
		*regaddr = ep4_data;
		regaddr++;
	}

	/* if this is the last command, callback to HTC */
	if (cmd_is_last) {
  90794f:	c33f      	movi.n	a3, 63
  907951:	723330        	bltu	a3, a2, 907985 <usb_reg_out_patch+0x105>
		buf->desc_list->next_desc = NULL;
  907954:	c020      	movi.n	a2, 0
  907956:	9280      	s32i.n	a2, a8, 0
		buf->desc_list->data_offset = 0;
  907958:	228505        	s16i	a2, a8, 10
		buf->desc_list->data_size = cmd_len;
		buf->desc_list->control = 0;
  90795b:	228507        	s16i	a2, a8, 14

	/* if this is the last command, callback to HTC */
	if (cmd_is_last) {
		buf->desc_list->next_desc = NULL;
		buf->desc_list->data_offset = 0;
		buf->desc_list->data_size = cmd_len;
  90795e:	298506        	s16i	a9, a8, 12
		buf->desc_list->control = 0;
		buf->next_buf = NULL;
  907961:	92a1      	s32i.n	a2, a10, 4
		buf->buf_length = cmd_len;

		usbFifoConf.recv_command(buf);
  907963:	1269d9        	l32r	a2, 8e20c8 <athos_indirection_table_install+0xb54>
		buf->desc_list->next_desc = NULL;
		buf->desc_list->data_offset = 0;
		buf->desc_list->data_size = cmd_len;
		buf->desc_list->control = 0;
		buf->next_buf = NULL;
		buf->buf_length = cmd_len;
  907966:	29a504        	s16i	a9, a10, 8

		usbFifoConf.recv_command(buf);
  907969:	8221      	l32i.n	a2, a2, 4

		cmd_is_new = TRUE;
  90796b:	c031      	movi.n	a3, 1
		buf->desc_list->data_size = cmd_len;
		buf->desc_list->control = 0;
		buf->next_buf = NULL;
		buf->buf_length = cmd_len;

		usbFifoConf.recv_command(buf);
  90796d:	0b2000        	callx8	a2

		cmd_is_new = TRUE;
  907970:	1269e2        	l32r	a2, 8e20f8 <athos_indirection_table_install+0xb84>
  907973:	232500        	s16i	a3, a2, 0
  907976:	d10f      	retw.n
	goto done;
err:
	/* we might get no command buffer here?
	 * but if we return here, the ep4 fifo will be lock out,
	 * so that we still read them out but just drop it? */
	for(ii = 0; ii < usbfifolen; ii++)
  907978:	b188      	addi.n	a8, a8, 1
  90797a:	0c0200        	memw
  90797d:	8430      	l32i.n	a4, a3, 0
  90797f:	08084f        	extui	a8, a8, 0, 16
  907982:	7283f2        	bltu	a8, a2, 907978 <usb_reg_out_patch+0xf8>
  907985:	d10f      	retw.n
	...

00907988 <vUSBFIFO_EP6Cfg_FS_patch>:
#define FS_C1_I0_A0_EP6_MAP		\
	 (FS_C1_I0_A0_EP6_FIFO_START | (FS_C1_I0_A0_EP6_FIFO_START << 4) | \
	  (MASK_F0 >> (4*FS_C1_I0_A0_EP6_DIRECTION)))

void vUSBFIFO_EP6Cfg_FS_patch(void)
{
  907988:	6c1004        	entry	a1, 32
#if (FS_C1_I0_A0_EP_NUMBER >= 6)
	int i;

	/* EP0X06 */
	mUsbEPMap(EP6, FS_C1_I0_A0_EP6_MAP);
  90798b:	2b0a6f        	movi	a11, 111
  90798e:	2a0a06        	movi	a10, 6
  907991:	5b73d9        	call8	8e48f8 <mUsbEPMap>
	mUsbFIFOMap(FS_C1_I0_A0_EP6_FIFO_START, FS_C1_I0_A0_EP6_FIFO_MAP);
  907994:	2a0a06        	movi	a10, 6
  907997:	0aab02        	or	a11, a10, a10
  90799a:	5b73de        	call8	8e4914 <mUsbFIFOMap>
	mUsbFIFOConfig(FS_C1_I0_A0_EP6_FIFO_START, FS_C1_I0_A0_EP6_FIFO_CONFIG);
  90799d:	2b0a86        	movi	a11, 134
  9079a0:	c0a6      	movi.n	a10, 6
  9079a2:	5b73e4        	call8	8e4934 <mUsbFIFOConfig>

	for(i = FS_C1_I0_A0_EP6_FIFO_START + 1 ;
            i < FS_C1_I0_A0_EP6_FIFO_START + FS_C1_I0_A0_EP6_FIFO_NO ; i ++)
	{
		mUsbFIFOConfig(i, (FS_C1_I0_A0_EP6_FIFO_CONFIG & (~BIT7)) );
  9079a5:	c0b6      	movi.n	a11, 6
  9079a7:	c0a7      	movi.n	a10, 7
  9079a9:	5b73e2        	call8	8e4934 <mUsbFIFOConfig>
	}

	mUsbEPMxPtSzHigh(EP6, FS_C1_I0_A0_EP6_DIRECTION,
  9079ac:	c0b1      	movi.n	a11, 1
  9079ae:	c4c0      	movi.n	a12, 64
  9079b0:	c0a6      	movi.n	a10, 6
  9079b2:	5b73e8        	call8	8e4954 <mUsbEPMxPtSzHigh>
			 (FS_C1_I0_A0_EP6_MAX_PACKET & 0x7ff));
	mUsbEPMxPtSzLow(EP6, FS_C1_I0_A0_EP6_DIRECTION,
  9079b5:	c0b1      	movi.n	a11, 1
  9079b7:	c4c0      	movi.n	a12, 64
  9079b9:	c0a6      	movi.n	a10, 6
  9079bb:	5b73f0        	call8	8e497c <mUsbEPMxPtSzLow>
			(FS_C1_I0_A0_EP6_MAX_PACKET & 0x7ff));
	mUsbEPinHighBandSet(EP6, FS_C1_I0_A0_EP6_DIRECTION,
  9079be:	c0b1      	movi.n	a11, 1
  9079c0:	c4c0      	movi.n	a12, 64
  9079c2:	2a0a06        	movi	a10, 6
  9079c5:	5b73f6        	call8	8e49a0 <mUsbEPinHighBandSet>
  9079c8:	d10f      	retw.n
	...

009079cc <vUsbFIFO_EPxCfg_FS_patch>:
			    FS_C1_I0_A0_EP6_MAX_PACKET);
#endif
}

void vUsbFIFO_EPxCfg_FS_patch(void)
{
  9079cc:	6c1004        	entry	a1, 32
	switch (u8UsbConfigValue)
  9079cf:	1869ea        	l32r	a8, 8e2178 <athos_indirection_table_install+0xc04>
  9079d2:	288100        	l16ui	a8, a8, 0
  9079d5:	698113        	bnei	a8, 1, 9079ec <vUsbFIFO_EPxCfg_FS_patch+0x20>
	{
#if (FS_CONFIGURATION_NUMBER >= 1)
		/* Configuration 0X01 */
        case 0X01:
		switch (u8UsbInterfaceValue)
  9079d8:	1869eb        	l32r	a8, 8e2184 <athos_indirection_table_install+0xc10>
  9079db:	288100        	l16ui	a8, a8, 0
  9079de:	cc8a      	bnez.n	a8, 9079ec <vUsbFIFO_EPxCfg_FS_patch+0x20>
		{
#if (FS_C1_INTERFACE_NUMBER >= 1)
			/* Interface 0 */
                case 0:
			switch (u8UsbInterfaceAlternateSetting)
  9079e0:	1869ec        	l32r	a8, 8e2190 <athos_indirection_table_install+0xc1c>
  9079e3:	288100        	l16ui	a8, a8, 0
  9079e6:	658002        	bnez	a8, 9079ec <vUsbFIFO_EPxCfg_FS_patch+0x20>
                        case 0:

				/* snapped.... */

				/* patch up this ep6_fs config */
				vUSBFIFO_EP6Cfg_FS_patch();
  9079e9:	5bffe7        	call8	907988 <vUSBFIFO_EP6Cfg_FS_patch>
  9079ec:	d10f      	retw.n
	...

009079f0 <bSet_configuration_patch>:
	}
	/* mCHECK_STACK(); */
}

BOOLEAN bSet_configuration_patch(void)
{
  9079f0:	6c1004        	entry	a1, 32
	/* do some defaul configuration */
	bSet_configuration();
  9079f3:	5b7058        	call8	8e3b54 <bSet_configuration>

	/* overwrite defaul FIFO configuration for FullSpeed USB */
	if ((mLOW_BYTE(mDEV_REQ_VALUE()) != 0) && !mUsbHighSpeedST())
  9079f6:	1269ed        	l32r	a2, 8e21ac <athos_indirection_table_install+0xc38>
  9079f9:	222007        	l8ui	a2, a2, 7
  9079fc:	c82a      	beqz.n	a2, 907a0a <bSet_configuration_patch+0x1a>

#include <adf_os_io_pvt.h>

static inline uint8_t ioread8(const volatile uint32_t addr)
{
	return *(const volatile uint8_t *) addr;
  9079fe:	126937        	l32r	a2, 8e1edc <athos_indirection_table_install+0x968>
  907a01:	222000        	l8ui	a2, a2, 0
  907a04:	792f02        	bbsi	a2, 25, 907a0a <bSet_configuration_patch+0x1a>
			vUsbFIFO_EPxCfg_FS_patch();
  907a07:	5bfff1        	call8	9079cc <vUsbFIFO_EPxCfg_FS_patch>

	eUsbCxFinishAction = ACT_DONE;
  907a0a:	1869ee        	l32r	a8, 8e21c4 <athos_indirection_table_install+0xc50>
  907a0d:	c021      	movi.n	a2, 1
  907a0f:	9280      	s32i.n	a2, a8, 0
	return TRUE;
}
  907a11:	d10f      	retw.n
	...

00907a14 <bStandardCommand_patch>:

extern BOOLEAN bStandardCommand(void);

BOOLEAN bStandardCommand_patch(void)
{
  907a14:	6c1004        	entry	a1, 32
	if (mDEV_REQ_REQ() == USB_SET_CONFIGURATION) {
  907a17:	1869ed        	l32r	a8, 8e21cc <athos_indirection_table_install+0xc58>
  907a1a:	298102        	l16ui	a9, a8, 4
  907a1d:	280a09        	movi	a8, 9
  907a20:	78992d        	bne	a9, a8, 907a51 <bStandardCommand_patch+0x3d>
		A_USB_SET_CONFIG();
  907a23:	186915        	l32r	a8, 8e1e78 <athos_indirection_table_install+0x904>
  907a26:	2a8226        	l32i	a10, a8, 152
  907a29:	0ba000        	callx8	a10

#if ENABLE_SWAP_DATA_MODE
		/* SWAP FUNCTION should be enabled while DMA engine
		 * is not working, the best place to enable it
		 * is before we trigger the DMA */
		MAGPIE_REG_USB_RX0_SWAP_DATA = 0x1;
  907a2c:	186955        	l32r	a8, 8e1f80 <athos_indirection_table_install+0xa0c>
  907a2f:	c0a1      	movi.n	a10, 1
  907a31:	0c0200        	memw
  907a34:	9a80      	s32i.n	a10, a8, 0
		MAGPIE_REG_USB_TX0_SWAP_DATA = 0x1;
  907a36:	186956        	l32r	a8, 8e1f90 <athos_indirection_table_install+0xa1c>
  907a39:	0c0200        	memw
  907a3c:	9a80      	s32i.n	a10, a8, 0

#if SYSTEM_MODULE_HP_EP5
		MAGPIE_REG_USB_RX1_SWAP_DATA = 0x1;
  907a3e:	186957        	l32r	a8, 8e1f9c <athos_indirection_table_install+0xa28>
  907a41:	0c0200        	memw
  907a44:	9a80      	s32i.n	a10, a8, 0
#endif

#if SYSTEM_MODULE_HP_EP6
		MAGPIE_REG_USB_RX2_SWAP_DATA = 0x1;
  907a46:	186958        	l32r	a8, 8e1fa8 <athos_indirection_table_install+0xa34>
  907a49:	0c0200        	memw
  907a4c:	9a80      	s32i.n	a10, a8, 0
#endif

#endif /* ENABLE_SWAP_DATA_MODE */
		return TRUE;
  907a4e:	600002        	j	907a54 <bStandardCommand_patch+0x40>
	} else
		return bStandardCommand();
  907a51:	5b7104        	call8	8e3e64 <bStandardCommand>
}
  907a54:	d2a0      	mov.n	a2, a10
  907a56:	d10f      	retw.n

00907a58 <bGet_descriptor_patch>:
#define EP3_INT_INTERVAL		19
#define EP4_TRANSFER_TYPE_OFFSET	21
#define EP4_INT_INTERVAL		22

BOOLEAN bGet_descriptor_patch(void)
{
  907a58:	6c1004        	entry	a1, 32
	if (mDEV_REQ_VALUE_HIGH() == 1)
  907a5b:	1369ed        	l32r	a3, 8e2210 <athos_indirection_table_install+0xc9c>
  907a5e:	223103        	l16ui	a2, a3, 6
  907a61:	028214        	srli	a2, a2, 8
  907a64:	692120        	bnei	a2, 1, 907a88 <bGet_descriptor_patch+0x30>
	{
		uint8_t *p = (uint8_t *)u8UsbDeviceDescriptor;

		/* Copy Usb Device Descriptor */
		ath_hal_memcpy(UsbDeviceDescriptorPatch, p,
  907a67:	1469f0        	l32r	a4, 8e2228 <athos_indirection_table_install+0xcb4>
  907a6a:	1269ef        	l32r	a2, 8e2228 <athos_indirection_table_install+0xcb4>
  907a6d:	8b40      	l32i.n	a11, a4, 0
  907a6f:	da20      	mov.n	a10, a2
  907a71:	c1c2      	movi.n	a12, 18
  907a73:	580034        	call8	907b44 <ath_hal_memcpy>
				sizeof(UsbDeviceDescriptorPatch));

		/* Change bcdDevice. we need it to detect if FW
		 * was uploaded. */
		UsbDeviceDescriptorPatch[BCD_DEVICE_OFFSET] =
  907a76:	c78f      	movi.n	a8, -1
  907a78:	282506        	s16i	a8, a2, 12
			BCD_DEVICE_FW_SIGNATURE;

		pu8DescriptorEX = UsbDeviceDescriptorPatch;
  907a7b:	1869f1        	l32r	a8, 8e2240 <athos_indirection_table_install+0xccc>
  907a7e:	9280      	s32i.n	a2, a8, 0
		u16TxRxCounter = mTABLE_LEN(u8UsbDeviceDescriptor[0]);
  907a80:	8240      	l32i.n	a2, a4, 0
  907a82:	242001        	l8ui	a4, a2, 1
  907a85:	600024        	j	907aad <bGet_descriptor_patch+0x55>
			u16TxRxCounter = mDEV_REQ_LENGTH();

		A_USB_EP0_TX_DATA();

		return TRUE;
	} else if (mDEV_REQ_VALUE_HIGH() == 2) {
  907a88:	69223d        	bnei	a2, 2, 907ac9 <bGet_descriptor_patch+0x71>
		uint8_t *p = (uint8_t *)u8ConfigDescriptorEX;

		/* Copy ConfigDescriptor */
		ath_hal_memcpy(ConfigDescriptorPatch, p,
  907a8b:	1269f4        	l32r	a2, 8e225c <athos_indirection_table_install+0xce8>
  907a8e:	1469f3        	l32r	a4, 8e225c <athos_indirection_table_install+0xce8>
  907a91:	2b2200        	l32i	a11, a2, 0
  907a94:	044a02        	or	a10, a4, a4
  907a97:	2c0a3c        	movi	a12, 60
  907a9a:	58002a        	call8	907b44 <ath_hal_memcpy>
				sizeof(ConfigDescriptorPatch));

		 /* place holder for EPx patches */

		if (mDEV_REQ_VALUE_LOW() == 0) {
  907a9d:	283007        	l8ui	a8, a3, 7
			/* configuration no: 0 */
			pu8DescriptorEX = ConfigDescriptorPatch;
			u16TxRxCounter = ConfigDescriptorPatch[1];
		} else
			return FALSE;
  907aa0:	c020      	movi.n	a2, 0
		ath_hal_memcpy(ConfigDescriptorPatch, p,
				sizeof(ConfigDescriptorPatch));

		 /* place holder for EPx patches */

		if (mDEV_REQ_VALUE_LOW() == 0) {
  907aa2:	728928        	bne	a8, a2, 907ace <bGet_descriptor_patch+0x76>
			/* configuration no: 0 */
			pu8DescriptorEX = ConfigDescriptorPatch;
  907aa5:	1269f1        	l32r	a2, 8e226c <athos_indirection_table_install+0xcf8>
  907aa8:	9420      	s32i.n	a4, a2, 0
			u16TxRxCounter = ConfigDescriptorPatch[1];
  907aaa:	244101        	l16ui	a4, a4, 2
  907aad:	1269f2        	l32r	a2, 8e2278 <athos_indirection_table_install+0xd04>
		} else
			return FALSE;

		if (u16TxRxCounter > mDEV_REQ_LENGTH())
  907ab0:	233105        	l16ui	a3, a3, 10
		 /* place holder for EPx patches */

		if (mDEV_REQ_VALUE_LOW() == 0) {
			/* configuration no: 0 */
			pu8DescriptorEX = ConfigDescriptorPatch;
			u16TxRxCounter = ConfigDescriptorPatch[1];
  907ab3:	242500        	s16i	a4, a2, 0
		} else
			return FALSE;

		if (u16TxRxCounter > mDEV_REQ_LENGTH())
  907ab6:	743b02        	bgeu	a3, a4, 907abc <bGet_descriptor_patch+0x64>
			u16TxRxCounter = mDEV_REQ_LENGTH();
  907ab9:	232500        	s16i	a3, a2, 0

		A_USB_EP0_TX_DATA();
  907abc:	126915        	l32r	a2, 8e1f10 <athos_indirection_table_install+0x99c>
  907abf:	222235        	l32i	a2, a2, 212
  907ac2:	0b2000        	callx8	a2
		return TRUE;
  907ac5:	c021      	movi.n	a2, 1
  907ac7:	d10f      	retw.n
	} else
		return bGet_descriptor();
  907ac9:	5b6ff4        	call8	8e3a9c <bGet_descriptor>
  907acc:	d2a0      	mov.n	a2, a10
}
  907ace:	d10f      	retw.n

00907ad0 <ath_hal_getuptime>:
#include<ah_internal.h>
#include "ah_osdep.h"

a_uint32_t __ahdecl
ath_hal_getuptime(struct ath_hal *ah)
{
  907ad0:	6c1004        	entry	a1, 32
	return MSEC_TO_TICK(msecs);
}
static inline unsigned long
__adf_os_getuptime(void)
{
    return MSEC_TO_TICK(A_MILLISECONDS());;      
  907ad3:	186915        	l32r	a8, 8e1f28 <athos_indirection_table_install+0x9b4>
  907ad6:	2a823e        	l32i	a10, a8, 248
  907ad9:	0ba000        	callx8	a10
	return adf_os_getuptime();
}
  907adc:	d2a0      	mov.n	a2, a10
  907ade:	d10f      	retw.n

00907ae0 <_ath_hal_attach_tgt>:

struct ath_hal *
_ath_hal_attach_tgt(a_uint32_t devid, HAL_SOFTC sc,
		    adf_os_device_t dev, a_uint32_t flags, void* s)
{
  907ae0:	6c1006        	entry	a1, 48
	HAL_STATUS status;
	struct ath_hal *ah = ath_hal_attach_tgt(devid, sc, dev, flags, &status);
  907ae3:	db30      	mov.n	a11, a3
  907ae5:	dc40      	mov.n	a12, a4
  907ae7:	dd50      	mov.n	a13, a5
  907ae9:	de10      	mov.n	a14, a1
  907aeb:	da20      	mov.n	a10, a2
  907aed:	580c97        	call8	90ad4c <ath_hal_attach_tgt>
	adf_os_print(" ath_hal = %p \n",ah);
  907af0:	186915        	l32r	a8, 8e1f44 <athos_indirection_table_install+0x9d0>
struct ath_hal *
_ath_hal_attach_tgt(a_uint32_t devid, HAL_SOFTC sc,
		    adf_os_device_t dev, a_uint32_t flags, void* s)
{
	HAL_STATUS status;
	struct ath_hal *ah = ath_hal_attach_tgt(devid, sc, dev, flags, &status);
  907af3:	d2a0      	mov.n	a2, a10
	adf_os_print(" ath_hal = %p \n",ah);
  907af5:	288212        	l32i	a8, a8, 72
  907af8:	1a69f5        	l32r	a10, 8e22cc <athos_indirection_table_install+0xd58>
  907afb:	db20      	mov.n	a11, a2
  907afd:	0b8000        	callx8	a8
	*(HAL_STATUS *)s = status;
  907b00:	8810      	l32i.n	a8, a1, 0
  907b02:	9860      	s32i.n	a8, a6, 0
	return ah;
}
  907b04:	d10f      	retw.n
	...

00907b08 <ath_hal_delay>:
/*
 * Delay n microseconds.
 */
void __ahdecl
ath_hal_delay(a_int32_t n)
{
  907b08:	6c1004        	entry	a1, 32
}

static inline void
__adf_os_udelay(int usecs)
{
    A_DELAY_USECS(usecs);
  907b0b:	186915        	l32r	a8, 8e1f60 <athos_indirection_table_install+0x9ec>
  907b0e:	da20      	mov.n	a10, a2
  907b10:	28823b        	l32i	a8, a8, 236
  907b13:	0b8000        	callx8	a8
  907b16:	d10f      	retw.n

00907b18 <ath_hal_malloc>:
/*
 * Allocate/free memory.
 */
void * __ahdecl
ath_hal_malloc(adf_os_size_t size)
{
  907b18:	6c1004        	entry	a1, 32
  907b1b:	146915        	l32r	a4, 8e1f70 <athos_indirection_table_install+0x9fc>
  907b1e:	d320      	mov.n	a3, a2
  907b20:	224252        	l32i	a2, a4, 0x148
  907b23:	c0a0      	movi.n	a10, 0
  907b25:	db30      	mov.n	a11, a3
  907b27:	0b2000        	callx8	a2
  907b2a:	d2a0      	mov.n	a2, a10
	void *p;

	p = adf_os_mem_alloc(size);
	if (p)
  907b2c:	c8a8      	beqz.n	a10, 907b38 <ath_hal_malloc+0x20>
}
/* zero a memory buffer */
static inline void
__adf_os_mem_zero(void *buf, adf_os_size_t size)
{
    A_MEMZERO(buf,size);
  907b2e:	8444      	l32i.n	a4, a4, 16
  907b30:	c0b0      	movi.n	a11, 0
  907b32:	033c02        	or	a12, a3, a3
  907b35:	0b4000        	callx8	a4
		adf_os_mem_zero(p, size);

	return p;
}
  907b38:	d10f      	retw.n
	...

00907b3c <ath_hal_free>:

void __ahdecl
ath_hal_free(void* p)
{
  907b3c:	6c1004        	entry	a1, 32
  907b3f:	d10f      	retw.n
  907b41:	000000        	ill

00907b44 <ath_hal_memcpy>:
	adf_os_mem_free(p);
}

void * __ahdecl
ath_hal_memcpy(void *dst, const void *src, adf_os_size_t n)
{
  907b44:	6c1004        	entry	a1, 32
}

/* move a memory buffer */
static inline void 		__adf_os_mem_copy(void *dst, const void *src, adf_os_size_t size)
{
    A_MEMCPY(dst,src,size);    
  907b47:	186915        	l32r	a8, 8e1f9c <athos_indirection_table_install+0xa28>
  907b4a:	da20      	mov.n	a10, a2
  907b4c:	8885      	l32i.n	a8, a8, 20
  907b4e:	db30      	mov.n	a11, a3
  907b50:	dc40      	mov.n	a12, a4
  907b52:	0b8000        	callx8	a8
	adf_os_mem_copy(dst, src, n);
	return 0;
}
  907b55:	c020      	movi.n	a2, 0
  907b57:	d10f      	retw.n
  907b59:	000000        	ill

00907b5c <__adf_os_mem_alloc>:

#include "cmnos_api.h"
#include "Magpie_api.h"

static inline void *	__adf_os_mem_alloc(adf_os_size_t size)
{
  907b5c:	6c1004        	entry	a1, 32
//    return (malloc(size,M_DEVBUF,M_DONTWAIT | M_ZERO));
    return A_ALLOCRAM(size);
  907b5f:	186915        	l32r	a8, 8e1fb4 <athos_indirection_table_install+0xa40>
  907b62:	db20      	mov.n	a11, a2
  907b64:	288252        	l32i	a8, a8, 0x148
  907b67:	c0a0      	movi.n	a10, 0
  907b69:	0b8000        	callx8	a8
}
  907b6c:	d2a0      	mov.n	a2, a10
  907b6e:	d10f      	retw.n

00907b70 <__adf_os_mem_copy>:
    //free(buf,M_DEVBUF);
}

/* move a memory buffer */
static inline void 		__adf_os_mem_copy(void *dst, const void *src, adf_os_size_t size)
{
  907b70:	6c1004        	entry	a1, 32
    A_MEMCPY(dst,src,size);    
  907b73:	186915        	l32r	a8, 8e1fc8 <athos_indirection_table_install+0xa54>
  907b76:	da20      	mov.n	a10, a2
  907b78:	8885      	l32i.n	a8, a8, 20
  907b7a:	db30      	mov.n	a11, a3
  907b7c:	dc40      	mov.n	a12, a4
  907b7e:	0b8000        	callx8	a8
  907b81:	d10f      	retw.n
	...

00907b84 <__adf_os_mem_set>:
}

/* set a memory buffer */
static inline void
__adf_os_mem_set(void *buf, a_uint8_t b, adf_os_size_t size)
{
  907b84:	6c1004        	entry	a1, 32
	A_MEMSET(buf, b, size);
  907b87:	186915        	l32r	a8, 8e1fdc <athos_indirection_table_install+0xa68>
  907b8a:	da20      	mov.n	a10, a2
  907b8c:	8884      	l32i.n	a8, a8, 16
  907b8e:	db30      	mov.n	a11, a3
  907b90:	dc40      	mov.n	a12, a4
  907b92:	0b8000        	callx8	a8
  907b95:	d10f      	retw.n
	...

00907b98 <tgt_HTCRecv_uapsdhandler>:
	ath_tgt_send_beacon(sc, hdr_buf, buf, EndPt);
}

static void tgt_HTCRecv_uapsdhandler(HTC_ENDPOINT_ID EndPt, adf_nbuf_t hdr_buf,
				     adf_nbuf_t buf, void *ServiceCtx)
{
  907b98:	6c1004        	entry	a1, 32
  907b9b:	d10f      	retw.n
  907b9d:	000000        	ill

00907ba0 <dispatch_magpie_sys_cmds>:
	wmi_cmd_rsp(sc->tgt_wmi_handle, Command, SeqNo, NULL, 0);
}

static void dispatch_magpie_sys_cmds(void *pContext, A_UINT16 Command,
				     A_UINT16 SeqNo, A_UINT8 *buffer, a_int32_t Length)
{
  907ba0:	6c1004        	entry	a1, 32
	adf_os_assert(0);
  907ba3:	186915        	l32r	a8, 8e1ff8 <athos_indirection_table_install+0xa84>
  907ba6:	1a69f6        	l32r	a10, 8e2380 <athos_indirection_table_install+0xe0c>
  907ba9:	288212        	l32i	a8, a8, 72
  907bac:	1b69f7        	l32r	a11, 8e2388 <athos_indirection_table_install+0xe14>
  907baf:	0b8000        	callx8	a8
  907bb2:	18697a        	l32r	a8, 8e219c <athos_indirection_table_install+0xc28>
  907bb5:	0c0200        	memw
  907bb8:	8880      	l32i.n	a8, a8, 0
  907bba:	d10f      	retw.n

00907bbc <htc_setup_comp>:
/*****************/
/* Init / Deinit */
/*****************/

static void htc_setup_comp(void)
{
  907bbc:	6c1004        	entry	a1, 32
  907bbf:	d10f      	retw.n
  907bc1:	000000        	ill

00907bc4 <tgt_reg_service>:
	return HTC_SERVICE_SUCCESS;
}

static void tgt_reg_service(struct ath_softc_tgt *sc, HTC_SERVICE *svc,
			    int svcId, HTC_SERVICE_ProcessRecvMsg recvMsg)
{
  907bc4:	6c1004        	entry	a1, 32
	svc->ProcessRecvMsg = recvMsg;
	svc->ProcessSendBufferComplete = tgt_HTCSendCompleteHandler;
  907bc7:	1869f8        	l32r	a8, 8e23a8 <athos_indirection_table_install+0xe34>
	svc->ProcessConnect = tgt_ServiceConnect;
	svc->MaxSvcMsgSize = 1600;
	svc->TrailerSpcCheckLimit = 0;
	svc->ServiceID = svcId;
	svc->ServiceCtx = sc;
	HTC_RegisterService(sc->tgt_htc_handle, svc);
  907bca:	8a22      	l32i.n	a10, a2, 8

static void tgt_reg_service(struct ath_softc_tgt *sc, HTC_SERVICE *svc,
			    int svcId, HTC_SERVICE_ProcessRecvMsg recvMsg)
{
	svc->ProcessRecvMsg = recvMsg;
	svc->ProcessSendBufferComplete = tgt_HTCSendCompleteHandler;
  907bcc:	9832      	s32i.n	a8, a3, 8
	svc->ProcessConnect = tgt_ServiceConnect;
  907bce:	1869f9        	l32r	a8, 8e23b4 <athos_indirection_table_install+0xe40>
	return HTC_SERVICE_SUCCESS;
}

static void tgt_reg_service(struct ath_softc_tgt *sc, HTC_SERVICE *svc,
			    int svcId, HTC_SERVICE_ProcessRecvMsg recvMsg)
{
  907bd1:	db30      	mov.n	a11, a3
	svc->ProcessRecvMsg = recvMsg;
	svc->ProcessSendBufferComplete = tgt_HTCSendCompleteHandler;
	svc->ProcessConnect = tgt_ServiceConnect;
  907bd3:	9833      	s32i.n	a8, a3, 12
	svc->MaxSvcMsgSize = 1600;
  907bd5:	286a40        	movi	a8, 0x640
  907bd8:	28350a        	s16i	a8, a3, 20
	svc->TrailerSpcCheckLimit = 0;
  907bdb:	c080      	movi.n	a8, 0
  907bdd:	28350b        	s16i	a8, a3, 22
	svc->ServiceID = svcId;
	svc->ServiceCtx = sc;
	HTC_RegisterService(sc->tgt_htc_handle, svc);
  907be0:	186915        	l32r	a8, 8e2034 <athos_indirection_table_install+0xac0>
}

static void tgt_reg_service(struct ath_softc_tgt *sc, HTC_SERVICE *svc,
			    int svcId, HTC_SERVICE_ProcessRecvMsg recvMsg)
{
	svc->ProcessRecvMsg = recvMsg;
  907be3:	9531      	s32i.n	a5, a3, 4
	svc->ProcessConnect = tgt_ServiceConnect;
	svc->MaxSvcMsgSize = 1600;
	svc->TrailerSpcCheckLimit = 0;
	svc->ServiceID = svcId;
	svc->ServiceCtx = sc;
	HTC_RegisterService(sc->tgt_htc_handle, svc);
  907be5:	288280        	l32i	a8, a8, 0x200
	svc->ProcessRecvMsg = recvMsg;
	svc->ProcessSendBufferComplete = tgt_HTCSendCompleteHandler;
	svc->ProcessConnect = tgt_ServiceConnect;
	svc->MaxSvcMsgSize = 1600;
	svc->TrailerSpcCheckLimit = 0;
	svc->ServiceID = svcId;
  907be8:	243508        	s16i	a4, a3, 16
	svc->ServiceCtx = sc;
  907beb:	9236      	s32i.n	a2, a3, 24
	HTC_RegisterService(sc->tgt_htc_handle, svc);
  907bed:	0b8000        	callx8	a8
  907bf0:	d10f      	retw.n
	...

00907bf4 <tgt_HTCRecv_mgmthandler>:
{
}

static void tgt_HTCRecv_mgmthandler(HTC_ENDPOINT_ID EndPt, adf_nbuf_t hdr_buf,
				    adf_nbuf_t buf, void *ServiceCtx)
{
  907bf4:	6c1004        	entry	a1, 32
	struct ath_softc_tgt *sc = (struct ath_softc_tgt *)ServiceCtx;

	ath_tgt_send_mgt(sc,hdr_buf,buf,EndPt);
  907bf7:	da50      	mov.n	a10, a5
  907bf9:	db30      	mov.n	a11, a3
  907bfb:	dc40      	mov.n	a12, a4
  907bfd:	dd20      	mov.n	a13, a2
  907bff:	581899        	call8	90de64 <ath_tgt_send_mgt>
  907c02:	d10f      	retw.n

00907c04 <ath_tgt_rx_tasklet>:

	return 0;
}

static void ath_tgt_rx_tasklet(TQUEUE_ARG data)
{
  907c04:	6c1006        	entry	a1, 48
	struct ath_softc_tgt *sc  = (struct ath_softc_tgt *)data;
	struct ath_rx_buf *bf = NULL;
	struct ath_hal *ah = sc->sc_ah;
  907c07:	232d05        	addmi	a3, a2, 0x500
  907c0a:	853b      	l32i.n	a5, a3, 44
			continue;
		}

		asf_tailq_remove(&sc->sc_rxbuf, bf, bf_list);

		bf->bf_skb = NULL;
  907c0c:	c060      	movi.n	a6, 0
	struct rx_frame_header *rxhdr;
	struct ath_rx_status *rxstats;
	adf_nbuf_t skb = ADF_NBUF_NULL;

	do {
		bf = asf_tailq_first(&sc->sc_rxbuf);
  907c0e:	2322d5        	l32i	a3, a2, 0x354
		if (bf == NULL) {
  907c11:	64309c        	beqz	a3, 907cb1 <ath_tgt_rx_tasklet+0xad>
			break;
		}

		if (!(bf->bf_status & ATH_BUFSTATUS_DONE)) {
  907c14:	843f      	l32i.n	a4, a3, 60
  907c16:	7f4f02        	bbsi	a4, 31, 907c1c <ath_tgt_rx_tasklet+0x18>
  907c19:	600094        	j	907cb1 <ath_tgt_rx_tasklet+0xad>
			break;
		}

		skb = bf->bf_skb;
  907c1c:	8938      	l32i.n	a9, a3, 32
		if (skb == NULL) {
  907c1e:	649ff2        	beqz	a9, 907c14 <ath_tgt_rx_tasklet+0x10>
			continue;
		}

		asf_tailq_remove(&sc->sc_rxbuf, bf, bf_list);
  907c21:	8439      	l32i.n	a4, a3, 36
  907c23:	873a      	l32i.n	a7, a3, 40
  907c25:	c844      	beqz.n	a4, 907c2d <ath_tgt_rx_tasklet+0x29>
  907c27:	974a      	s32i.n	a7, a4, 40
  907c29:	600003        	j	907c30 <ath_tgt_rx_tasklet+0x2c>
  907c2c:	002726        	excw
  907c2f:	d687      	excw
  907c31:	3ada90        	excw
  907c34:	9470      	s32i.n	a4, a7, 0

		bf->bf_skb = NULL;
  907c36:	9638      	s32i.n	a6, a3, 32
 *         or NULL if there is not enough room in this buf.
 */
static inline a_uint8_t *
adf_nbuf_push_head(adf_nbuf_t buf, adf_os_size_t size)
{
    return __adf_nbuf_push_head(buf, size);
  907c38:	2b0a28        	movi	a11, 40
  907c3b:	291600        	s32i	a9, a1, 0
  907c3e:	5bfb3e        	call8	906938 <__adf_nbuf_push_head>
 * @param[in] size    buffer size
 */
static inline void
adf_os_mem_copy(void *dst, const void *src, adf_os_size_t size)
{
    __adf_os_mem_copy(dst, src, size);
  907c41:	2b3c40        	addi	a11, a3, 64
  907c44:	2c0a28        	movi	a12, 40
  907c47:	0aa702        	or	a7, a10, a10
  907c4a:	5bffc9        	call8	907b70 <__adf_os_mem_copy>
/*
 * Extend a 32 bit TSF to 64 bit, taking wrapping into account.
 */
static u_int64_t ath_extend_tsf(struct ath_softc_tgt *sc, u_int32_t rstamp)
{
	struct ath_hal *ah = sc->sc_ah;
  907c4d:	282d05        	addmi	a8, a2, 0x500
  907c50:	8a8b      	l32i.n	a10, a8, 44
						     sizeof(struct rx_frame_header));
		rxstats = (struct ath_rx_status *)(&rxhdr->rx_stats[0]);
		adf_os_mem_copy(rxstats, &(bf->bf_rx_status),
				sizeof(struct ath_rx_status));

		rxstats->rs_tstamp = ath_extend_tsf(sc, (u_int32_t)rxstats->rs_tstamp);
  907c52:	8471      	l32i.n	a4, a7, 4
	struct ath_hal *ah = sc->sc_ah;
	u_int64_t tsf;
	u_int32_t tsf_low;
	u_int64_t tsf64;

	tsf = ah->ah_getTsf64(ah);
  907c54:	28a21e        	l32i	a8, a10, 120
  907c57:	0b8000        	callx8	a8
	tsf_low = tsf & 0xffffffff;
	tsf64 = (tsf & ~0xffffffffULL) | rstamp;
  907c5a:	d8a0      	mov.n	a8, a10

	if (rstamp > tsf_low && (rstamp - tsf_low > 0x10000000))
  907c5c:	8910      	l32i.n	a9, a1, 0
  907c5e:	74bb0a        	bgeu	a11, a4, 907c6c <ath_tgt_rx_tasklet+0x68>
  907c61:	1c69fa        	l32r	a12, 8e244c <athos_indirection_table_install+0xed8>
  907c64:	0b4a0c        	sub	a10, a4, a11
  907c67:	7acb01        	bgeu	a12, a10, 907c6c <ath_tgt_rx_tasklet+0x68>
		tsf64 -= 0x100000000ULL;
  907c6a:	b088      	addi.n	a8, a8, -1

	if (rstamp < tsf_low && (tsf_low - rstamp > 0x10000000))
  907c6c:	7b4b0a        	bgeu	a4, a11, 907c7a <ath_tgt_rx_tasklet+0x76>
  907c6f:	1a69fa        	l32r	a10, 8e2458 <athos_indirection_table_install+0xee4>
  907c72:	04bb0c        	sub	a11, a11, a4
  907c75:	7bab01        	bgeu	a10, a11, 907c7a <ath_tgt_rx_tasklet+0x76>
		tsf64 += 0x100000000ULL;
  907c78:	b188      	addi.n	a8, a8, 1
						     sizeof(struct rx_frame_header));
		rxstats = (struct ath_rx_status *)(&rxhdr->rx_stats[0]);
		adf_os_mem_copy(rxstats, &(bf->bf_rx_status),
				sizeof(struct ath_rx_status));

		rxstats->rs_tstamp = ath_extend_tsf(sc, (u_int32_t)rxstats->rs_tstamp);
  907c7a:	9471      	s32i.n	a4, a7, 4

		HTC_SendMsg(sc->tgt_htc_handle, RX_ENDPOINT_ID, skb);
  907c7c:	146915        	l32r	a4, 8e20d0 <athos_indirection_table_install+0xb5c>
  907c7f:	8a22      	l32i.n	a10, a2, 8
  907c81:	244284        	l32i	a4, a4, 0x210
						     sizeof(struct rx_frame_header));
		rxstats = (struct ath_rx_status *)(&rxhdr->rx_stats[0]);
		adf_os_mem_copy(rxstats, &(bf->bf_rx_status),
				sizeof(struct ath_rx_status));

		rxstats->rs_tstamp = ath_extend_tsf(sc, (u_int32_t)rxstats->rs_tstamp);
  907c84:	9870      	s32i.n	a8, a7, 0

		HTC_SendMsg(sc->tgt_htc_handle, RX_ENDPOINT_ID, skb);
  907c86:	c0b3      	movi.n	a11, 3
  907c88:	dc90      	mov.n	a12, a9
  907c8a:	0b4000        	callx8	a4
		sc->sc_rx_stats.ast_rx_send++;
  907c8d:	24227d        	l32i	a4, a2, 0x1f4

		bf->bf_status &= ~ATH_BUFSTATUS_DONE;
  907c90:	873f      	l32i.n	a7, a3, 60
				sizeof(struct ath_rx_status));

		rxstats->rs_tstamp = ath_extend_tsf(sc, (u_int32_t)rxstats->rs_tstamp);

		HTC_SendMsg(sc->tgt_htc_handle, RX_ENDPOINT_ID, skb);
		sc->sc_rx_stats.ast_rx_send++;
  907c92:	b144      	addi.n	a4, a4, 1
  907c94:	24267d        	s32i	a4, a2, 0x1f4

		bf->bf_status &= ~ATH_BUFSTATUS_DONE;
  907c97:	c74e      	movi.n	a4, -2
  907c99:	047401        	and	a4, a7, a4
  907c9c:	943f      	s32i.n	a4, a3, 60
		asf_tailq_insert_tail(&sc->sc_rxbuf, bf, bf_list);
  907c9e:	2422d6        	l32i	a4, a2, 0x358
  907ca1:	9639      	s32i.n	a6, a3, 36
  907ca3:	943a      	s32i.n	a4, a3, 40
  907ca5:	9340      	s32i.n	a3, a4, 0
  907ca7:	233c24        	addi	a3, a3, 36
  907caa:	2326d6        	s32i	a3, a2, 0x358
  907cad:	63ff5d        	j	907c0e <ath_tgt_rx_tasklet+0xa>
  907cb0:	002322        	excw

	} while(1);

	sc->sc_imask |= HAL_INT_RX;
  907cb3:	c4c0      	movi.n	a12, 64
  907cb5:	b103      	addi.n	a3, a0, 1
  907cb7:	bb02      	addi.n	a2, a0, 11
  907cb9:	2b26c4        	s32i	a11, a2, 0x310
	ah->ah_setInterrupts(ah, sc->sc_imask);
  907cbc:	225228        	l32i	a2, a5, 160
  907cbf:	da50      	mov.n	a10, a5
  907cc1:	0b2000        	callx8	a2
  907cc4:	d10f      	retw.n
	...

00907cc8 <ath_descdma_cleanup>:
}

static void ath_descdma_cleanup(struct ath_softc_tgt *sc,
				struct ath_descdma *dd,
				ath_bufhead *head, a_int32_t dir)
{
  907cc8:	6c1006        	entry	a1, 48
	struct ath_buf *bf;
	struct ieee80211_node_target *ni;

	asf_tailq_foreach(bf, head, bf_list) {
  907ccb:	8740      	l32i.n	a7, a4, 0
  907ccd:	60007d        	j	907d4e <ath_descdma_cleanup+0x86>
		if (adf_nbuf_queue_len(&bf->bf_skbhead) != 0) {
  907cd0:	267c14        	addi	a6, a7, 20
 * @return length of the queue
 */
static inline a_uint32_t
adf_nbuf_queue_len(adf_nbuf_queue_t *head)
{
    return __adf_nbuf_queue_len(head);
  907cd3:	da60      	mov.n	a10, a6
  907cd5:	5bfbfc        	call8	906cc8 <__adf_nbuf_queue_len>
  907cd8:	d9a0      	mov.n	a9, a10
  907cda:	cbac      	beqz.n	a10, 907d1a <ath_descdma_cleanup+0x52>
static inline void
adf_nbuf_unmap(adf_os_device_t      osdev, 
               adf_os_dma_map_t     bmap, 
               adf_os_dma_dir_t     dir)
{
    __adf_nbuf_unmap(osdev, bmap, dir);
  907cdc:	2a2246        	l32i	a10, a2, 0x118
  907cdf:	2b7200        	l32i	a11, a7, 0
  907ce2:	055c02        	or	a12, a5, a5
  907ce5:	5bfb68        	call8	906a88 <__adf_nbuf_unmap>
