
/home/lex/tmp/my/ath9k-htc-firmware-blob/k2/fw.elf:     Dateiformat elf32-xtensa-be
/home/lex/tmp/my/ath9k-htc-firmware-blob/k2/fw.elf
Architektur: xtensa, Flags 0x00000112:
EXEC_P, HAS_SYMS, D_PAGED
Startadresse 0x00903000

Xtensa header:

Machine     = Base
Insn tables = true
Literal tables = true

Programm-Header:
    LOAD off    0x00501000 vaddr 0x00501000 paddr 0x00501000 align 2**29
         filesz 0x00000b40 memsz 0x00000b40 flags r--
    LOAD off    0x0050cb40 vaddr 0x0050cb40 paddr 0x0050cb40 align 2**29
         filesz 0x00000bfc memsz 0x00000cc8 flags rw-
    LOAD off    0x00903000 vaddr 0x00903000 paddr 0x00903000 align 2**29
         filesz 0x00007ec5 memsz 0x00007ec5 flags r-x

Sektionen:
Idx Name          Größe     VMA       LMA       Datei-Off Ausr.
  0 .lit4         0001be00  004e5200  004e5200  00000000  2**0
                  ALLOC
  1 .rodata       00000600  00501000  00501000  00501000  2**2
                  CONTENTS, ALLOC, LOAD, READONLY, DATA
  2 .literals     00000540  00501600  00501600  00501600  2**2
                  CONTENTS, ALLOC, LOAD, READONLY, DATA
  3 .data         00000bfc  0050cb40  0050cb40  0050cb40  2**2
                  CONTENTS, ALLOC, LOAD, DATA
  4 .bss          000000cc  0050d73c  0050d73c  0050d73c  2**2
                  ALLOC
  5 .boot         0000024e  00903000  00903000  00903000  2**2
                  CONTENTS, ALLOC, LOAD, READONLY, CODE
  6 .text         00007c75  00903250  00903250  00903250  2**2
                  CONTENTS, ALLOC, LOAD, READONLY, CODE
  7 .debug_aranges 00000348  00000000  00000000  0090aec5  2**0
                  CONTENTS, READONLY, DEBUGGING
  8 .debug_info   00056ea3  00000000  00000000  0090b20d  2**0
                  CONTENTS, READONLY, DEBUGGING
  9 .debug_abbrev 00005923  00000000  00000000  009620b0  2**0
                  CONTENTS, READONLY, DEBUGGING
 10 .debug_line   000112eb  00000000  00000000  009679d3  2**0
                  CONTENTS, READONLY, DEBUGGING
 11 .debug_frame  00001ce8  00000000  00000000  00978cc0  2**2
                  CONTENTS, READONLY, DEBUGGING
 12 .debug_str    00007f5b  00000000  00000000  0097a9a8  2**0
                  CONTENTS, READONLY, DEBUGGING
 13 .debug_loc    0000dbf1  00000000  00000000  00982903  2**0
                  CONTENTS, READONLY, DEBUGGING
 14 .xt.prop      00004bfc  00000000  00000000  009904f4  2**0
                  CONTENTS, READONLY
 15 .debug_ranges 00001390  00000000  00000000  009950f0  2**0
                  CONTENTS, READONLY, DEBUGGING
 16 .comment      0000006d  00000000  00000000  00996480  2**0
                  CONTENTS, READONLY
 17 .xtensa.info  00000038  00000000  00000000  009964ed  2**0
                  CONTENTS, READONLY
SYMBOL TABLE:
004e5200 l    d  .lit4	00000000 .lit4
00501000 l    d  .rodata	00000000 .rodata
00501600 l    d  .literals	00000000 .literals
0050cb40 l    d  .data	00000000 .data
0050d73c l    d  .bss	00000000 .bss
00903000 l    d  .boot	00000000 .boot
00903250 l    d  .text	00000000 .text
00000000 l    d  .debug_aranges	00000000 .debug_aranges
00000000 l    d  .debug_info	00000000 .debug_info
00000000 l    d  .debug_abbrev	00000000 .debug_abbrev
00000000 l    d  .debug_line	00000000 .debug_line
00000000 l    d  .debug_frame	00000000 .debug_frame
00000000 l    d  .debug_str	00000000 .debug_str
00000000 l    d  .debug_loc	00000000 .debug_loc
00000000 l    d  .xt.prop	00000000 .xt.prop
00000000 l    d  .debug_ranges	00000000 .debug_ranges
00000000 l    d  .comment	00000000 .comment
00000000 l    d  .xtensa.info	00000000 .xtensa.info
00000000 l    df *ABS*	00000000 magpie.c
00501000 l     O .rodata	0000000d __FUNCTION__$3683
00000000 l    df *ABS*	00000000 usb_api_main_patch.c
0050cb40 l     O .data	00000002 cmd_is_new$3658
0050d750 l     O .bss	00000004 evntbuf$3656
0050d754 l     O .bss	00000004 regaddr$3657
0050d758 l     O .bss	00000002 buf_len$3655
0050cb42 l     O .data	00000002 cmd_is_new$3677
0050d75c l     O .bss	00000004 buf$3675
0050d760 l     O .bss	00000002 cmd_len$3674
00501010 l     O .rodata	00000012 __func__$3678
0050d764 l     O .bss	00000004 regaddr$3673
00000000 l    df *ABS*	00000000 ar5416_hw.c
00501024 l     O .rodata	000000d0 ar5416hal_10
00000000 l    df *ABS*	00000000 if_ath.c
0090641c l     F .text	00000014 __adf_os_mem_alloc
00906430 l     F .text	00000013 __adf_os_mem_copy
00906444 l     F .text	00000013 __adf_os_mem_set
00906458 l     F .text	00000005 tgt_HTCRecv_uapsdhandler
00906460 l     F .text	00000006 dispatch_magpie_sys_cmds
00906468 l     F .text	00000005 htc_setup_comp
00906470 l     F .text	0000005b tgt_ServiceConnect
00906abc l     F .text	00000130 tgt_HTCSendCompleteHandler
009064cc l     F .text	0000002e tgt_reg_service
009064fc l     F .text	00000010 tgt_HTCRecv_mgmthandler
0090650c l     F .text	000000b6 ath_tgt_rx_tasklet
009065c4 l     F .text	00000098 ath_descdma_cleanup
0090665c l     F .text	00000014 __adf_os_init_bh$isra$4
00906670 l     F .text	00000010 __adf_os_sched_bh$isra$5
0050d77c l     O .bss	00000001 flg$7201
0050d77d l     O .bss	00000001 reset_pll$7195
00906680 l     F .text	0000008e ath_hal_reg_write_filter$isra$10
00906710 l     F .text	0000005c ath_reg_read_filter
0090676c l     F .text	0000004c ath_desc_free
009067b8 l     F .text	0000009b ath_descdma_setup$constprop$20
00906854 l     F .text	00000096 tgt_HTCRecvMessageHandler
009068ec l     F .text	0000003b tgt_HTCRecv_cabhandler
00906928 l     F .text	00000194 ath_rxdesc_init
00906c3c l     F .text	00000012 ath_fatal_tasklet
00906c50 l     F .text	00000012 ath_bmiss_tasklet
0050cdc0 l     O .data	00000004 ath_numrxbufs
0090739c l     F .text	0000004e ath_hal_reg_rmw_tgt
009073ec l     F .text	00000084 ath_rc_mask_tgt
00907470 l     F .text	00000023 ath_rx_stats_tgt
00907494 l     F .text	00000042 ath_tx_stats_tgt
009074d8 l     F .text	00000032 ath_int_stats_tgt
0090750c l     F .text	00000062 ath_node_update_tgt
00907570 l     F .text	0000002a ath_detach_tgt
00501118 l     O .rodata	00000014 __FUNCTION__$7117
0090759c l     F .text	00000088 ath_enable_aggr_tgt
00907624 l     F .text	0000002c ath_ic_update_tgt
00907650 l     F .text	00000056 handle_rc_rate_update_cmd
009076a8 l     F .text	00000052 handle_rc_state_change_cmd
009076fc l     F .text	0000002e ath_hal_reg_write_tgt
0090772c l     F .text	0000003f ath_hal_reg_read_tgt
0090776c l     F .text	0000005e ath_vap_create_tgt
009077cc l     F .text	00000054 ath_vap_delete_tgt
00907820 l     F .text	0000002c ath_node_cleanup_tgt
0090784c l     F .text	00000097 ath_node_create_tgt
009078e4 l     F .text	00000063 ath_setcurmode_tgt
00907948 l     F .text	00000050 ath_flushrecv_tgt
00907998 l     F .text	0000003a ath_stoprecv_tgt
009079d4 l     F .text	00000086 ath_startrecv_tgt
00907a5c l     F .text	000000c8 ath_draintxq_tgt
00907b24 l     F .text	0000002e ath_tx_draintxq_tgt
00907b54 l     F .text	00000023 ath_aborttx_dma_tgt
00907b78 l     F .text	00000026 ath_stop_tx_dma_tgt
00907ba0 l     F .text	00000040 ath_aborttxq_tgt
00907be0 l     F .text	0000004e ath_init_tgt
00907c30 l     F .text	00000054 ath_enable_intr_tgt
00907c84 l     F .text	00000026 ath_disable_intr_tgt
00907cac l     F .text	0000001e ath_get_tgt_version
00907ccc l     F .text	00000013 handle_echo_command
00907cf8 l     F .text	00000196 tgt_HTCRecv_beaconhandler
0050cdc8 l     O .data	00000100 Magpie_Sys_DispatchEntries
0050cdc4 l     O .data	00000004 ath_numrxdescs
00000000 l    df *ABS*	00000000 ratectrl_11n_ln.c
00908318 l     F .text	00000074 rcIsValidPhyRate
0090838c l     F .text	00000085 rcRateSetseries$isra$5
0050112c l     O .rodata	00000028 nRetry2PerLookup$7037
00908414 l     F .text	000001f6 rcUpdate_ht$isra$7
0090860c l     F .text	00000351 rcSibUpdate_ht$constprop$9
00000000 l    df *ABS*	00000000 if_owl.c
00908ec0 l     F .text	00000013 __adf_os_mem_copy
00501194 l     O .rodata	00000011 CSWTCH$54
00908ed4 l     F .text	0000004f ieee80211_anyhdrsize
00908f24 l     F .text	0000004b owl_tgt_tid_init
00908f70 l     F .text	00000077 ath_tgt_txq_add_ucast
00908fe8 l     F .text	0000006e ath_update_stats
00909058 l     F .text	0000005e ath_tx_update_baw
009090b8 l     F .text	00000016 ath_dma_unmap
009090d0 l     F .text	00000026 ath_tgt_skb_free
009090f8 l     F .text	000000a6 ath_filltxdesc
009091a0 l     F .text	0000004e ath_tx_tgt_setds
009091f0 l     F .text	00000024 ath_tgt_tx_enqueue
00909214 l     F .text	00000082 ath_update_aggr_stats$isra$2
00909298 l     F .text	00000013 __adf_os_mem_set$constprop$13
00501154 l     O .rodata	00000040 bits_per_symbol
009092ac l     F .text	000001ea ath_buf_set_rate
00909498 l     F .text	00000017 ath_dma_map
009094b0 l     F .text	000000cd ath_buf_toggle
0090accc l     F .text	000000f4 ath_bar_tx_comp
00909580 l     F .text	0000015b ath_bar_tx
009096dc l     F .text	0000003c ath_buf_comp
00909718 l     F .text	00000086 ath_tx_freebuf
009097b0 l     F .text	00000031 ath_tx_set_retry
00909934 l     F .text	000000e0 ath_tx_retry_subframe
00909a14 l     F .text	000000ae ath_tx_comp_aggr_error
0090a6e8 l     F .text	0000004e ath_tgt_tx_comp_normal
0090a45c l     F .text	000001f3 ath_tgt_txq_schedule
0090a650 l     F .text	0000004a ath_aggr_resume_tid
0090a69c l     F .text	0000004b owl_tgt_tid_cleanup
00000000 l    df *ABS*	00000000 app_start.c
0090adcc l     F .text	00000029 io32_rmw
00000000 l    df *ABS*	00000000 ah_osdep.c
00000000 l    df *ABS*	00000000 wlan_pci.c
00000000 l    df *ABS*	00000000 usb_api_k2_patch.c
00904698 l     F .text	0000002b io8_rmw
009046c4 l     F .text	00000021 io32_rmw$constprop$0
00000000 l    df *ABS*	00000000 k2_fw_cmnos_printf.c
00904ad0 l     F .text	00000055 _cvt
00904b28 l     F .text	0000002a cmnos_write_char
00000000 l    df *ABS*	00000000 if_ath_pci.c
00906348 l     F .text	00000005 ath_pci_suspend
00906350 l     F .text	00000005 ath_pci_resume
00906358 l     F .text	00000010 ath_pci_remove
0050cd80 l     O .data	00000020 ath_drv_info
00906378 l     F .text	0000007e ath_pci_probe
0050cda0 l     O .data	00000020 ath_pci_id_table
00000000 l    df *ABS*	00000000 init.c
0050d744 l     O .bss	00000004 loop_high
0050d748 l     O .bss	00000004 loop_low
00000000 l    df *ABS*	00000000 adf_nbuf.c
00000000 l    df *ABS*	00000000 buf_pool_static.c
00000000 l    df *ABS*	00000000 htc.c
00000000 l    df *ABS*	00000000 wmi_svc.c
0090447c l     F .text	0000000b WMIServiceConnect
00904488 l     F .text	00000007 _WMI_GetPendingEventsCount
00904490 l     F .text	00000007 _WMI_GetControlEp
00904498 l     F .text	00000014 _WMI_RegisterDispatchTable
009044ac l     F .text	00000005 _WMI_Shutdown
009044b4 l     F .text	0000008a WMIRecvMessageHandler
00904540 l     F .text	00000020 _WMI_SendCompleteHandler
00904560 l     F .text	00000030 _WMI_AllocEvent
00904590 l     F .text	00000036 _WMI_SendEvent
009045c8 l     F .text	0000006f _WMI_Init
00000000 l    df *ABS*	00000000 k2_HIF_usb_patch.c
00000000 l    df *ABS*	00000000 k2_cmnos_clock_patch.c
0050d778 l     O .bss	00000004 last_tick$3599
00000000 l    df *ABS*	00000000 ah.c
00000000 l    df *ABS*	00000000 ar5416_phy.c
00000000 l    df *ABS*	00000000 adf_net.c
00000000 l    df *ABS*	00000000 adf_os_irq_pvt.c
00000000 l    df *ABS*	00000000 adf_os_dma.c
00000000 l    df *ABS*	00000000 ar5416Phy.c
00000000 l    df *ABS*	00000000 ieee80211_output.c
00000000 l    df *ABS*	00000000 
005009e4 g       *ABS*	00000000 u16TxRxCounter
00903250 g     F .text	00000032 init_mem
00908e44 g     F .text	00000036 ath_rate_tx_complete
004e5200 g       *ABS*	00000000 _rom_literal_start
009034fc g     F .text	0000002b __adf_nbuf_dmamap_info
00903b24 g     F .text	00000078 bGet_descriptor_patch
00909b0c g     F .text	0000002d ath_tgt_tid_drain
009035f8 g     F .text	00000011 __adf_nbuf_last
0050d784 g     O .bss	00000004 save_cmnos_printf
005009f8 g       *ABS*	00000000 u8UsbInterfaceValue
0090342c g     F .text	0000000c __adf_nbuf_copy
0050d780 g     O .bss	00000004 _assfail_ori
009034dc g     F .text	00000009 __adf_nbuf_map
00501600 g       *ABS*	00000000 _bss_table_end
0090adf8 g     F .text	0000000c __adf_net_register_drv
0050d768 g     O .bss	00000004 g_wlan_intr
009034c0 g     F .text	0000001c __adf_nbuf_dmamap_create
009041c8 g     F .text	00000088 HTCControlSvcProcessMsg
0050cec8 g     O .data	00000004 ar5416_11ngRateTable
00903c28 g     F .text	0000000f wlan_pci_module_init
00500000 g       *ABS*	00000000 _indir_tbl
00904f30 g     F .text	00000010 ath_hal_attach_tgt
009037b4 g     F .text	00000023 buf_pool_module_install
00501000 g       *ABS*	00000000 _lit4_end
00903698 g     F .text	00000007 __adf_nbuf_is_cloned
0090394c g     F .text	00000107 usb_reg_out_patch
00903528 g     F .text	00000005 __adf_nbuf_set_rx_cksum
00905dcc g     F .text	000000bc ar5416AbortTxDma
0090aec5 g       *ABS*	00000000 _text_end
0090a738 g     F .text	0000035e ath_tgt_tx_comp_aggr
00904684 g     F .text	00000011 _HIFusb_isr_handler_patch
00908de8 g     F .text	0000002e ath_rate_attach
00905cd8 g     F .text	00000044 ar5416Set11nBurstDuration_20
00903a98 g     F .text	00000022 vUsbFIFO_EPxCfg_FS_patch
00903538 g     F .text	00000071 __adf_nbuf_create_frm_frag
0090381c g     F .text	00000022 cold_reboot
00501000 g       *ABS*	00000000 _lit4_start
00501b40 g       *ABS*	00000000 _dram0_literal_end
00904250 g     F .text	00000031 AdjustCreditThreshold
00501b40 g       *ABS*	00000000 _dram0_literal_start
00904fe4 g     F .text	00000029 ath_hal_wait
0090aec5 g       .text	00000000 _etext
00905d1c g     F .text	0000006f ar5416Set11nVirtualMoreFrag_20
008e408c g       *ABS*	00000000 vbuf_module_install
0050d740 g     O .bss	00000004 idle_cnt
009097e4 g     F .text	00000043 owl_tgt_node_init
00903840 g     F .text	0000010a usb_status_in_patch
00903c38 g     F .text	0000000a wlan_pci_register_drv
009033d4 g     F .text	0000002a __adf_nbuf_push_head
009037d8 g     F .text	00000022 _fw_usbfifo_recv_command
0090adc0 g     F .text	0000000a ar5416AttachRateTables
00903d5c g     F .text	000000bf _HTC_Init
009033bc g     F .text	00000006 __adf_nbuf_realloc_headroom
00905b08 g     F .text	00000089 ar5416Set11nAggrFirst_20
009034f4 g     F .text	00000005 __adf_nbuf_dmamap_destroy
00909e04 g     F .text	000003ae ath_tgt_send_mgt
00906338 g     F .text	00000010 ar5416GetRateTable
009036b8 g     F .text	0000000d __adf_nbuf_queue_init
008e4eb8 g       *ABS*	00000000 memcpy
00908e7c g     F .text	00000012 ath_rate_newassoc
00501600 g       *ABS*	00000000 _rodata_end
00903530 g     F .text	00000007 __adf_nbuf_get_vlan_info
00908c14 g     F .text	00000133 rcUpdate_11n
00904f7c g     F .text	00000067 ath_hal_computetxtime
00500a00 g       *ABS*	00000000 u8UsbDeviceDescriptor
00908d48 g     F .text	000000a0 ath_tx_status_update_rate
009036d0 g     F .text	00000007 __adf_nbuf_queue_first
0050d788 g     O .bss	00000004 htc_handle
009097a0 g     F .text	00000010 ATH_SKB_2_WH
0090ae0c g     F .text	000000b9 ieee80211_tgt_crypto_encap
008e4da0 g       *ABS*	00000000 __udivsi3
00903eac g     F .text	00000057 _HTC_Ready
00903b9c g     F .text	00000010 ath_hal_getuptime
0090360c g     F .text	00000024 __adf_nbuf_trim_tail
0050d740 g       *ABS*	00000000 _bss_start
0050cb40 g       *ABS*	00000000 _dram0_data_end
00903fac g     F .text	00000062 ReturnBuffers
00909d80 g     F .text	00000084 ath_tgt_tx_send_normal
005009fa g       *ABS*	00000000 u8UsbInterfaceAlternateSetting
0050d73c g       *ABS*	00000000 __XT_EXCEPTION_DESCS__
0090aba4 g     F .text	00000072 ath_tgt_handle_aggr
00903250 g       *ABS*	00000000 _text_start
009037fc g     F .text	00000020 _fw_usbfifo_init
0090aa98 g     F .text	0000009a owltgt_tx_processq
009033c4 g     F .text	00000006 __adf_nbuf_realloc_tailroom
0090a1b4 g     F .text	00000032 ath_tgt_handle_normal
00905400 g     F .text	00000015 ar5416StartTxDma
00905f98 g     F .text	00000059 ar5416SetRxFilter
00903c08 g     F .text	00000005 ath_hal_free
00904284 g     F .text	00000156 _HTC_SendMsg
009062c0 g     F .text	00000077 ar5416Attach
00903690 g     F .text	00000005 __adf_nbuf_cat
009053ec g     F .text	00000012 ar5416SetTxDP
00908e90 g     F .text	00000012 ath_rate_node_update
00903664 g     F .text	00000019 __adf_nbuf_tailroom
00903688 g     F .text	00000007 __adf_nbuf_clone
008e3ca4 g       *ABS*	00000000 mUsbFIFOConfig
00904a60 g     F .text	0000000a cmnos_clock_init_patch
008e2b58 g       *ABS*	00000000 _HIFusb_isr_handler
00903710 g     F .text	00000057 _buf_pool_static_create_pool
009036c8 g     F .text	00000007 __adf_nbuf_queue_len
00501000 g       *ABS*	00000000 _dport0_literal_start
009063f8 g     F .text	0000000b exit_ath_pci
0050d808 g       *ABS*	00000000 _bss_end
00903708 g     F .text	00000005 _buf_pool_static_shutdown
00905388 g     F .text	00000061 ar5416UpdateTxTrigLevel
0050d78c g     O .bss	0000002c g_poolCtx
0090346c g     F .text	0000000c __adf_nbuf_get_priv
00904144 g     F .text	00000082 HTCProcessConfigPipeMsg
00903768 g     F .text	00000022 _buf_pool_static_alloc_buf
00905eac g     F .text	0000000a ar5416Detach
009050fc g     F .text	0000000f ar5416EnableReceive
005009cc g       *ABS*	00000000 usbFifoConf
005009e0 g       *ABS*	00000000 pu8DescriptorEX
00904a6c g     F .text	0000000a cmnos_refclk_speed_get_patch
00905788 g     F .text	0000010c ar5416Set11nTxDesc_20
0050cb40 g       *ABS*	00000000 _dram0_data_start
00906368 g     F .text	0000000d init_ath_pci
008e2ec4 g       *ABS*	00000000 bGet_descriptor
00905418 g     F .text	0000002b ar5416NumTxPending
00907e90 g     F .text	00000432 ath_tgt_attach
00903d04 g     F .text	00000013 _HTC_GetReservedHeadroom
00903338 g     F .text	0000003c Magpie_init
0050d73c g       *ABS*	00000000 __XT_EXCEPTION_DESCS_END__
009035ac g     F .text	0000004c __adf_nbuf_split_to_frag
005009f0 g       *ABS*	00000000 eUsbCxCommand
00904638 g     F .text	00000037 WMI_service_module_install
0090378c g     F .text	00000010 _buf_pool_static_alloc_buf_align
008e4df0 g       *ABS*	00000000 __umodsi3
00501000 g       *ABS*	00000000 _dport0_rodata_start
0050cb40 g       *ABS*	00000000 _dport0_data_start
008e4cac g       *ABS*	00000000 xthal_get_ccount
009033cc g     F .text	00000006 __adf_nbuf_expand
00905034 g     F .text	00000083 ar5416SetInterrupts
009050ec g     F .text	0000000d ar5416SetRxDP
00909828 g     F .text	00000010 ath_tx_status_clear
0050d76c g     O .bss	00000004 g_wlan_drv_handle
008e2bd4 g       *ABS*	00000000 hif_module_install
00903d18 g     F .text	0000002a HTCSendDoneHandler
009046e8 g     F .text	000001d0 _fw_usb_suspend_reboot
008e3cec g       *ABS*	00000000 mUsbEPMxPtSzLow
009050b8 g     F .text	00000034 ar5416GetTsf64
0050d774 g     O .bss	00000004 ref_clk
00903f04 g     F .text	00000066 HTCCheckAndSendCreditReport
005009c0 g       *ABS*	00000000 ControlCmd
0050cb40 g       *ABS*	00000000 _data_start
005009f6 g       *ABS*	00000000 u8UsbConfigValue
00903be4 g     F .text	00000022 ath_hal_malloc
00905e88 g     F .text	00000021 ar5416StopDmaReceive
00903e1c g     F .text	00000005 _HTC_PauseRecv
0090ae04 g     F .text	00000005 __adf_net_unregister_drv
009082ec g     F .text	0000002b __adf_os_dmamem_alloc
008e3c68 g       *ABS*	00000000 mUsbEPMap
00903400 g     F .text	0000002b __adf_nbuf_pull_head
00906404 g     F .text	0000000c __adf_os_setup_intr
0050d74c g     O .bss	00000004 m_origUsbfifoRecvCmd
00904a94 g     F .text	0000002b cmnos_tick_patch
00903478 g     F .text	0000001e __adf_nbuf_queue_add
00907354 g     F .text	00000046 wmi_cmd_rsp
00903438 g     F .text	0000000c __adf_nbuf_unshare
0050d7b8 g     O .bss	00000012 UsbDeviceDescriptorPatch
0090379c g     F .text	00000016 _buf_pool_static_free_buf
009036e0 g     F .text	0000000e __adf_nbuf_is_queue_empty
00905010 g     F .text	00000022 ar5416IsInterruptPending
00903c10 g     F .text	00000015 ath_hal_memcpy
00903000 g     F .boot	0000024e app_start
00905444 g     F .text	000001e6 ar5416SetupTxDesc_20
0050088c g       *ABS*	00000000 cticks
008e413c g       *ABS*	00000000 vdesc_module_install
00909838 g     F .text	0000008b ath_tx_status_update
0050d73c g       *ABS*	00000000 _data_end
0090aec5 g       *ABS*	00000000 _iram0_text_end
0090a234 g     F .text	00000225 ath_tgt_tx_form_aggr
005015f0 g       *ABS*	00000000 __XT_EXCEPTION_TABLE__
0090a1e8 g     F .text	0000004a ath_tx_addto_baw
00903498 g     F .text	00000026 __adf_nbuf_queue_remove
009082c4 g     F .text	00000028 ath_detach
00903284 g     F .text	0000004d wlan_task
00501600 g       *ABS*	00000000 _literals_start
009036f0 g     F .text	00000017 _buf_pool_static_init
00903680 g     F .text	00000008 __adf_nbuf_len
00905d8c g     F .text	0000003d ar5416StopTxDma
00903cd4 g     F .text	00000016 wlan_pci_isr
008e519c g       *ABS*	00000000 memset
00501b40 g       *ABS*	00000000 _literals_end
00903cec g     F .text	00000005 _HTC_Shutdown
00904f40 g     F .text	0000003a ath_hal_getcapability
00903444 g     F .text	00000027 __adf_nbuf_frag_info
00501000 g       *ABS*	00000000 _dport0_rodata_end
00904a78 g     F .text	0000001c cmnos_delay_us_patch
005009ec g       *ABS*	00000000 eUsbCxFinishAction
00903e70 g     F .text	00000016 HTCFreeMsgBuffer
00905b94 g     F .text	00000083 ar5416Set11nAggrMiddle_20
009036a0 g     F .text	00000015 __adf_nbuf_peek_header
008e4cec g       *ABS*	00000000 __divsi3
0090519c g     F .text	000001ea ar5416ProcRxDescFast_20
00501000 g       *ABS*	00000000 _dram0_rodata_start
00501000 g       *ABS*	00000000 _rom_literal_end
00906bec g     F .text	0000004e wmi_event
00903ccc g     F .text	00000007 wlan_pci_config_read
00906c64 g     F .text	000006f0 ath_intr
00904010 g     F .text	00000010 _HTC_ReturnBuffers
008e1548 g       *ABS*	00000000 athos_indirection_table_install
0090ab34 g     F .text	0000006e owl_tgt_tx_tasklet
008e3cc4 g       *ABS*	00000000 mUsbEPMxPtSzHigh
00903bd4 g     F .text	00000010 ath_hal_delay
005009e8 g       *ABS*	00000000 u8ConfigDescriptorEX
00903374 g     F .text	0000003e __adf_nbuf_alloc
009036d8 g     F .text	00000007 __adf_nbuf_queue_next
005009f4 g       *ABS*	00000000 UsbChirpFinish
009043dc g     F .text	00000097 HTCMsgRecvHandler
009098c4 g     F .text	0000006e ath_tx_status_update_aggr
009033b4 g     F .text	00000006 __adf_nbuf_free
008e3c84 g       *ABS*	00000000 mUsbFIFOMap
009032d4 g     F .text	00000005 htc_setup_comp
005015f0 g       *ABS*	00000000 _bss_table_start
0050cb44 g     O .data	00000238 ar5416_11ng_table
009049d8 g     F .text	00000086 _fw_usb_reset_fifo
009034e8 g     F .text	00000009 __adf_nbuf_unmap
00903658 g     F .text	0000000a __adf_nbuf_headroom
0090ac18 g     F .text	000000b3 ath_tgt_tx_cleanup
008e328c g       *ABS*	00000000 bStandardCommand
008e2f7c g       *ABS*	00000000 bSet_configuration
00903c44 g     F .text	00000080 wlan_pci_probe
00903e2c g     F .text	00000041 htc_module_install
0050cb40 g       *ABS*	00000000 _dport0_data_end
00904ac0 g     F .text	0000000d cmnos_milliseconds_patch
00501000 g       *ABS*	00000000 _rodata_start
00907ce0 g     F .text	00000018 ath_get_minrateidx
0050d808 g       .bss	00000000 _end
00904670 g     F .text	00000011 _HIFusb_get_max_msg_len_patch
00909ac4 g     F .text	00000046 ath_tx_status_send
0090aec5 g       *ABS*	00000000 _iram0_text_start
00905c18 g     F .text	0000007d ar5416Set11nAggrLast_20
00903f6c g     F .text	0000003f HTCControlSvcProcessSendComplete
00903e88 g     F .text	00000021 HTCAllocMsgBuffer
0050cd7c g     O .data	00000004 g_pci_init_func
00903cf4 g     F .text	0000000d _HTC_RegisterService
00903bac g     F .text	00000026 _ath_hal_attach_tgt
00904064 g     F .text	000000e0 HTCProcessConnectMsg
00905c98 g     F .text	0000003e ar5416Clr11nAggr_20
00908960 g     F .text	000002b2 rcRateFind_11n
00903630 g     F .text	00000026 __adf_nbuf_put_tail
00908e18 g     F .text	0000002c ath_rate_findrate
0050d770 g     O .bss	00000004 g_wlan_drv
0090562c g     F .text	00000136 ar5416FillTxDesc_20
00903d44 g     F .text	00000017 HTC_AssembleBuffers
0050d808 g       *ABS*	00000000 _fw_image_end
00903e24 g     F .text	00000005 _HTC_ResumeRecv
00909b3c g     F .text	00000244 ath_tgt_tx_prepare
00903250 g       .text	00000000 _stext
00903abc g     F .text	00000023 bSet_configuration_patch
00906410 g     F .text	0000000c __adf_os_free_intr
00905764 g     F .text	00000021 ar5416FillKeyTxDesc_20
009032dc g     F .text	0000005a _wmi_cmd_rsp
00903cc4 g     F .text	00000007 wlan_pci_config_write
00904020 g     F .text	00000044 _HTC_ReturnBuffersList
00904b54 g     F .text	000003db fw_cmnos_printf
00905124 g     F .text	00000077 ar5416SetupRxDesc_20
008e3d10 g       *ABS*	00000000 mUsbEPinHighBandSet
00908ea4 g     F .text	0000001b ath_rate_newstate
0050cb40 g       *ABS*	00000000 _dport0_bss_start
00501000 g       *ABS*	00000000 _dram0_rodata_end
00905ff4 g     F .text	000002c9 ar5416ProcTxDesc_20
00904474 g     F .text	00000005 RedistributeCredit
00903a54 g     F .text	00000042 vUSBFIFO_EP6Cfg_FS_patch
0050cb40 g       *ABS*	00000000 _dport0_bss_end
00903ae0 g     F .text	00000044 bStandardCommand_patch
0050d7cc g     O .bss	0000003c ConfigDescriptorPatch
00905eb8 g     F .text	000000df ar5416GetPendingInterrupts
00501000 g       *ABS*	00000000 _dport0_literal_end
00905894 g     F .text	00000274 ar5416Set11nRateScenario_20
0090510c g     F .text	00000017 ar5416StopPcuReceive
009048b8 g     F .text	0000011e _fw_usb_fw_task



Disassembly of section .boot:

00903000 <app_start>:

extern BOOLEAN bJumptoFlash;
extern BOOLEAN bEepromExist;

void __section(boot) __noreturn __visible app_start(void)
{
  903000:	6c1004        	entry	a1, 32
#if defined(PROJECT_MAGPIE)
	T_EEP_RET retEEP;
#endif

	/* Zero BSS segment & dynamic memory section. */
	init_mem();
  903003:	580093        	call8	903250 <_text_start>

#if defined(PROJECT_MAGPIE)
	fatal_exception_func();
#endif

	if( IS_FLASHBOOT() ) {
  903006:	127182        	l32r	a2, 8df610 <_bss_end+0x3d1e08>
  903009:	0c0200        	memw
  90300c:	8320      	l32i.n	a3, a2, 0
  90300e:	127183        	l32r	a2, 8df61c <_bss_end+0x3d1e14>
  903011:	03035f        	extui	a3, a3, 16, 16
  903014:	723941        	bne	a3, a2, 903059 <app_start+0x59>
		athos_indirection_table_install();
  903017:	5b794c        	call8	8e1548 <athos_indirection_table_install>
		DBG_MODULE_INSTALL();
		A_CLOCK_INIT(SYSTEM_CLK);
  90301a:	127184        	l32r	a2, 8df62c <_bss_end+0x3d1e24>
  90301d:	1a7185        	l32r	a10, 8df634 <_bss_end+0x3d1e2c>
  903020:	232237        	l32i	a3, a2, 220
  903023:	0b3000        	callx8	a3
		A_UART_INIT();
  903026:	2a2213        	l32i	a10, a2, 76
  903029:	0ba000        	callx8	a10
		A_PRINTF_INIT();
  90302c:	232211        	l32i	a3, a2, 68
  90302f:	0b3000        	callx8	a3
		A_DBG_INIT();
		A_EEP_INIT();
  903032:	23225f        	l32i	a3, a2, 0x17c
  903035:	0b3000        	callx8	a3
		A_TASKLET_INIT();
  903038:	232269        	l32i	a3, a2, 0x1a4
  90303b:	0b3000        	callx8	a3
		_indir_tbl.cmnos.timer._timer_init();
  90303e:	222241        	l32i	a2, a2, 0x104
  903041:	0b2000        	callx8	a2
#if defined(PROJECT_K2)
		/*
		 * WAR: these variable is not initialized when boot from flash
		 *      either re-enumeration or config them to default value = 0 would fix the issue
		 */
		u8UsbInterfaceAlternateSetting = u8UsbConfigValue = u8UsbInterfaceValue = 0;
  903044:	137186        	l32r	a3, 8df65c <_bss_end+0x3d1e54>
  903047:	220a00        	movi	a2, 0
  90304a:	223500        	s16i	a2, a3, 0
  90304d:	137187        	l32r	a3, 8df66c <_bss_end+0x3d1e64>
  903050:	223500        	s16i	a2, a3, 0
  903053:	137188        	l32r	a3, 8df674 <_bss_end+0x3d1e6c>
  903056:	223500        	s16i	a2, a3, 0
	} else {
		bEepromExist = FALSE;
	}
#endif

	hostif = A_IS_HOST_PRESENT();
  903059:	127184        	l32r	a2, 8df66c <_bss_end+0x3d1e64>
  90305c:	8a2e      	l32i.n	a10, a2, 56
  90305e:	0ba000        	callx8	a10
  903061:	d4a0      	mov.n	a4, a10
	return *(const volatile uint16_t *) addr;
}

static inline uint32_t ioread32(const volatile uint32_t addr)
{
	return *(const volatile uint32_t *) addr;
  903063:	137189        	l32r	a3, 8df688 <_bss_end+0x3d1e80>
#elif defined(PROJECT_K2)
	rst_status = ioread32(MAGPIE_REG_RST_STATUS_ADDR);
#endif /* #if defined(PROJECT_MAGPIE) */


	A_PRINTF(" A_WDT_INIT()\n\r");
  903066:	252212        	l32i	a5, a2, 72
  903069:	1a718a        	l32r	a10, 8df694 <_bss_end+0x3d1e8c>
  90306c:	0c0200        	memw
  90306f:	8330      	l32i.n	a3, a3, 0
  903071:	0b5000        	callx8	a5

#if defined(PROJECT_K2)
	save_cmnos_printf = fw_cmnos_printf;
  903074:	16718b        	l32r	a6, 8df6a0 <_bss_end+0x3d1e98>
  903077:	15718c        	l32r	a5, 8df6a8 <_bss_end+0x3d1ea0>
  90307a:	9560      	s32i.n	a5, a6, 0
#endif

	if( hostif == HIF_USB ) {
  90307c:	654014        	bnez	a4, 903094 <app_start+0x94>
#if defined(PROJECT_K2)
#if MOVE_PRINT_TO_RAM
		save_cmnos_printf = _indir_tbl.cmnos.printf._printf;
  90307f:	272212        	l32i	a7, a2, 72
		_indir_tbl.cmnos.printf._printf = fw_cmnos_printf;
  903082:	252612        	s32i	a5, a2, 72
#endif
		_indir_tbl.cmnos.usb._usb_fw_task = _fw_usb_fw_task;
  903085:	15718d        	l32r	a5, 8df6bc <_bss_end+0x3d1eb4>
#endif

	if( hostif == HIF_USB ) {
#if defined(PROJECT_K2)
#if MOVE_PRINT_TO_RAM
		save_cmnos_printf = _indir_tbl.cmnos.printf._printf;
  903088:	276600        	s32i	a7, a6, 0
		_indir_tbl.cmnos.printf._printf = fw_cmnos_printf;
#endif
		_indir_tbl.cmnos.usb._usb_fw_task = _fw_usb_fw_task;
  90308b:	25261d        	s32i	a5, a2, 116
		_indir_tbl.cmnos.usb._usb_reset_fifo = _fw_usb_reset_fifo;
  90308e:	15718e        	l32r	a5, 8df6c8 <_bss_end+0x3d1ec0>
  903091:	252629        	s32i	a5, a2, 164
#endif
	}

	if( rst_status == WDT_MAGIC_PATTERN ) {
  903094:	15718f        	l32r	a5, 8df6d0 <_bss_end+0x3d1ec8>
  903097:	127184        	l32r	a2, 8df6a8 <_bss_end+0x3d1ea0>
  90309a:	75391b        	bne	a3, a5, 9030b9 <app_start+0xb9>
		A_PRINTF(" ==>WDT reset<==\n");
  90309d:	222212        	l32i	a2, a2, 72
  9030a0:	1a7190        	l32r	a10, 8df6e0 <_bss_end+0x3d1ed8>
  9030a3:	0b2000        	callx8	a2
#if defined(PROJECT_MAGPIE)
		reset_EP4_FIFO();
#endif
		*((volatile uint32_t*)WATCH_DOG_RESET_COUNTER_ADDR)+=1;
  9030a6:	127191        	l32r	a2, 8df6ec <_bss_end+0x3d1ee4>
  9030a9:	0c0200        	memw
  9030ac:	8320      	l32i.n	a3, a2, 0
  9030ae:	b133      	addi.n	a3, a3, 1
  9030b0:	0c0200        	memw
  9030b3:	9320      	s32i.n	a3, a2, 0
  9030b5:	600012        	j	9030cb <app_start+0xcb>
  9030b8:	001571        	excw
	} else if (rst_status == SUS_MAGIC_PATTERN) {
  9030bb:	9222      	s32i.n	a2, a2, 8
		A_PRINTF(" ==>warm start<==\n");
  9030bd:	22121a        	l32i	a2, a1, 104
  9030c0:	719375        	bltu	a9, a1, 903139 <app_start+0x139>
		A_PRINTF(" ==>WDT reset<==\n");
#if defined(PROJECT_MAGPIE)
		reset_EP4_FIFO();
#endif
		*((volatile uint32_t*)WATCH_DOG_RESET_COUNTER_ADDR)+=1;
	} else if (rst_status == SUS_MAGIC_PATTERN) {
  9030c3:	31021a        	excw
		A_PRINTF(" ==>warm start<==\n");
	} else
		A_PRINTF(" ==>cold start<==\n");
  9030c6:	71940b        	ball	a9, a1, 9030d5 <app_start+0xd5>
  9030c9:	200013        	l8ui	a0, a0, 19
	*(volatile uint16_t *) addr = b;
}

static inline void iowrite32(volatile uint32_t addr, const uint32_t b)
{
	*(volatile uint32_t *) addr = b;
  9030cc:	718f12        	bbsi	a8, 17, 9030e2 <app_start+0xe2>
  9030cf:	71891a        	bne	a8, a1, 9030ed <app_start+0xed>
	SFLASH_MODULE_INSTALL();
	A_SFLASH_INIT();
#endif
#endif

	HIF_MODULE_INSTALL();
  9030d2:	71950c        	bbc	a9, a1, 9030e2 <app_start+0xe2>
  9030d5:	020093        	excw
  9030d8:	205b7e        	l32ai	a0, a5, 0x1f8
  9030db:	be1a      	addi.n	a10, a1, 14
	HTC_MODULE_INSTALL();
  9030dd:	719658        	bbci	a9, 1, 903139 <app_start+0x139>
  9030e0:	03531a        	excw
	WMI_SERVICE_MODULE_INSTALL();
  9030e3:	719758        	bbci	a9, 17, 90313f <app_start+0x13f>
  9030e6:	05541a        	excw
	BUF_POOL_MODULE_INSTALL();
  9030e9:	719858        	bany	a9, a1, 903145 <app_start+0x145>
  9030ec:	01b21a        	excw
	VBUF_MODULE_INSTALL();
  9030ef:	71995b        	bne	a9, a1, 90314e <app_start+0x14e>
  9030f2:	83e6      	l32i.n	a3, a14, 24
	VDESC_MODULE_INSTALL();
  9030f4:	1a719a        	l32r	a10, 8df75c <_bss_end+0x3d1f54>
  9030f7:	5b8411        	call8	8e413c <vdesc_module_install>

	//init each module, should be put together..
	A_PRINTF("ALLOCRAM start 0x%x size %d\n", ALLOCRAM_START, ALLOCRAM_SIZE);
  9030fa:	13719b        	l32r	a3, 8df768 <_bss_end+0x3d1f60>
  9030fd:	15719c        	l32r	a5, 8df770 <_bss_end+0x3d1f68>
  903100:	127184        	l32r	a2, 8df710 <_bss_end+0x3d1f08>
  903103:	b437      	addi.n	a7, a3, 4
  903105:	282212        	l32i	a8, a2, 72
  903108:	03560c        	sub	a6, a5, a3
  90310b:	1a719d        	l32r	a10, 8df780 <_bss_end+0x3d1f78>
  90310e:	db70      	mov.n	a11, a7
  903110:	dc60      	mov.n	a12, a6
  903112:	0b8000        	callx8	a8
	A_ALLOCRAM_INIT(ALLOCRAM_START, ALLOCRAM_SIZE);
  903115:	c78c      	movi.n	a8, -4
  903117:	78310a        	beq	a3, a8, 903125 <app_start+0x125>
  90311a:	da70      	mov.n	a10, a7
  90311c:	753908        	bne	a3, a5, 903128 <app_start+0x128>
  90311f:	60000d        	j	903130 <app_start+0x130>
  903122:	000000        	ill
  903125:	1a7180        	l32r	a10, 8df728 <_bss_end+0x3d1f20>
  903128:	db60      	mov.n	a11, a6
  90312a:	600005        	j	903133 <app_start+0x133>
  90312d:	000000        	ill
  903130:	1b7181        	l32r	a11, 8df734 <_bss_end+0x3d1f2c>
  903133:	232251        	l32i	a3, a2, 0x144
  903136:	0b3000        	callx8	a3

	if( hostif == HIF_USB ) {
  903139:	6540b8        	bnez	a4, 9031f5 <app_start+0x1f5>
		_indir_tbl.hif._get_max_msg_len = _HIFusb_get_max_msg_len_patch;
  90313c:	13719e        	l32r	a3, 8df7b4 <_bss_end+0x3d1fac>
  90313f:	23267e        	s32i	a3, a2, 0x1f8
		_indir_tbl.cmnos.usb._usb_reg_out = usb_reg_out_patch;
  903142:	13719f        	l32r	a3, 8df7c0 <_bss_end+0x3d1fb8>
  903145:	232632        	s32i	a3, a2, 200
		_indir_tbl.hif._isr_handler = _HIFusb_isr_handler_patch;
  903148:	1371a0        	l32r	a3, 8df7c8 <_bss_end+0x3d1fc0>
  90314b:	232680        	s32i	a3, a2, 0x200
		_indir_tbl.cmnos.usb._usb_set_configuration = bSet_configuration_patch;
  90314e:	1371a1        	l32r	a3, 8df7d4 <_bss_end+0x3d1fcc>
  903151:	232625        	s32i	a3, a2, 148
		_indir_tbl.cmnos.usb._usb_status_in = usb_status_in_patch;
  903154:	1371a2        	l32r	a3, 8df7dc <_bss_end+0x3d1fd4>
  903157:	232633        	s32i	a3, a2, 204
		_indir_tbl.cmnos.usb._usb_get_descriptor = bGet_descriptor_patch;
  90315a:	1371a3        	l32r	a3, 8df7e8 <_bss_end+0x3d1fe0>
  90315d:	23262f        	s32i	a3, a2, 188
		_indir_tbl.cmnos.usb._usb_standard_cmd = bStandardCommand_patch;
  903160:	1371a4        	l32r	a3, 8df7f0 <_bss_end+0x3d1fe8>
  903163:	232626        	s32i	a3, a2, 152
		_indir_tbl.usbfifo_api._init = _fw_usbfifo_init;
  903166:	1371a5        	l32r	a3, 8df7fc <_bss_end+0x3d1ff4>
  903169:	23269b        	s32i	a3, a2, 0x26c

#include <adf_os_io_pvt.h>

static inline uint8_t ioread8(const volatile uint32_t addr)
{
	return *(const volatile uint8_t *) addr;
  90316c:	1271a6        	l32r	a2, 8df804 <_bss_end+0x3d1ffc>
  90316f:	222000        	l8ui	a2, a2, 0
		_indir_tbl.hif._start = _HIFusb_start_patch;
		_indir_tbl.htc._HTC_MsgRecvHandler = HTCMsgRecvHandler_patch;
		_indir_tbl.htc._HTC_ControlSvcProcessMsg = HTCControlSvcProcessMsg_patch;
#endif

		if (!(ioread8_usb(ZM_MAIN_CTRL_OFFSET) & BIT6))
  903172:	792f02        	bbsi	a2, 25, 903178 <app_start+0x178>
			vUSBFIFO_EP6Cfg_FS_patch();
  903175:	580237        	call8	903a54 <vUSBFIFO_EP6Cfg_FS_patch>
	return *(const volatile uint16_t *) addr;
}

static inline uint32_t ioread32(const volatile uint32_t addr)
{
	return *(const volatile uint32_t *) addr;
  903178:	1271a7        	l32r	a2, 8df814 <_bss_end+0x3d200c>

#ifdef FUSION_USB_ENABLE_TX_STREAM
		// For K2, enable tx stream mode
		A_PRINTF("Enable Tx Stream mode: 0x%x\r\n",
  90317b:	137184        	l32r	a3, 8df78c <_bss_end+0x3d1f84>
  90317e:	0c0200        	memw
  903181:	2b2200        	l32i	a11, a2, 0
  903184:	233212        	l32i	a3, a3, 72
  903187:	1a71a8        	l32r	a10, 8df828 <_bss_end+0x3d2020>
  90318a:	0b3000        	callx8	a3
			ioread32_usb(ZM_SOC_USB_MODE_CTRL_OFFSET));

		/* Patch for K2 USB STREAM mode */
		/* disable down stream DMA mode */
		io32_rmw_usb(ZM_SOC_USB_MODE_CTRL_OFFSET, BIT6, BIT0);
  90318d:	da20      	mov.n	a10, a2
  90318f:	c4b0      	movi.n	a11, 64
  903191:	c0c1      	movi.n	a12, 1
  903193:	581f0e        	call8	90adcc <io32_rmw>
#if SYSTEM_MODULE_HP_EP5
		io32_set_usb(ZM_SOC_USB_MODE_CTRL_OFFSET, BIT8);
  903196:	da20      	mov.n	a10, a2
  903198:	2b1a00        	movi	a11, 0x100
  90319b:	c0c0      	movi.n	a12, 0
  90319d:	581f0b        	call8	90adcc <io32_rmw>
#endif

#if SYSTEM_MODULE_HP_EP6
		io32_set_usb(ZM_SOC_USB_MODE_CTRL_OFFSET, BIT9);
  9031a0:	da20      	mov.n	a10, a2
  9031a2:	2b2a00        	movi	a11, 0x200
  9031a5:	c0c0      	movi.n	a12, 0
  9031a7:	581f09        	call8	90adcc <io32_rmw>
#endif
		/* enable down stream DMA mode */
		io32_set_usb(ZM_SOC_USB_MODE_CTRL_OFFSET, BIT0);
  9031aa:	da20      	mov.n	a10, a2
  9031ac:	c0b1      	movi.n	a11, 1
  9031ae:	2c0a00        	movi	a12, 0
  9031b1:	581f06        	call8	90adcc <io32_rmw>
#endif

#ifdef FUSION_USB_ENABLE_RX_STREAM
		/* Patch for K2 USB STREAM mode */
		/* disable upstream DMA mode and enable upstream stream mode */
		io32_clr_usb(ZM_SOC_USB_MODE_CTRL_OFFSET, BIT1 | BIT3);
  9031b4:	da20      	mov.n	a10, a2
  9031b6:	c0b0      	movi.n	a11, 0
  9031b8:	c0ca      	movi.n	a12, 10
  9031ba:	581f04        	call8	90adcc <io32_rmw>

		/* K2, Set maximum IN transfer to 8K */
		io32_rmw_usb(ZM_SOC_USB_MODE_CTRL_OFFSET, 0x20, 0x30);
  9031bd:	da20      	mov.n	a10, a2
  9031bf:	c2b0      	movi.n	a11, 32
  9031c1:	c3c0      	movi.n	a12, 48
  9031c3:	581f02        	call8	90adcc <io32_rmw>

		/* enable upstream DMA mode */
		io32_set_usb(ZM_SOC_USB_MODE_CTRL_OFFSET, BIT1);
  9031c6:	da20      	mov.n	a10, a2
  9031c8:	c0b2      	movi.n	a11, 2
  9031ca:	2c0a00        	movi	a12, 0
  9031cd:	581eff        	call8	90adcc <io32_rmw>
	*(volatile uint16_t *) addr = b;
}

static inline void iowrite32(volatile uint32_t addr, const uint32_t b)
{
	*(volatile uint32_t *) addr = b;
  9031d0:	1271a9        	l32r	a2, 8df874 <_bss_end+0x3d206c>
  9031d3:	230aa0        	movi	a3, 160
  9031d6:	0c0200        	memw
  9031d9:	9320      	s32i.n	a3, a2, 0
	return *(const volatile uint16_t *) addr;
}

static inline uint32_t ioread32(const volatile uint32_t addr)
{
	return *(const volatile uint32_t *) addr;
  9031db:	1271aa        	l32r	a2, 8df884 <_bss_end+0x3d207c>
  9031de:	0c0200        	memw
  9031e1:	8320      	l32i.n	a3, a2, 0
  9031e3:	1271ab        	l32r	a2, 8df890 <_bss_end+0x3d2088>

		/* set stream mode timeout critirea */
		iowrite32_usb(ZM_SOC_USB_TIME_CTRL_OFFSET, 0xa0);
#if defined(PROJECT_K2)
		/*0x10004020 is vaild in k2 but could be invaild in other chip*/
		if ((ioread32(0x10004020) & 0x2000) != 0) {
  9031e6:	723704        	bbci	a3, 18, 9031ee <app_start+0x1ee>
	*(volatile uint16_t *) addr = b;
}

static inline void iowrite32(volatile uint32_t addr, const uint32_t b)
{
	*(volatile uint32_t *) addr = b;
  9031e9:	c030      	movi.n	a3, 0
  9031eb:	600001        	j	9031f0 <app_start+0x1f0>
  9031ee:	c039      	movi.n	a3, 9
  9031f0:	0c0200        	memw
  9031f3:	9320      	s32i.n	a3, a2, 0
	return *(const volatile uint16_t *) addr;
}

static inline uint32_t ioread32(const volatile uint32_t addr)
{
	return *(const volatile uint32_t *) addr;
  9031f5:	1271ac        	l32r	a2, 8df8a8 <_bss_end+0x3d20a0>
	}
#if defined(PROJECT_MAGPIE) && !defined(ROM_VER_1_1)
	else if (hostif == HIF_PCI )
		hif_pci_patch_install(&_indir_tbl.hif);
#endif
	A_PRINTF("USB mode: 0x%x\r\n", ioread32_usb(0x100));
  9031f8:	1a71ad        	l32r	a10, 8df8ac <_bss_end+0x3d20a4>
  9031fb:	0c0200        	memw
  9031fe:	8b20      	l32i.n	a11, a2, 0
  903200:	127184        	l32r	a2, 8df810 <_bss_end+0x3d2008>
  903203:	232212        	l32i	a3, a2, 72
  903206:	0b3000        	callx8	a3

	// patch the clock function
	if(1) {
		_indir_tbl.cmnos.clock._clock_init = cmnos_clock_init_patch;
  903209:	1371ae        	l32r	a3, 8df8c4 <_bss_end+0x3d20bc>
		_indir_tbl.cmnos.clock._delay_us = cmnos_delay_us_patch;
		_indir_tbl.cmnos.clock._clock_tick = cmnos_tick_patch;
		_indir_tbl.cmnos.clock._milliseconds = cmnos_milliseconds_patch;

		//default clock, setup initial variable, SYSTEM_FREQ=40
		A_CLOCK_INIT(SYSTEM_FREQ);
  90320c:	2a0a28        	movi	a10, 40
#endif
	A_PRINTF("USB mode: 0x%x\r\n", ioread32_usb(0x100));

	// patch the clock function
	if(1) {
		_indir_tbl.cmnos.clock._clock_init = cmnos_clock_init_patch;
  90320f:	232637        	s32i	a3, a2, 220
		_indir_tbl.cmnos.clock._refclk_speed_get = cmnos_refclk_speed_get_patch;
  903212:	1371af        	l32r	a3, 8df8d0 <_bss_end+0x3d20c8>
  903215:	23263c        	s32i	a3, a2, 240
		_indir_tbl.cmnos.clock._delay_us = cmnos_delay_us_patch;
  903218:	1371b0        	l32r	a3, 8df8d8 <_bss_end+0x3d20d0>
  90321b:	23263a        	s32i	a3, a2, 232
		_indir_tbl.cmnos.clock._clock_tick = cmnos_tick_patch;
  90321e:	1371b1        	l32r	a3, 8df8e4 <_bss_end+0x3d20dc>
  903221:	232640        	s32i	a3, a2, 0x100
		_indir_tbl.cmnos.clock._milliseconds = cmnos_milliseconds_patch;
  903224:	1371b2        	l32r	a3, 8df8ec <_bss_end+0x3d20e4>
  903227:	23263d        	s32i	a3, a2, 244

		//default clock, setup initial variable, SYSTEM_FREQ=40
		A_CLOCK_INIT(SYSTEM_FREQ);
  90322a:	58060d        	call8	904a60 <cmnos_clock_init_patch>
	}

	Magpie_init();
  90322d:	580042        	call8	903338 <Magpie_init>

#if MAGPIE_ENABLE_WLAN == 1
	io32_clr(MAGPIE_REG_RST_RESET_ADDR, BIT10 | BIT8 | BIT7 | BIT6);
  903230:	1a71b3        	l32r	a10, 8df8fc <_bss_end+0x3d20f4>
  903233:	2b0a00        	movi	a11, 0
  903236:	2c5ac0        	movi	a12, 0x5c0
  903239:	581ee4        	call8	90adcc <io32_rmw>
#if defined(PROJECT_MAGPIE)
	io32_set(MAGPIE_REG_AHB_ARB_ADDR, BIT1);
#endif

	wlan_pci_module_init();
  90323c:	58027a        	call8	903c28 <wlan_pci_module_init>
	wlan_pci_probe();
  90323f:	580281        	call8	903c44 <wlan_pci_probe>
#endif


	A_PRINTF("Tgt running\n\r");
  903242:	1a71b4        	l32r	a10, 8df914 <_bss_end+0x3d210c>
  903245:	222212        	l32i	a2, a2, 72
  903248:	0b2000        	callx8	a2
		_indir_tbl.cmnos.misc._assfail = exception_reset;
	}

	change_magpie_clk();
#endif
	wlan_task(); //never return
  90324b:	58000e        	call8	903284 <wlan_task>

Disassembly of section .text:

00903250 <init_mem>:
	}
}
#endif

void init_mem()
{
  903250:	6c1004        	entry	a1, 32
	int i = 0;
	uint32_t *temp = (uint32_t *)ALLOCRAM_START;

	/* clear bss segment */
	for(temp = (uint32_t *)&START_BSS; temp < (uint32_t *)&END_BSS; temp++)
  903253:	1871b5        	l32r	a8, 8df928 <_bss_end+0x3d2120>
  903256:	1971b6        	l32r	a9, 8df930 <_bss_end+0x3d2128>
		*temp = 0;
  903259:	c0a0      	movi.n	a10, 0
{
	int i = 0;
	uint32_t *temp = (uint32_t *)ALLOCRAM_START;

	/* clear bss segment */
	for(temp = (uint32_t *)&START_BSS; temp < (uint32_t *)&END_BSS; temp++)
  90325b:	600003        	j	903262 <init_mem+0x12>
		*temp = 0;
  90325e:	9a80      	s32i.n	a10, a8, 0
{
	int i = 0;
	uint32_t *temp = (uint32_t *)ALLOCRAM_START;

	/* clear bss segment */
	for(temp = (uint32_t *)&START_BSS; temp < (uint32_t *)&END_BSS; temp++)
  903260:	b488      	addi.n	a8, a8, 4
  903262:	7983f8        	bltu	a8, a9, 90325e <init_mem+0xe>
		*temp = 0;

	/* clear heap segment */
	for(i = 0; i < ((ALLOCRAM_SIZE - 4)/4); i++)
  903265:	1a71b7        	l32r	a10, 8df944 <_bss_end+0x3d213c>
  903268:	19719b        	l32r	a9, 8df8d4 <_bss_end+0x3d20cc>
  90326b:	09a90c        	sub	a9, a10, a9
  90326e:	092914        	srli	a9, a9, 2
			HTCMsgRecvHandler( hdr_buf, buffer, context);
	}
}
#endif

void init_mem()
  903271:	08990a        	addx4	a9, a9, a8
	for(temp = (uint32_t *)&START_BSS; temp < (uint32_t *)&END_BSS; temp++)
		*temp = 0;

	/* clear heap segment */
	for(i = 0; i < ((ALLOCRAM_SIZE - 4)/4); i++)
		temp[i] = 0;
  903274:	c0a0      	movi.n	a10, 0
  903276:	600003        	j	90327d <init_mem+0x2d>
  903279:	9a80      	s32i.n	a10, a8, 0
  90327b:	b488      	addi.n	a8, a8, 4
	/* clear bss segment */
	for(temp = (uint32_t *)&START_BSS; temp < (uint32_t *)&END_BSS; temp++)
		*temp = 0;

	/* clear heap segment */
	for(i = 0; i < ((ALLOCRAM_SIZE - 4)/4); i++)
  90327d:	7989f8        	bne	a8, a9, 903279 <init_mem+0x29>
		temp[i] = 0;
}
  903280:	d10f      	retw.n
	...

00903284 <wlan_task>:
	}
	return;
}

void __noreturn wlan_task(void)
{
  903284:	6c1004        	entry	a1, 32
	loop_low=loop_high=0;
  903287:	1871b8        	l32r	a8, 8df968 <_bss_end+0x3d2160>
  90328a:	c020      	movi.n	a2, 0
  90328c:	9280      	s32i.n	a2, a8, 0
  90328e:	1871b9        	l32r	a8, 8df974 <_bss_end+0x3d216c>
  903291:	9280      	s32i.n	a2, a8, 0

	while(1) {
		/* update wdt timer */
		A_WDT_TASK();
  903293:	127184        	l32r	a2, 8df8a4 <_bss_end+0x3d209c>
  903296:	28225c        	l32i	a8, a2, 0x170
  903299:	0b8000        	callx8	a8

		/* UPDATE cticks - to be moved to idle_tsk, put here will be easier to read  */
		A_CLOCK_TICK();
  90329c:	282240        	l32i	a8, a2, 0x100
  90329f:	0b8000        	callx8	a8

		HIF_isr_handler(NULL);
  9032a2:	282280        	l32i	a8, a2, 0x200
  9032a5:	c0a0      	movi.n	a10, 0
  9032a7:	0b8000        	callx8	a8

#if MAGPIE_ENABLE_WLAN == 1
		wlan_pci_isr();
  9032aa:	58028a        	call8	903cd4 <wlan_pci_isr>
#endif

		A_TASKLET_RUN();
  9032ad:	28226d        	l32i	a8, a2, 0x1b4
  9032b0:	0b8000        	callx8	a8
		A_TIMER_RUN();
  9032b3:	282245        	l32i	a8, a2, 0x114
  9032b6:	0b8000        	callx8	a8
		temp[i] = 0;
}

static void idle_task()
{
	if (loop_low == 0xffffffff) {
  9032b9:	1871b9        	l32r	a8, 8df9a0 <_bss_end+0x3d2198>
  9032bc:	8980      	l32i.n	a9, a8, 0
  9032be:	699008        	bnei	a9, -1, 9032ca <wlan_task+0x46>
		loop_low = 0;
  9032c1:	c090      	movi.n	a9, 0
  9032c3:	9980      	s32i.n	a9, a8, 0
		loop_high++;
  9032c5:	1871b8        	l32r	a8, 8df9a8 <_bss_end+0x3d21a0>
  9032c8:	8980      	l32i.n	a9, a8, 0
	} else {
		loop_low++;
  9032ca:	b199      	addi.n	a9, a9, 1
  9032cc:	9980      	s32i.n	a9, a8, 0
  9032ce:	63ffc4        	j	903296 <wlan_task+0x12>
  9032d1:	000000        	ill

009032d4 <htc_setup_comp>:
#define MAGPIE 1

#if MAGPIE==1

void htc_setup_comp(void)
{
  9032d4:	6c1004        	entry	a1, 32
  9032d7:	d10f      	retw.n
  9032d9:	000000        	ill

009032dc <_wmi_cmd_rsp>:
	}
}

void _wmi_cmd_rsp(void *pContext, WMI_COMMAND_ID cmd_id, A_UINT16 SeqNo,
		  A_UINT8 *buffer, int Length)
{
  9032dc:	6c1006        	entry	a1, 48
	adf_nbuf_t netbuf = ADF_NBUF_NULL;
	A_UINT8 *pData;

	netbuf = WMI_AllocEvent(pContext, WMI_EVT_CLASS_CMD_REPLY, sizeof(WMI_CMD_HDR) + Length);
  9032df:	177184        	l32r	a7, 8df8f0 <_bss_end+0x3d20e8>
  9032e2:	022a02        	or	a10, a2, a2
  9032e5:	287292        	l32i	a8, a7, 0x248
  9032e8:	c0b1      	movi.n	a11, 1
  9032ea:	2c6c04        	addi	a12, a6, 4
  9032ed:	0b8000        	callx8	a8
	}
}

void _wmi_cmd_rsp(void *pContext, WMI_COMMAND_ID cmd_id, A_UINT16 SeqNo,
		  A_UINT8 *buffer, int Length)
{
  9032f0:	04044f        	extui	a4, a4, 0, 16
	adf_nbuf_t netbuf = ADF_NBUF_NULL;
	A_UINT8 *pData;

	netbuf = WMI_AllocEvent(pContext, WMI_EVT_CLASS_CMD_REPLY, sizeof(WMI_CMD_HDR) + Length);
  9032f3:	d8a0      	mov.n	a8, a10
    
	if (netbuf == ADF_NBUF_NULL) {
  9032f5:	cda1      	bnez.n	a10, 90330a <_wmi_cmd_rsp+0x2e>
		adf_os_print("%s: buffer allocation for event_id %x failed!\n", __FUNCTION__, cmd_id);
  9032f7:	227212        	l32i	a2, a7, 72
  9032fa:	1a71ba        	l32r	a10, 8df9e4 <_bss_end+0x3d21dc>
  9032fd:	1b71bb        	l32r	a11, 8df9ec <_bss_end+0x3d21e4>
  903300:	dc30      	mov.n	a12, a3
  903302:	0b2000        	callx8	a2
  903305:	63fffc        	j	903305 <_wmi_cmd_rsp+0x29>
  903308:	0000c9        	excw
		adf_os_assert(0);
		return;
	}

	if (Length != 0 && buffer != NULL) {
  90330b:	62c950        	j	8efc5f <memset+0xaac3>
 *         put, or NULL if there is not enough room in this buf.
 */
static inline a_uint8_t *
adf_nbuf_put_tail(adf_nbuf_t buf, adf_os_size_t size)
{
    return __adf_nbuf_put_tail(buf, size);
  90330e:	db60      	mov.n	a11, a6
  903310:	9810      	s32i.n	a8, a1, 0
  903312:	5800c7        	call8	903630 <__adf_nbuf_put_tail>
}

/* move a memory buffer */
static inline void 		__adf_os_mem_copy(void *dst, const void *src, adf_os_size_t size)
{
    A_MEMCPY(dst,src,size);    
  903315:	8775      	l32i.n	a7, a7, 20
  903317:	db50      	mov.n	a11, a5
  903319:	dc60      	mov.n	a12, a6
  90331b:	0b7000        	callx8	a7
  90331e:	8810      	l32i.n	a8, a1, 0
		pData = (A_UINT8 *)adf_nbuf_put_tail(netbuf, Length);
		adf_os_mem_copy(pData, buffer, Length);
	}

	WMI_SendEvent(pContext, netbuf, cmd_id, SeqNo, Length);
  903320:	157184        	l32r	a5, 8df930 <_bss_end+0x3d2128>
  903323:	da20      	mov.n	a10, a2
  903325:	255293        	l32i	a5, a5, 0x24c
  903328:	db80      	mov.n	a11, a8
  90332a:	030c4f        	extui	a12, a3, 0, 16
  90332d:	dd40      	mov.n	a13, a4
  90332f:	de60      	mov.n	a14, a6
  903331:	0b5000        	callx8	a5
  903334:	d10f      	retw.n
	...

00903338 <Magpie_init>:
}


void Magpie_init(void)
{
  903338:	6c1004        	entry	a1, 32
	A_PRINTF("[+++Magpie_init]\n\r");
  90333b:	127184        	l32r	a2, 8df94c <_bss_end+0x3d2144>
  90333e:	1a71bc        	l32r	a10, 8dfa30 <_bss_end+0x3d2228>
  903341:	232212        	l32i	a3, a2, 72
  903344:	0b3000        	callx8	a3
 
	A_PRINTF("[+++VBUF_init(%d)]\n\r", MAX_BUF_NUM);
  903347:	1371bd        	l32r	a3, 8dfa3c <_bss_end+0x3d2234>
  90334a:	282212        	l32i	a8, a2, 72
  90334d:	2b0a64        	movi	a11, 100
  903350:	da30      	mov.n	a10, a3
  903352:	0b8000        	callx8	a8
	VBUF_init(MAX_BUF_NUM);
  903355:	2822a5        	l32i	a8, a2, 0x294
  903358:	2a0a64        	movi	a10, 100
  90335b:	0b8000        	callx8	a8
    
	A_PRINTF("[+++VBUF_init(%d)]\n\r", MAX_DESC_NUM);
  90335e:	282212        	l32i	a8, a2, 72
  903361:	da30      	mov.n	a10, a3
  903363:	2b0a64        	movi	a11, 100
  903366:	0b8000        	callx8	a8
	VDESC_init(MAX_DESC_NUM);
  903369:	2222aa        	l32i	a2, a2, 0x2a8
  90336c:	2a0a64        	movi	a10, 100
  90336f:	0b2000        	callx8	a2
  903372:	d10f      	retw.n

00903374 <__adf_nbuf_alloc>:
 * @return newly allocated nbuf
 */
__adf_nbuf_t 
__adf_nbuf_alloc(adf_os_size_t size, a_uint32_t reserve, 
                 a_uint32_t align)
{
  903374:	6c1004        	entry	a1, 32
    VBUF *buf = NULL;
    VDESC *desc;
    
    buf = VBUF_alloc_vbuf();
  903377:	157184        	l32r	a5, 8df988 <_bss_end+0x3d2180>
 * @return newly allocated nbuf
 */
__adf_nbuf_t 
__adf_nbuf_alloc(adf_os_size_t size, a_uint32_t reserve, 
                 a_uint32_t align)
{
  90337a:	d620      	mov.n	a6, a2
    VBUF *buf = NULL;
    VDESC *desc;
    
    buf = VBUF_alloc_vbuf();
  90337c:	2a52a6        	l32i	a10, a5, 0x298
  90337f:	0ba000        	callx8	a10
  903382:	d2a0      	mov.n	a2, a10
    if ( buf != NULL ) {
  903384:	64a028        	beqz	a10, 9033b0 <__adf_nbuf_alloc+0x3c>
        desc = VDESC_alloc_vdesc();
  903387:	2a52ab        	l32i	a10, a5, 0x2ac
  90338a:	0ba000        	callx8	a10
        desc->buf_addr = (A_UINT8 *)A_ALLOCRAM(size);
  90338d:	255252        	l32i	a5, a5, 0x148
    VBUF *buf = NULL;
    VDESC *desc;
    
    buf = VBUF_alloc_vbuf();
    if ( buf != NULL ) {
        desc = VDESC_alloc_vdesc();
  903390:	d4a0      	mov.n	a4, a10
        desc->buf_addr = (A_UINT8 *)A_ALLOCRAM(size);
  903392:	db60      	mov.n	a11, a6
  903394:	c0a0      	movi.n	a10, 0
  903396:	0b5000        	callx8	a5
        desc->buf_size = size;
        desc->next_desc = NULL;
  903399:	c080      	movi.n	a8, 0
    VDESC *desc;
    
    buf = VBUF_alloc_vbuf();
    if ( buf != NULL ) {
        desc = VDESC_alloc_vdesc();
        desc->buf_addr = (A_UINT8 *)A_ALLOCRAM(size);
  90339b:	9a41      	s32i.n	a10, a4, 4
        desc->buf_size = size;
  90339d:	264504        	s16i	a6, a4, 8
        desc->next_desc = NULL;
  9033a0:	9840      	s32i.n	a8, a4, 0
        desc->data_offset = reserve;
  9033a2:	234505        	s16i	a3, a4, 10
        desc->data_size = 0;
  9033a5:	284506        	s16i	a8, a4, 12
        desc->control = 0;    
  9033a8:	284507        	s16i	a8, a4, 14
        
        buf->desc_list = desc;
  9033ab:	9420      	s32i.n	a4, a2, 0
        buf->buf_length = 0;    
  9033ad:	282504        	s16i	a8, a2, 8
    }
    
    return buf;
}   
  9033b0:	d10f      	retw.n
	...

009033b4 <__adf_nbuf_free>:
 * @param hdl
 * @param adf_nbuf
 * 
 */
void __adf_nbuf_free(__adf_nbuf_t  buf)
{
  9033b4:	6c1004        	entry	a1, 32
  9033b7:	63fffc        	j	9033b7 <__adf_nbuf_free+0x3>
	...

009033bc <__adf_nbuf_realloc_headroom>:
 * 
 * @return new nbuf
 */
__adf_nbuf_t 
__adf_nbuf_realloc_headroom(__adf_nbuf_t buf, a_uint32_t headroom)
{
  9033bc:	6c1004        	entry	a1, 32
  9033bf:	63fffc        	j	9033bf <__adf_nbuf_realloc_headroom+0x3>
	...

009033c4 <__adf_nbuf_realloc_tailroom>:
 * 
 * @return struct mbuf * (buffer with the new tailroom)
 */
__adf_nbuf_t 
__adf_nbuf_realloc_tailroom(__adf_nbuf_t  buf, a_uint32_t tailroom)
{
  9033c4:	6c1004        	entry	a1, 32
  9033c7:	63fffc        	j	9033c7 <__adf_nbuf_realloc_tailroom+0x3>
	...

009033cc <__adf_nbuf_expand>:
 * 
 * @return struct mbuf* (NULL if something goofed up)
 */
__adf_nbuf_t 
__adf_nbuf_expand(__adf_nbuf_t buf, a_uint32_t headroom, a_uint32_t tailroom)
{
  9033cc:	6c1004        	entry	a1, 32
  9033cf:	63fffc        	j	9033cf <__adf_nbuf_expand+0x3>
	...

009033d4 <__adf_nbuf_push_head>:
 * @return new data pointer ,NULL if the len is more than the
 *         space available in the head frag.
 */
a_uint8_t *       
__adf_nbuf_push_head(__adf_nbuf_t buf, adf_os_size_t len)
{
  9033d4:	6c1004        	entry	a1, 32
    a_uint8_t *ptr = NULL; 
    VDESC *desc = buf->desc_list;
  9033d7:	8820      	l32i.n	a8, a2, 0
    
    desc->data_offset -= len;
  9033d9:	03034f        	extui	a3, a3, 0, 16
    desc->data_size += len;
  9033dc:	2a8106        	l16ui	a10, a8, 12
__adf_nbuf_push_head(__adf_nbuf_t buf, adf_os_size_t len)
{
    a_uint8_t *ptr = NULL; 
    VDESC *desc = buf->desc_list;
    
    desc->data_offset -= len;
  9033df:	298105        	l16ui	a9, a8, 10
    desc->data_size += len;
  9033e2:	aa3a      	add.n	a10, a3, a10
  9033e4:	2a8506        	s16i	a10, a8, 12
__adf_nbuf_push_head(__adf_nbuf_t buf, adf_os_size_t len)
{
    a_uint8_t *ptr = NULL; 
    VDESC *desc = buf->desc_list;
    
    desc->data_offset -= len;
  9033e7:	03990c        	sub	a9, a9, a3
    desc->data_size += len;
    buf->buf_length += len;
  9033ea:	2a2104        	l16ui	a10, a2, 8
__adf_nbuf_push_head(__adf_nbuf_t buf, adf_os_size_t len)
{
    a_uint8_t *ptr = NULL; 
    VDESC *desc = buf->desc_list;
    
    desc->data_offset -= len;
  9033ed:	09094f        	extui	a9, a9, 0, 16
  9033f0:	298505        	s16i	a9, a8, 10
    desc->data_size += len;
    buf->buf_length += len;
  9033f3:	aa33      	add.n	a3, a3, a10
  9033f5:	232504        	s16i	a3, a2, 8
    ptr = desc->buf_addr + desc->data_offset;
  9033f8:	8281      	l32i.n	a2, a8, 4
    return(ptr);
}
  9033fa:	a922      	add.n	a2, a2, a9
  9033fc:	d10f      	retw.n
	...

00903400 <__adf_nbuf_pull_head>:
 * 
 * @return new data pointer
 */
a_uint8_t * 
__adf_nbuf_pull_head(__adf_nbuf_t buf, adf_os_size_t len)
{
  903400:	6c1004        	entry	a1, 32
    a_uint8_t *ptr = NULL;
    VDESC *desc = buf->desc_list;
  903403:	8820      	l32i.n	a8, a2, 0
    
    desc->data_offset += len;
  903405:	03034f        	extui	a3, a3, 0, 16
    desc->data_size -= len;
  903408:	2a8106        	l16ui	a10, a8, 12
__adf_nbuf_pull_head(__adf_nbuf_t buf, adf_os_size_t len)
{
    a_uint8_t *ptr = NULL;
    VDESC *desc = buf->desc_list;
    
    desc->data_offset += len;
  90340b:	298105        	l16ui	a9, a8, 10
    desc->data_size -= len;
  90340e:	03aa0c        	sub	a10, a10, a3
  903411:	2a8506        	s16i	a10, a8, 12
__adf_nbuf_pull_head(__adf_nbuf_t buf, adf_os_size_t len)
{
    a_uint8_t *ptr = NULL;
    VDESC *desc = buf->desc_list;
    
    desc->data_offset += len;
  903414:	a939      	add.n	a9, a3, a9
    desc->data_size -= len;
    buf->buf_length -= len;
  903416:	2a2104        	l16ui	a10, a2, 8
__adf_nbuf_pull_head(__adf_nbuf_t buf, adf_os_size_t len)
{
    a_uint8_t *ptr = NULL;
    VDESC *desc = buf->desc_list;
    
    desc->data_offset += len;
  903419:	09094f        	extui	a9, a9, 0, 16
  90341c:	298505        	s16i	a9, a8, 10
    desc->data_size -= len;
    buf->buf_length -= len;
  90341f:	03a30c        	sub	a3, a10, a3
  903422:	232504        	s16i	a3, a2, 8
    ptr = desc->buf_addr + desc->data_offset;
  903425:	8281      	l32i.n	a2, a8, 4
    
    return ptr;
}
  903427:	a922      	add.n	a2, a2, a9
  903429:	d10f      	retw.n
	...

0090342c <__adf_nbuf_copy>:
 * 
 * @return struct mbuf * (newly allocated buffer)
 */
__adf_nbuf_t 
__adf_nbuf_copy(__adf_nbuf_t src)
{
  90342c:	6c1004        	entry	a1, 32
    __adf_nbuf_t buf = NULL; 

    adf_os_assert(src != NULL);
  90342f:	cc21      	bnez.n	a2, 903434 <__adf_nbuf_copy+0x8>
  903431:	63fffc        	j	903431 <__adf_nbuf_copy+0x5>
    
    return buf;
}
  903434:	c020      	movi.n	a2, 0
  903436:	d10f      	retw.n

00903438 <__adf_nbuf_unshare>:
 * 
 * @return new nbuf
 */
__adf_nbuf_t 
__adf_nbuf_unshare(__adf_nbuf_t  src)
{
  903438:	6c1004        	entry	a1, 32
    __adf_nbuf_t buf = NULL;

    adf_os_assert(src != NULL);
  90343b:	cc21      	bnez.n	a2, 903440 <__adf_nbuf_unshare+0x8>
  90343d:	63fffc        	j	90343d <__adf_nbuf_unshare+0x5>

    return buf;
}
  903440:	c020      	movi.n	a2, 0
  903442:	d10f      	retw.n

00903444 <__adf_nbuf_frag_info>:
 * @param[out] sg (scatter/gather list of all the frags)
 * 
 */
void  
__adf_nbuf_frag_info(__adf_nbuf_t buf, adf_os_sglist_t	*sg)
{
  903444:	6c1004        	entry	a1, 32
    VDESC *desc = buf->desc_list;
  903447:	8820      	l32i.n	a8, a2, 0
  903449:	d930      	mov.n	a9, a3
    int count = 0;
  90344b:	c0a0      	movi.n	a10, 0
    
    while( desc != NULL ) {
  90344d:	600013        	j	903464 <__adf_nbuf_frag_info+0x20>
        sg->sg_segs[count].vaddr = desc->buf_addr + desc->data_offset;
  903450:	2b8105        	l16ui	a11, a8, 10
  903453:	8c81      	l32i.n	a12, a8, 4
        sg->sg_segs[count].len   = desc->data_size;
        
        count++;        
  903455:	b1aa      	addi.n	a10, a10, 1
{
    VDESC *desc = buf->desc_list;
    int count = 0;
    
    while( desc != NULL ) {
        sg->sg_segs[count].vaddr = desc->buf_addr + desc->data_offset;
  903457:	abcb      	add.n	a11, a12, a11
  903459:	9b91      	s32i.n	a11, a9, 4
        sg->sg_segs[count].len   = desc->data_size;
  90345b:	2b8106        	l16ui	a11, a8, 12
  90345e:	9b92      	s32i.n	a11, a9, 8
        
        count++;        
        desc = desc->next_desc;
  903460:	8880      	l32i.n	a8, a8, 0
  903462:	b899      	addi.n	a9, a9, 8
__adf_nbuf_frag_info(__adf_nbuf_t buf, adf_os_sglist_t	*sg)
{
    VDESC *desc = buf->desc_list;
    int count = 0;
    
    while( desc != NULL ) {
  903464:	658fe8        	bnez	a8, 903450 <__adf_nbuf_frag_info+0xc>
        
        count++;        
        desc = desc->next_desc;
    }
    
    sg->nsegs = count;
  903467:	9a30      	s32i.n	a10, a3, 0
  903469:	d10f      	retw.n
	...

0090346c <__adf_nbuf_get_priv>:
 * 
 * @return uint8_t* ( pointer to the data )
 */
a_uint8_t *
__adf_nbuf_get_priv(__adf_nbuf_t buf)
{
  90346c:	6c1004        	entry	a1, 32
    adf_os_assert(buf != NULL);
  90346f:	cc21      	bnez.n	a2, 903474 <__adf_nbuf_get_priv+0x8>
  903471:	63fffc        	j	903471 <__adf_nbuf_get_priv+0x5>

    return buf->ctx;
}
  903474:	bc22      	addi.n	a2, a2, 12
  903476:	d10f      	retw.n

00903478 <__adf_nbuf_queue_add>:
 * 
 */
void 
__adf_nbuf_queue_add(__adf_nbuf_qhead_t  *qhead, 
                     __adf_nbuf_t  buf)
{
  903478:	6c1004        	entry	a1, 32
    qhead->qlen++;
  90347b:	8822      	l32i.n	a8, a2, 8
  90347d:	b188      	addi.n	a8, a8, 1
  90347f:	9822      	s32i.n	a8, a2, 8

    buf->next_buf = NULL;
  903481:	c080      	movi.n	a8, 0
  903483:	9831      	s32i.n	a8, a3, 4

    if (qhead->head == NULL) {
  903485:	8820      	l32i.n	a8, a2, 0
  903487:	cc83      	bnez.n	a8, 90348e <__adf_nbuf_queue_add+0x16>
        qhead->head = buf;
  903489:	9320      	s32i.n	a3, a2, 0
  90348b:	600003        	j	903492 <__adf_nbuf_queue_add+0x1a>
    }
    else {
        qhead->tail->next_buf = buf;
  90348e:	8821      	l32i.n	a8, a2, 4
  903490:	9381      	s32i.n	a3, a8, 4
    }
    qhead->tail = buf;
  903492:	9321      	s32i.n	a3, a2, 4
  903494:	d10f      	retw.n
	...

00903498 <__adf_nbuf_queue_remove>:
 * 
 * @return the nbuf
 */
__adf_nbuf_t   
__adf_nbuf_queue_remove(__adf_nbuf_qhead_t *qhead)
{
  903498:	6c1004        	entry	a1, 32
  90349b:	d820      	mov.n	a8, a2
    __adf_nbuf_t  b0 = NULL;

    if (qhead->head) {
  90349d:	8220      	l32i.n	a2, a2, 0
  90349f:	c929      	beqz.n	a2, 9034bc <__adf_nbuf_queue_remove+0x24>
        qhead->qlen--;
  9034a1:	8982      	l32i.n	a9, a8, 8
        b0 = qhead->head;
        if ( qhead->head == qhead->tail ) {
  9034a3:	8a81      	l32i.n	a10, a8, 4
__adf_nbuf_queue_remove(__adf_nbuf_qhead_t *qhead)
{
    __adf_nbuf_t  b0 = NULL;

    if (qhead->head) {
        qhead->qlen--;
  9034a5:	b099      	addi.n	a9, a9, -1
  9034a7:	9982      	s32i.n	a9, a8, 8
  9034a9:	c090      	movi.n	a9, 0
        b0 = qhead->head;
        if ( qhead->head == qhead->tail ) {
  9034ab:	7a2907        	bne	a2, a10, 9034b6 <__adf_nbuf_queue_remove+0x1e>
            qhead->head = NULL;
  9034ae:	9980      	s32i.n	a9, a8, 0
            qhead->tail = NULL;
  9034b0:	9981      	s32i.n	a9, a8, 4
  9034b2:	600004        	j	9034ba <__adf_nbuf_queue_remove+0x22>
  9034b5:	008a21        	excw
        } else {
            qhead->head = qhead->head->next_buf;
  9034b8:	9a80      	s32i.n	a10, a8, 0
        }
    
        b0->next_buf = NULL;
  9034ba:	9921      	s32i.n	a9, a2, 4
    }
	return b0;
}
  9034bc:	d10f      	retw.n
	...

009034c0 <__adf_nbuf_dmamap_create>:
 * 
 * @return a_status_t
 */
a_status_t 
__adf_nbuf_dmamap_create(__adf_os_device_t osdev, __adf_os_dma_map_t *dmap)
{
  9034c0:	6c1004        	entry	a1, 32
    a_status_t retval = A_STATUS_OK;
    
    (*dmap) = A_ALLOCRAM(sizeof(struct __adf_dma_map));
  9034c3:	127184        	l32r	a2, 8dfad4 <_bss_end+0x3d22cc>
  9034c6:	c0a0      	movi.n	a10, 0
  9034c8:	222252        	l32i	a2, a2, 0x148
  9034cb:	c0bc      	movi.n	a11, 12
  9034cd:	0b2000        	callx8	a2
  9034d0:	9a30      	s32i.n	a10, a3, 0
    if(*dmap == NULL)
        return A_STATUS_ENOMEM;
  9034d2:	c023      	movi.n	a2, 3
__adf_nbuf_dmamap_create(__adf_os_device_t osdev, __adf_os_dma_map_t *dmap)
{
    a_status_t retval = A_STATUS_OK;
    
    (*dmap) = A_ALLOCRAM(sizeof(struct __adf_dma_map));
    if(*dmap == NULL)
  9034d4:	c8a2      	beqz.n	a10, 9034da <__adf_nbuf_dmamap_create+0x1a>
        return A_STATUS_ENOMEM;
            
    (*dmap)->buf = NULL;
  9034d6:	c020      	movi.n	a2, 0
  9034d8:	92a0      	s32i.n	a2, a10, 0
    return retval;
}
  9034da:	d10f      	retw.n

009034dc <__adf_nbuf_map>:


a_status_t 
__adf_nbuf_map(__adf_os_device_t osdev, __adf_os_dma_map_t bmap, 
                          __adf_nbuf_t buf, adf_os_dma_dir_t dir)
{   
  9034dc:	6c1004        	entry	a1, 32
    bmap->buf = buf;
  9034df:	9430      	s32i.n	a4, a3, 0
    
    return A_STATUS_OK;
}
  9034e1:	c020      	movi.n	a2, 0
  9034e3:	d10f      	retw.n
  9034e5:	000000        	ill

009034e8 <__adf_nbuf_unmap>:

void 
__adf_nbuf_unmap(__adf_os_device_t osdev, __adf_os_dma_map_t bmap, 
                            adf_os_dma_dir_t dir)
{
  9034e8:	6c1004        	entry	a1, 32
    bmap->buf = NULL;
  9034eb:	c080      	movi.n	a8, 0
  9034ed:	9830      	s32i.n	a8, a3, 0
  9034ef:	d10f      	retw.n
  9034f1:	000000        	ill

009034f4 <__adf_nbuf_dmamap_destroy>:
}

void
__adf_nbuf_dmamap_destroy(__adf_os_device_t osdev, 
                          __adf_os_dma_map_t dmap)
{
  9034f4:	6c1004        	entry	a1, 32
  9034f7:	d10f      	retw.n
  9034f9:	000000        	ill

009034fc <__adf_nbuf_dmamap_info>:
 * @param[in]  bmap
 * @param[out] sg (map_info ptr)
 */
void 
__adf_nbuf_dmamap_info(__adf_os_dma_map_t bmap, adf_os_dmamap_info_t *sg)
{
  9034fc:	6c1004        	entry	a1, 32
    VDESC *desc = bmap->buf->desc_list;
  9034ff:	8820      	l32i.n	a8, a2, 0
  903501:	d930      	mov.n	a9, a3
  903503:	8880      	l32i.n	a8, a8, 0
    int count = 0;
  903505:	c0a0      	movi.n	a10, 0
    
    while( desc != NULL ) {
  903507:	600015        	j	903520 <__adf_nbuf_dmamap_info+0x24>
  90350a:	00002b        	mulsh	a0, a0, a0
        sg->dma_segs[count].paddr = (adf_os_dma_addr_t)(desc->buf_addr + desc->data_offset);
  90350d:	8105      	l32i.n	a1, a0, 20
  90350f:	8c81      	l32i.n	a12, a8, 4
        sg->dma_segs[count].len   = desc->data_size;
        
        count++;        
  903511:	b1aa      	addi.n	a10, a10, 1
{
    VDESC *desc = bmap->buf->desc_list;
    int count = 0;
    
    while( desc != NULL ) {
        sg->dma_segs[count].paddr = (adf_os_dma_addr_t)(desc->buf_addr + desc->data_offset);
  903513:	abcb      	add.n	a11, a12, a11
  903515:	9b91      	s32i.n	a11, a9, 4
        sg->dma_segs[count].len   = desc->data_size;
  903517:	2b8106        	l16ui	a11, a8, 12
        
        count++;        
        desc = desc->next_desc;
  90351a:	8880      	l32i.n	a8, a8, 0
    VDESC *desc = bmap->buf->desc_list;
    int count = 0;
    
    while( desc != NULL ) {
        sg->dma_segs[count].paddr = (adf_os_dma_addr_t)(desc->buf_addr + desc->data_offset);
        sg->dma_segs[count].len   = desc->data_size;
  90351c:	9b92      	s32i.n	a11, a9, 8
  90351e:	b899      	addi.n	a9, a9, 8
__adf_nbuf_dmamap_info(__adf_os_dma_map_t bmap, adf_os_dmamap_info_t *sg)
{
    VDESC *desc = bmap->buf->desc_list;
    int count = 0;
    
    while( desc != NULL ) {
  903520:	658fe8        	bnez	a8, 90350c <__adf_nbuf_dmamap_info+0x10>
        
        count++;        
        desc = desc->next_desc;
    }
    
    sg->nsegs = count;    
  903523:	9a30      	s32i.n	a10, a3, 0
  903525:	d10f      	retw.n
	...

00903528 <__adf_nbuf_set_rx_cksum>:
 * @param buf
 * @param cksum
 */
void 
__adf_nbuf_set_rx_cksum(__adf_nbuf_t buf, adf_nbuf_rx_cksum_t *cksum)
{
  903528:	6c1004        	entry	a1, 32
  90352b:	d10f      	retw.n
  90352d:	000000        	ill

00903530 <__adf_nbuf_get_vlan_info>:
}

a_status_t      
__adf_nbuf_get_vlan_info(adf_net_handle_t hdl, __adf_nbuf_t buf, 
                         adf_net_vlanhdr_t *vlan)
{
  903530:	6c1004        	entry	a1, 32
    return A_STATUS_OK;
}
  903533:	c020      	movi.n	a2, 0
  903535:	d10f      	retw.n
	...

00903538 <__adf_nbuf_create_frm_frag>:

__adf_nbuf_t
__adf_nbuf_create_frm_frag(__adf_nbuf_queue_t *qhead)
{
  903538:	6c1006        	entry	a1, 48
    VBUF *buf_tmp, *buf_head = NULL;
    VDESC *vdesc_prev = NULL, *vdesc_tmp = NULL;
    a_uint32_t cnt = 0, len = __adf_nbuf_queue_len(qhead);
    a_uint16_t total_len = 0;

    buf_head = VBUF_alloc_vbuf();
  90353b:	167184        	l32r	a6, 8dfb4c <_bss_end+0x3d2344>
    return A_STATUS_OK;
}

__adf_nbuf_t
__adf_nbuf_create_frm_frag(__adf_nbuf_queue_t *qhead)
{
  90353e:	d420      	mov.n	a4, a2
    VBUF *buf_tmp, *buf_head = NULL;
    VDESC *vdesc_prev = NULL, *vdesc_tmp = NULL;
    a_uint32_t cnt = 0, len = __adf_nbuf_queue_len(qhead);
    a_uint16_t total_len = 0;

    buf_head = VBUF_alloc_vbuf();
  903540:	2a62a6        	l32i	a10, a6, 0x298
 * 
 */
a_uint32_t  
__adf_nbuf_queue_len(__adf_nbuf_qhead_t *qhead)
{
    return qhead->qlen;
  903543:	8522      	l32i.n	a5, a2, 8
    VBUF *buf_tmp, *buf_head = NULL;
    VDESC *vdesc_prev = NULL, *vdesc_tmp = NULL;
    a_uint32_t cnt = 0, len = __adf_nbuf_queue_len(qhead);
    a_uint16_t total_len = 0;

    buf_head = VBUF_alloc_vbuf();
  903545:	0ba000        	callx8	a10
  903548:	d2a0      	mov.n	a2, a10
 * @return (NULL if the Q is empty)
 */
__adf_nbuf_t   
__adf_nbuf_queue_first(__adf_nbuf_queue_t *qhead)
{
    return qhead->head;
  90354a:	8340      	l32i.n	a3, a4, 0
    a_uint16_t total_len = 0;

    buf_head = VBUF_alloc_vbuf();
    buf_tmp = __adf_nbuf_queue_first(qhead);

    __adf_os_assert(buf_head);
  90354c:	cca1      	bnez.n	a10, 903551 <__adf_nbuf_create_frm_frag+0x19>
  90354e:	63fffc        	j	90354e <__adf_nbuf_create_frm_frag+0x16>
    __adf_os_assert(buf_tmp);
  903551:	cc31      	bnez.n	a3, 903556 <__adf_nbuf_create_frm_frag+0x1e>
  903553:	63fffc        	j	903553 <__adf_nbuf_create_frm_frag+0x1b>

    buf_head->desc_list = buf_tmp->desc_list;
  903556:	8330      	l32i.n	a3, a3, 0
  903558:	93a0      	s32i.n	a3, a10, 0
__adf_nbuf_create_frm_frag(__adf_nbuf_queue_t *qhead)
{
    VBUF *buf_tmp, *buf_head = NULL;
    VDESC *vdesc_prev = NULL, *vdesc_tmp = NULL;
    a_uint32_t cnt = 0, len = __adf_nbuf_queue_len(qhead);
    a_uint16_t total_len = 0;
  90355a:	c030      	movi.n	a3, 0
__adf_nbuf_t
__adf_nbuf_create_frm_frag(__adf_nbuf_queue_t *qhead)
{
    VBUF *buf_tmp, *buf_head = NULL;
    VDESC *vdesc_prev = NULL, *vdesc_tmp = NULL;
    a_uint32_t cnt = 0, len = __adf_nbuf_queue_len(qhead);
  90355c:	d730      	mov.n	a7, a3

__adf_nbuf_t
__adf_nbuf_create_frm_frag(__adf_nbuf_queue_t *qhead)
{
    VBUF *buf_tmp, *buf_head = NULL;
    VDESC *vdesc_prev = NULL, *vdesc_tmp = NULL;
  90355e:	d830      	mov.n	a8, a3
    __adf_os_assert(buf_head);
    __adf_os_assert(buf_tmp);

    buf_head->desc_list = buf_tmp->desc_list;

    while ((buf_tmp = __adf_nbuf_queue_remove(qhead)) != NULL) {
  903560:	60002d        	j	903591 <__adf_nbuf_create_frm_frag+0x59>
  903563:	0029a1        	excw
        cnt++;

        //adf_os_print("merge buf: %x\n", buf_tmp->desc_list->buf_addr + buf_tmp->desc_list->data_offset);

        total_len += buf_tmp->buf_length;
  903566:	04b177        	excw
  903569:	a933      	add.n	a3, a3, a9
  90356b:	03034f        	extui	a3, a3, 0, 16
  90356e:	89a0      	l32i.n	a9, a10, 0

        if (vdesc_prev) {
  903570:	c886      	beqz.n	a8, 90357a <__adf_nbuf_create_frm_frag+0x42>
            /* link "the last VDESC of previous VBUF" to "the 1st VDESC of this VBUF" */
            vdesc_prev->next_desc = buf_tmp->desc_list;
  903572:	9980      	s32i.n	a9, a8, 0
        }

        /* traverse VDESC list in this VBUF to find out the last VDESC */
        vdesc_tmp = buf_tmp->desc_list;
        while (vdesc_tmp->next_desc) {
  903574:	600002        	j	90357a <__adf_nbuf_create_frm_frag+0x42>
  903577:	00d980        	excw
  90357a:	8890      	l32i.n	a8, a9, 0
  90357c:	658ff8        	bnez	a8, 903578 <__adf_nbuf_create_frm_frag+0x40>
            vdesc_tmp = vdesc_tmp->next_desc;
        }
        vdesc_prev = vdesc_tmp;

        /* return VBUF to the pool */
        buf_tmp->desc_list = NULL;
  90357f:	98a0      	s32i.n	a8, a10, 0
        buf_tmp->buf_length = 0;
  903581:	28a504        	s16i	a8, a10, 8
        VBUF_free_vbuf(buf_tmp);
  903584:	2862a8        	l32i	a8, a6, 0x2a0
  903587:	291600        	s32i	a9, a1, 0
  90358a:	0b8000        	callx8	a8
  90358d:	8910      	l32i.n	a9, a1, 0
  90358f:	d890      	mov.n	a8, a9
    __adf_os_assert(buf_head);
    __adf_os_assert(buf_tmp);

    buf_head->desc_list = buf_tmp->desc_list;

    while ((buf_tmp = __adf_nbuf_queue_remove(qhead)) != NULL) {
  903591:	da40      	mov.n	a10, a4
  903593:	9810      	s32i.n	a8, a1, 0
  903595:	5bffc0        	call8	903498 <__adf_nbuf_queue_remove>
  903598:	8810      	l32i.n	a8, a1, 0
  90359a:	65afc6        	bnez	a10, 903564 <__adf_nbuf_create_frm_frag+0x2c>
        buf_tmp->desc_list = NULL;
        buf_tmp->buf_length = 0;
        VBUF_free_vbuf(buf_tmp);
    }

    if (cnt != len) {
  90359d:	757103        	beq	a7, a5, 9035a4 <__adf_nbuf_create_frm_frag+0x6c>
  9035a0:	63fffc        	j	9035a0 <__adf_nbuf_create_frm_frag+0x68>
  9035a3:	002325        	excw
        //             __adf_nbuf_queue_len(qhead));
        adf_os_assert(0);
    }
    //__adf_os_assert(cnt == len);

    buf_head->buf_length = total_len;
  9035a6:	04d10f        	subx8	a1, a13, a4

    return buf_head;
}
  9035a9:	000000        	ill

009035ac <__adf_nbuf_split_to_frag>:

void
__adf_nbuf_split_to_frag(__adf_nbuf_t buf, __adf_nbuf_qhead_t *qhead)
{
  9035ac:	6c1004        	entry	a1, 32
 * @param qhead
 */
void 
__adf_nbuf_queue_init(__adf_nbuf_qhead_t *qhead)
{
    qhead->qlen = 0;
  9035af:	c040      	movi.n	a4, 0
  9035b1:	9432      	s32i.n	a4, a3, 8
    qhead->head = NULL;
  9035b3:	9430      	s32i.n	a4, a3, 0
    qhead->tail = NULL;
  9035b5:	9431      	s32i.n	a4, a3, 4
  9035b7:	167184        	l32r	a6, 8dfbc8 <_bss_end+0x3d23c0>
{
    VBUF *buf_tmp;
    VDESC *desc_tmp = NULL;

    __adf_nbuf_queue_init(qhead);
    desc_tmp = buf->desc_list;
  9035ba:	8420      	l32i.n	a4, a2, 0

    while (desc_tmp /*&& desc_tmp->buf_addr*/) {
  9035bc:	600026        	j	9035e6 <__adf_nbuf_split_to_frag+0x3a>
  9035bf:	002a62        	excw
        buf_tmp = VBUF_alloc_vbuf();
  9035c2:	a60b      	add.n	a11, a0, a6
  9035c4:	a000      	add.n	a0, a0, a0
  9035c6:	d5a0      	mov.n	a5, a10

        __adf_os_assert(buf_tmp);
  9035c8:	cca1      	bnez.n	a10, 9035cd <__adf_nbuf_split_to_frag+0x21>
  9035ca:	63fffc        	j	9035ca <__adf_nbuf_split_to_frag+0x1e>

        //desc_tmp->data_size = 0;
        buf_tmp->desc_list = desc_tmp;
        //buf_tmp->buf_length = desc_tmp->buf_size;
        buf_tmp->buf_length = desc_tmp->data_size;
  9035cd:	274106        	l16ui	a7, a4, 12
        buf_tmp = VBUF_alloc_vbuf();

        __adf_os_assert(buf_tmp);

        //desc_tmp->data_size = 0;
        buf_tmp->desc_list = desc_tmp;
  9035d0:	94a0      	s32i.n	a4, a10, 0
        //buf_tmp->buf_length = desc_tmp->buf_size;
        buf_tmp->buf_length = desc_tmp->data_size;
  9035d2:	27a504        	s16i	a7, a10, 8
        buf_tmp->next_buf = NULL;
  9035d5:	c070      	movi.n	a7, 0
  9035d7:	97a1      	s32i.n	a7, a10, 4

        //adf_os_print("split - buf: %x\n", buf_tmp->desc_list->buf_addr + buf_tmp->desc_list->data_offset);

        __adf_nbuf_queue_add(qhead, buf_tmp);
  9035d9:	db50      	mov.n	a11, a5
  9035db:	da30      	mov.n	a10, a3
  9035dd:	5bffa6        	call8	903478 <__adf_nbuf_queue_add>

        desc_tmp = desc_tmp->next_desc;

        buf_tmp->desc_list->next_desc = NULL;
  9035e0:	8550      	l32i.n	a5, a5, 0

        //adf_os_print("split - buf: %x\n", buf_tmp->desc_list->buf_addr + buf_tmp->desc_list->data_offset);

        __adf_nbuf_queue_add(qhead, buf_tmp);

        desc_tmp = desc_tmp->next_desc;
  9035e2:	8440      	l32i.n	a4, a4, 0

        buf_tmp->desc_list->next_desc = NULL;
  9035e4:	9750      	s32i.n	a7, a5, 0
    VDESC *desc_tmp = NULL;

    __adf_nbuf_queue_init(qhead);
    desc_tmp = buf->desc_list;

    while (desc_tmp /*&& desc_tmp->buf_addr*/) {
  9035e6:	654fd6        	bnez	a4, 9035c0 <__adf_nbuf_split_to_frag+0x14>
        buf_tmp->desc_list->next_desc = NULL;
    }

    buf->desc_list = NULL;
    buf->buf_length = 0;
    VBUF_free_vbuf(buf);
  9035e9:	2362a8        	l32i	a3, a6, 0x2a0
        desc_tmp = desc_tmp->next_desc;

        buf_tmp->desc_list->next_desc = NULL;
    }

    buf->desc_list = NULL;
  9035ec:	9420      	s32i.n	a4, a2, 0
    buf->buf_length = 0;
  9035ee:	242504        	s16i	a4, a2, 8
    VBUF_free_vbuf(buf);
  9035f1:	da20      	mov.n	a10, a2
  9035f3:	0b3000        	callx8	a3
  9035f6:	d10f      	retw.n

009035f8 <__adf_nbuf_last>:
 * 
 * @return struct mbuf*
 */
VDESC * 
__adf_nbuf_last(VBUF *buf)
{
  9035f8:	6c1004        	entry	a1, 32
    VDESC *desc = buf->desc_list;
  9035fb:	8220      	l32i.n	a2, a2, 0
    
    //for(; desc->next_desc != NULL; desc = desc->next_desc)
    //    ;
    while(desc->next_desc != NULL)
  9035fd:	600001        	j	903602 <__adf_nbuf_last+0xa>
    {
        desc = desc->next_desc;
  903600:	d280      	mov.n	a2, a8
{
    VDESC *desc = buf->desc_list;
    
    //for(; desc->next_desc != NULL; desc = desc->next_desc)
    //    ;
    while(desc->next_desc != NULL)
  903602:	8820      	l32i.n	a8, a2, 0
  903604:	658ff8        	bnez	a8, 903600 <__adf_nbuf_last+0x8>
    {
        desc = desc->next_desc;
    }
    
    return desc;
}
  903607:	d10f      	retw.n
  903609:	000000        	ill

0090360c <__adf_nbuf_trim_tail>:
 * @param len (how much to strip down)
 * 
 */
void 
__adf_nbuf_trim_tail(__adf_nbuf_t buf, adf_os_size_t len)
{
  90360c:	6c1004        	entry	a1, 32
    VDESC *last_desc = __adf_nbuf_last(buf);
  90360f:	da20      	mov.n	a10, a2
  903611:	5bfff9        	call8	9035f8 <__adf_nbuf_last>
    
    adf_os_assert(buf != NULL);
  903614:	cc21      	bnez.n	a2, 903619 <__adf_nbuf_trim_tail+0xd>
  903616:	63fffc        	j	903616 <__adf_nbuf_trim_tail+0xa>
    last_desc->data_size -= len;
  903619:	28a106        	l16ui	a8, a10, 12
  90361c:	03034f        	extui	a3, a3, 0, 16
  90361f:	03880c        	sub	a8, a8, a3
  903622:	28a506        	s16i	a8, a10, 12
    buf->buf_length -= len;
  903625:	282104        	l16ui	a8, a2, 8
  903628:	03830c        	sub	a3, a8, a3
  90362b:	232504        	s16i	a3, a2, 8
  90362e:	d10f      	retw.n

00903630 <__adf_nbuf_put_tail>:
 * @return previous tail (data+len),NULL if the len is more than
 *         space available
 */
a_uint8_t *
__adf_nbuf_put_tail(__adf_nbuf_t buf, adf_os_size_t len)
{
  903630:	6c1004        	entry	a1, 32
    a_uint8_t *tail = NULL;
    VDESC *last_desc = __adf_nbuf_last(buf);
  903633:	da20      	mov.n	a10, a2
  903635:	5bfff0        	call8	9035f8 <__adf_nbuf_last>
    
    tail = last_desc->buf_addr + last_desc->data_offset + last_desc->data_size;
  903638:	28a106        	l16ui	a8, a10, 12
  90363b:	29a105        	l16ui	a9, a10, 10
    last_desc->data_size += len;
  90363e:	03034f        	extui	a3, a3, 0, 16
__adf_nbuf_put_tail(__adf_nbuf_t buf, adf_os_size_t len)
{
    a_uint8_t *tail = NULL;
    VDESC *last_desc = __adf_nbuf_last(buf);
    
    tail = last_desc->buf_addr + last_desc->data_offset + last_desc->data_size;
  903641:	a989      	add.n	a9, a8, a9
    last_desc->data_size += len;
  903643:	a838      	add.n	a8, a3, a8
  903645:	28a506        	s16i	a8, a10, 12
    buf->buf_length += len;
  903648:	282104        	l16ui	a8, a2, 8
__adf_nbuf_put_tail(__adf_nbuf_t buf, adf_os_size_t len)
{
    a_uint8_t *tail = NULL;
    VDESC *last_desc = __adf_nbuf_last(buf);
    
    tail = last_desc->buf_addr + last_desc->data_offset + last_desc->data_size;
  90364b:	8ba1      	l32i.n	a11, a10, 4
    last_desc->data_size += len;
    buf->buf_length += len;
  90364d:	a833      	add.n	a3, a3, a8
  90364f:	232504        	s16i	a3, a2, 8
    
    return tail;
}
  903652:	a9b2      	add.n	a2, a11, a9
  903654:	d10f      	retw.n
	...

00903658 <__adf_nbuf_headroom>:
 * 
 * @return num of bytes available
 */
a_uint32_t
__adf_nbuf_headroom(__adf_nbuf_t  buf)
{
  903658:	6c1004        	entry	a1, 32
    return buf->desc_list->data_offset;
  90365b:	8820      	l32i.n	a8, a2, 0
}
  90365d:	228105        	l16ui	a2, a8, 10
  903660:	d10f      	retw.n
	...

00903664 <__adf_nbuf_tailroom>:
 * @return num of bytes
 */

a_uint32_t 
__adf_nbuf_tailroom(__adf_nbuf_t  buf)
{
  903664:	6c1004        	entry	a1, 32
    VDESC *last_desc = __adf_nbuf_last(buf);
  903667:	da20      	mov.n	a10, a2
  903669:	5bffe3        	call8	9035f8 <__adf_nbuf_last>
    
    return last_desc->buf_size - last_desc->data_offset - last_desc->data_size;
  90366c:	28a104        	l16ui	a8, a10, 8
  90366f:	22a105        	l16ui	a2, a10, 10
  903672:	02820c        	sub	a2, a8, a2
  903675:	28a106        	l16ui	a8, a10, 12
}
  903678:	08220c        	sub	a2, a2, a8
  90367b:	d10f      	retw.n
  90367d:	000000        	ill

00903680 <__adf_nbuf_len>:
 * 
 * @return total length of packet (sum of all frag lengths)
 */ 
a_uint32_t
__adf_nbuf_len(__adf_nbuf_t  buf)
{
  903680:	6c1004        	entry	a1, 32
    return buf->buf_length; 
}
  903683:	222104        	l16ui	a2, a2, 8
  903686:	d10f      	retw.n

00903688 <__adf_nbuf_clone>:
 * 
 * @return Read-only copy of the nbuf (including clusters)
 */
__adf_nbuf_t 
__adf_nbuf_clone(__adf_nbuf_t  src)
{
  903688:	6c1004        	entry	a1, 32
    __adf_nbuf_t buf = NULL;
    
    return buf;
}
  90368b:	c020      	movi.n	a2, 0
  90368d:	d10f      	retw.n
	...

00903690 <__adf_nbuf_cat>:

void
__adf_nbuf_cat(__adf_nbuf_t dst, __adf_nbuf_t src)
{
  903690:	6c1004        	entry	a1, 32
  903693:	d10f      	retw.n
  903695:	000000        	ill

00903698 <__adf_nbuf_is_cloned>:
 * 
 * @return a_bool_t
 */
a_bool_t
__adf_nbuf_is_cloned(__adf_nbuf_t  buf)
{
  903698:	6c1004        	entry	a1, 32
    return A_FALSE;
}
  90369b:	c020      	movi.n	a2, 0
  90369d:	d10f      	retw.n
	...

009036a0 <__adf_nbuf_peek_header>:
 * @brief This will return the header's addr & m_len
 */
void
__adf_nbuf_peek_header(__adf_nbuf_t buf, a_uint8_t   **addr, 
                       a_uint32_t	*len)
{
  9036a0:	6c1004        	entry	a1, 32
    VDESC *desc = buf->desc_list;
  9036a3:	8820      	l32i.n	a8, a2, 0
    
    *addr = desc->buf_addr + desc->data_offset;
  9036a5:	298105        	l16ui	a9, a8, 10
  9036a8:	8a81      	l32i.n	a10, a8, 4
    *len = desc->data_size; 
  9036aa:	288106        	l16ui	a8, a8, 12
__adf_nbuf_peek_header(__adf_nbuf_t buf, a_uint8_t   **addr, 
                       a_uint32_t	*len)
{
    VDESC *desc = buf->desc_list;
    
    *addr = desc->buf_addr + desc->data_offset;
  9036ad:	a9a9      	add.n	a9, a10, a9
  9036af:	9930      	s32i.n	a9, a3, 0
    *len = desc->data_size; 
  9036b1:	9840      	s32i.n	a8, a4, 0
  9036b3:	d10f      	retw.n
  9036b5:	000000        	ill

009036b8 <__adf_nbuf_queue_init>:
 * @brief init the queue
 * @param qhead
 */
void 
__adf_nbuf_queue_init(__adf_nbuf_qhead_t *qhead)
{
  9036b8:	6c1004        	entry	a1, 32
    qhead->qlen = 0;
  9036bb:	c080      	movi.n	a8, 0
  9036bd:	9822      	s32i.n	a8, a2, 8
    qhead->head = NULL;
  9036bf:	9820      	s32i.n	a8, a2, 0
    qhead->tail = NULL;
  9036c1:	9821      	s32i.n	a8, a2, 4
  9036c3:	d10f      	retw.n
  9036c5:	000000        	ill

009036c8 <__adf_nbuf_queue_len>:
 * @return length
 * 
 */
a_uint32_t  
__adf_nbuf_queue_len(__adf_nbuf_qhead_t *qhead)
{
  9036c8:	6c1004        	entry	a1, 32
    return qhead->qlen;
}
  9036cb:	8222      	l32i.n	a2, a2, 8
  9036cd:	d10f      	retw.n
	...

009036d0 <__adf_nbuf_queue_first>:
 * 
 * @return (NULL if the Q is empty)
 */
__adf_nbuf_t   
__adf_nbuf_queue_first(__adf_nbuf_queue_t *qhead)
{
  9036d0:	6c1004        	entry	a1, 32
    return qhead->head;
}
  9036d3:	8220      	l32i.n	a2, a2, 0
  9036d5:	d10f      	retw.n
	...

009036d8 <__adf_nbuf_queue_next>:
 * 
 * @return (NULL if no packets are there)
 */
__adf_nbuf_t   
__adf_nbuf_queue_next(__adf_nbuf_t  buf)
{
  9036d8:	6c1004        	entry	a1, 32
    return buf->next_buf;
}
  9036db:	8221      	l32i.n	a2, a2, 4
  9036dd:	d10f      	retw.n
	...

009036e0 <__adf_nbuf_is_queue_empty>:
 * 
 * @return a_bool_t
 */
a_bool_t  
__adf_nbuf_is_queue_empty(__adf_nbuf_qhead_t *qhead)
{
  9036e0:	6c1004        	entry	a1, 32
    return ((qhead->qlen == 0));
  9036e3:	8922      	l32i.n	a9, a2, 8
  9036e5:	c081      	movi.n	a8, 1
  9036e7:	c020      	movi.n	a2, 0
  9036e9:	098238        	moveqz	a2, a8, a9
}
  9036ec:	d10f      	retw.n
	...

009036f0 <_buf_pool_static_init>:
    pAPIs->_free_buf = _buf_pool_static_free_buf;
    pAPIs->_shutdown = _buf_pool_static_shutdown;
}
 
LOCAL pool_handle_t _buf_pool_static_init(adf_os_handle_t handle)
{
  9036f0:	6c1004        	entry	a1, 32
  9036f3:	c080      	movi.n	a8, 0
    pAPIs->_alloc_buf_align = _buf_pool_static_alloc_buf_align;
    pAPIs->_free_buf = _buf_pool_static_free_buf;
    pAPIs->_shutdown = _buf_pool_static_shutdown;
}
 
LOCAL pool_handle_t _buf_pool_static_init(adf_os_handle_t handle)
  9036f5:	1271be        	l32r	a2, 8dfdf0 <_bss_end+0x3d25e8>
{
#if 1
    int i;
    
    for(i=0; i < POOL_ID_MAX; i++) {
        g_poolCtx.bufQ[i] = NULL;
  9036f8:	db80      	mov.n	a11, a8
LOCAL pool_handle_t _buf_pool_static_init(adf_os_handle_t handle)
{
#if 1
    int i;
    
    for(i=0; i < POOL_ID_MAX; i++) {
  9036fa:	c298      	movi.n	a9, 40
    pAPIs->_alloc_buf_align = _buf_pool_static_alloc_buf_align;
    pAPIs->_free_buf = _buf_pool_static_free_buf;
    pAPIs->_shutdown = _buf_pool_static_shutdown;
}
 
LOCAL pool_handle_t _buf_pool_static_init(adf_os_handle_t handle)
  9036fc:	a28a      	add.n	a10, a8, a2
{
#if 1
    int i;
    
    for(i=0; i < POOL_ID_MAX; i++) {
        g_poolCtx.bufQ[i] = NULL;
  9036fe:	9ba0      	s32i.n	a11, a10, 0
  903700:	b488      	addi.n	a8, a8, 4
LOCAL pool_handle_t _buf_pool_static_init(adf_os_handle_t handle)
{
#if 1
    int i;
    
    for(i=0; i < POOL_ID_MAX; i++) {
  903702:	7989f6        	bne	a8, a9, 9036fc <_buf_pool_static_init+0xc>
    ctx = (BUF_POOL_STATIC_CONTEXT *)adf_os_mem_alloc(sizeof(BUF_POOL_STATIC_CONTEXT));
    ctx->NetHandle = handle;
    
    return ctx; 
#endif    
}      
  903705:	d10f      	retw.n
	...

00903708 <_buf_pool_static_shutdown>:
    
LOCAL void _buf_pool_static_shutdown(pool_handle_t handle) 
{
  903708:	6c1004        	entry	a1, 32
  90370b:	d10f      	retw.n
  90370d:	000000        	ill

00903710 <_buf_pool_static_create_pool>:
    // SHALL NOT BE USED in FW
}

LOCAL void _buf_pool_static_create_pool(pool_handle_t handle, BUF_POOL_ID poolId, int nItems, int nSize)
{
  903710:	6c1006        	entry	a1, 48
        desc->data_size = 0;
        
        buf->buf_length = 0;        
        buf->desc_list = desc;
        
        if ( g_poolCtx.bufQ[poolId] == NULL ) {
  903713:	1271be        	l32r	a2, 8dfe0c <_bss_end+0x3d2604>
{
    // SHALL NOT BE USED in FW
}

LOCAL void _buf_pool_static_create_pool(pool_handle_t handle, BUF_POOL_ID poolId, int nItems, int nSize)
{
  903716:	d940      	mov.n	a9, a4
    VDESC *desc;
    
    //BUF_POOL_STATIC_CONTEXT *ctx = (BUF_POOL_STATIC_CONTEXT *)handle;
    
    for ( i = 0; i < nItems; i++) {
        buf = VBUF_alloc_vbuf();
  903718:	177184        	l32r	a7, 8dfd28 <_bss_end+0x3d2520>
    VBUF *buf;
    VDESC *desc;
    
    //BUF_POOL_STATIC_CONTEXT *ctx = (BUF_POOL_STATIC_CONTEXT *)handle;
    
    for ( i = 0; i < nItems; i++) {
  90371b:	c040      	movi.n	a4, 0
        desc->data_size = 0;
        
        buf->buf_length = 0;        
        buf->desc_list = desc;
        
        if ( g_poolCtx.bufQ[poolId] == NULL ) {
  90371d:	02330a        	addx4	a3, a3, a2
    VBUF *buf;
    VDESC *desc;
    
    //BUF_POOL_STATIC_CONTEXT *ctx = (BUF_POOL_STATIC_CONTEXT *)handle;
    
    for ( i = 0; i < nItems; i++) {
  903720:	60003e        	j	903762 <_buf_pool_static_create_pool+0x52>
  903723:	002a72        	excw
        buf = VBUF_alloc_vbuf();
  903726:	a699      	add.n	a9, a9, a6
  903728:	100ba0        	l32r	a0, 8c65a8 <_bss_end+0x3b8da0>
  90372b:	00d2a0        	excw
        desc = VDESC_alloc_vdesc();
  90372e:	2a72ab        	l32i	a10, a7, 0x2ac
  903731:	0ba000        	callx8	a10
#include "Magpie_api.h"

static inline void *	__adf_os_mem_alloc(adf_os_size_t size)
{
//    return (malloc(size,M_DEVBUF,M_DONTWAIT | M_ZERO));
    return A_ALLOCRAM(size);
  903734:	287252        	l32i	a8, a7, 0x148
  903737:	d6a0      	mov.n	a6, a10
  903739:	db50      	mov.n	a11, a5
  90373b:	c0a0      	movi.n	a10, 0
  90373d:	0b8000        	callx8	a8

        desc->buf_addr = (A_UINT8 *)adf_os_mem_alloc(nSize);
        desc->buf_size = nSize;
        desc->data_offset = 0;
  903740:	c080      	movi.n	a8, 0
    
    for ( i = 0; i < nItems; i++) {
        buf = VBUF_alloc_vbuf();
        desc = VDESC_alloc_vdesc();

        desc->buf_addr = (A_UINT8 *)adf_os_mem_alloc(nSize);
  903742:	9a61      	s32i.n	a10, a6, 4
        desc->buf_size = nSize;
  903744:	256504        	s16i	a5, a6, 8
        desc->data_offset = 0;
  903747:	286505        	s16i	a8, a6, 10
        desc->data_size = 0;
  90374a:	286506        	s16i	a8, a6, 12
        
        buf->buf_length = 0;        
        buf->desc_list = desc;
  90374d:	9620      	s32i.n	a6, a2, 0
        
        if ( g_poolCtx.bufQ[poolId] == NULL ) {
  90374f:	8630      	l32i.n	a6, a3, 0
        desc->buf_addr = (A_UINT8 *)adf_os_mem_alloc(nSize);
        desc->buf_size = nSize;
        desc->data_offset = 0;
        desc->data_size = 0;
        
        buf->buf_length = 0;        
  903751:	282504        	s16i	a8, a2, 8
        buf->desc_list = desc;
        
        if ( g_poolCtx.bufQ[poolId] == NULL ) {
  903754:	8910      	l32i.n	a9, a1, 0
  903756:	cc62      	bnez.n	a6, 90375c <_buf_pool_static_create_pool+0x4c>
  903758:	600002        	j	90375e <_buf_pool_static_create_pool+0x4e>
  90375b:	009621        	excw
            g_poolCtx.bufQ[poolId] = buf;
        } else {
            buf->next_buf = g_poolCtx.bufQ[poolId];
            g_poolCtx.bufQ[poolId] = buf;
  90375e:	9230      	s32i.n	a2, a3, 0
    VBUF *buf;
    VDESC *desc;
    
    //BUF_POOL_STATIC_CONTEXT *ctx = (BUF_POOL_STATIC_CONTEXT *)handle;
    
    for ( i = 0; i < nItems; i++) {
  903760:	b144      	addi.n	a4, a4, 1
  903762:	7942be        	blt	a4, a9, 903724 <_buf_pool_static_create_pool+0x14>
        } else {
            buf->next_buf = g_poolCtx.bufQ[poolId];
            g_poolCtx.bufQ[poolId] = buf;
        }
    }
}
  903765:	d10f      	retw.n
	...

00903768 <_buf_pool_static_alloc_buf>:
            
LOCAL adf_nbuf_t  _buf_pool_static_alloc_buf(pool_handle_t handle, BUF_POOL_ID poolId, int reserve)
{
  903768:	6c1004        	entry	a1, 32
    VBUF *buf;
    
    buf = g_poolCtx.bufQ[poolId];
  90376b:	1271be        	l32r	a2, 8dfe64 <_bss_end+0x3d265c>
  90376e:	02330a        	addx4	a3, a3, a2
  903771:	8230      	l32i.n	a2, a3, 0
    if ( buf != NULL ) {
  903773:	c921      	beqz.n	a2, 903788 <_buf_pool_static_alloc_buf+0x20>
        g_poolCtx.bufQ[poolId] = buf->next_buf;
  903775:	8821      	l32i.n	a8, a2, 4
  903777:	9830      	s32i.n	a8, a3, 0
        
        buf->next_buf = NULL;
        buf->desc_list->data_offset = reserve;
  903779:	8920      	l32i.n	a9, a2, 0
    
    buf = g_poolCtx.bufQ[poolId];
    if ( buf != NULL ) {
        g_poolCtx.bufQ[poolId] = buf->next_buf;
        
        buf->next_buf = NULL;
  90377b:	c080      	movi.n	a8, 0
  90377d:	9821      	s32i.n	a8, a2, 4
        buf->desc_list->data_offset = reserve;
  90377f:	249505        	s16i	a4, a9, 10
        buf->desc_list->data_size = 0;
  903782:	289506        	s16i	a8, a9, 12
        buf->buf_length = 0;
  903785:	282504        	s16i	a8, a2, 8
    }
    
    return buf;
}
  903788:	d10f      	retw.n
	...

0090378c <_buf_pool_static_alloc_buf_align>:

LOCAL adf_nbuf_t  _buf_pool_static_alloc_buf_align(pool_handle_t handle, BUF_POOL_ID poolId, int reserve, int align)
{
  90378c:	6c1004        	entry	a1, 32
    return _buf_pool_static_alloc_buf(handle, poolId, reserve);
  90378f:	da20      	mov.n	a10, a2
  903791:	db30      	mov.n	a11, a3
  903793:	dc40      	mov.n	a12, a4
  903795:	5bfff4        	call8	903768 <_buf_pool_static_alloc_buf>
}
  903798:	d2a0      	mov.n	a2, a10
  90379a:	d10f      	retw.n

0090379c <_buf_pool_static_free_buf>:
    
LOCAL void _buf_pool_static_free_buf(pool_handle_t handle, BUF_POOL_ID poolId, adf_nbuf_t buf)
{
  90379c:	6c1004        	entry	a1, 32
    if ( g_poolCtx.bufQ[poolId] == NULL ) {
  90379f:	1871be        	l32r	a8, 8dfe98 <_bss_end+0x3d2690>
  9037a2:	08330a        	addx4	a3, a3, a8
  9037a5:	8830      	l32i.n	a8, a3, 0
  9037a7:	cc81      	bnez.n	a8, 9037ac <_buf_pool_static_free_buf+0x10>
  9037a9:	600001        	j	9037ae <_buf_pool_static_free_buf+0x12>
        g_poolCtx.bufQ[poolId] = buf;
    } else {
        buf->next_buf = g_poolCtx.bufQ[poolId];
  9037ac:	9841      	s32i.n	a8, a4, 4
        g_poolCtx.bufQ[poolId] = buf;
  9037ae:	9430      	s32i.n	a4, a3, 0
  9037b0:	d10f      	retw.n
	...

009037b4 <buf_pool_module_install>:
LOCAL void _buf_pool_static_shutdown(pool_handle_t handle);      

BUF_POOL_STATIC_CONTEXT g_poolCtx;

void buf_pool_module_install(struct buf_pool_api *pAPIs)
{   
  9037b4:	6c1004        	entry	a1, 32
    pAPIs->_init = _buf_pool_static_init;
  9037b7:	1871bf        	l32r	a8, 8dfeb4 <_bss_end+0x3d26ac>
  9037ba:	9820      	s32i.n	a8, a2, 0
    pAPIs->_create_pool = _buf_pool_static_create_pool;
  9037bc:	1871c0        	l32r	a8, 8dfebc <_bss_end+0x3d26b4>
  9037bf:	9822      	s32i.n	a8, a2, 8
    pAPIs->_alloc_buf = _buf_pool_static_alloc_buf;
  9037c1:	1871c1        	l32r	a8, 8dfec8 <_bss_end+0x3d26c0>
  9037c4:	9823      	s32i.n	a8, a2, 12
    pAPIs->_alloc_buf_align = _buf_pool_static_alloc_buf_align;
  9037c6:	1871c2        	l32r	a8, 8dfed0 <_bss_end+0x3d26c8>
  9037c9:	9824      	s32i.n	a8, a2, 16
    pAPIs->_free_buf = _buf_pool_static_free_buf;
  9037cb:	1871c3        	l32r	a8, 8dfed8 <_bss_end+0x3d26d0>
  9037ce:	9825      	s32i.n	a8, a2, 20
    pAPIs->_shutdown = _buf_pool_static_shutdown;
  9037d0:	1871c4        	l32r	a8, 8dfee0 <_bss_end+0x3d26d8>
  9037d3:	9821      	s32i.n	a8, a2, 4
  9037d5:	d10f      	retw.n
	...

009037d8 <_fw_usbfifo_recv_command>:

typedef void (* USBFIFO_recv_command)(VBUF *cmd);
USBFIFO_recv_command m_origUsbfifoRecvCmd = NULL;

void _fw_usbfifo_recv_command(VBUF *buf)
{
  9037d8:	6c1004        	entry	a1, 32
	uint8_t *cmd_data;
	uint32_t tmp;

	cmd_data = (uint8_t *)(buf->desc_list->buf_addr +
  9037db:	8820      	l32i.n	a8, a2, 0

typedef void (* USBFIFO_recv_command)(VBUF *cmd);
USBFIFO_recv_command m_origUsbfifoRecvCmd = NULL;

void _fw_usbfifo_recv_command(VBUF *buf)
{
  9037dd:	da20      	mov.n	a10, a2
	uint8_t *cmd_data;
	uint32_t tmp;

	cmd_data = (uint8_t *)(buf->desc_list->buf_addr +
  9037df:	298105        	l16ui	a9, a8, 10
				buf->desc_list->data_offset);
	tmp = *((uint32_t *)cmd_data);
  9037e2:	8881      	l32i.n	a8, a8, 4
  9037e4:	a988      	add.n	a8, a8, a9
	if (tmp == 0xFFFFFFFF)
  9037e6:	8880      	l32i.n	a8, a8, 0
  9037e8:	698004        	bnei	a8, -1, 9037f0 <_fw_usbfifo_recv_command+0x18>
		_fw_usb_suspend_reboot();
  9037eb:	5803bf        	call8	9046e8 <_fw_usb_suspend_reboot>
  9037ee:	d10f      	retw.n
	else
		m_origUsbfifoRecvCmd(buf);
  9037f0:	1871c5        	l32r	a8, 8dff04 <_bss_end+0x3d26fc>
  9037f3:	8880      	l32i.n	a8, a8, 0
  9037f5:	0b8000        	callx8	a8
  9037f8:	d10f      	retw.n
	...

009037fc <_fw_usbfifo_init>:
}

void _fw_usbfifo_init(USB_FIFO_CONFIG *pConfig)
{
  9037fc:	6c1004        	entry	a1, 32
	m_origUsbfifoRecvCmd = pConfig->recv_command;
  9037ff:	8921      	l32i.n	a9, a2, 4
  903801:	1871c5        	l32r	a8, 8dff18 <_bss_end+0x3d2710>
  903804:	9980      	s32i.n	a9, a8, 0

	usbFifoConf.get_command_buf = pConfig->get_command_buf;
  903806:	1871c6        	l32r	a8, 8dff20 <_bss_end+0x3d2718>
  903809:	8920      	l32i.n	a9, a2, 0
  90380b:	9980      	s32i.n	a9, a8, 0
	usbFifoConf.recv_command    = _fw_usbfifo_recv_command;
  90380d:	1971c7        	l32r	a9, 8dff2c <_bss_end+0x3d2724>
  903810:	9981      	s32i.n	a9, a8, 4
	usbFifoConf.get_event_buf   = pConfig->get_event_buf;
  903812:	8922      	l32i.n	a9, a2, 8
	usbFifoConf.send_event_done = pConfig->send_event_done;
  903814:	8223      	l32i.n	a2, a2, 12
{
	m_origUsbfifoRecvCmd = pConfig->recv_command;

	usbFifoConf.get_command_buf = pConfig->get_command_buf;
	usbFifoConf.recv_command    = _fw_usbfifo_recv_command;
	usbFifoConf.get_event_buf   = pConfig->get_event_buf;
  903816:	9982      	s32i.n	a9, a8, 8
	usbFifoConf.send_event_done = pConfig->send_event_done;
  903818:	9283      	s32i.n	a2, a8, 12
  90381a:	d10f      	retw.n

0090381c <cold_reboot>:
}

void cold_reboot(void)
{
  90381c:	6c1004        	entry	a1, 32
	A_PRINTF("Cold reboot initiated.");
  90381f:	127184        	l32r	a2, 8dfe30 <_bss_end+0x3d2628>
  903822:	1a71c8        	l32r	a10, 8dff44 <_bss_end+0x3d273c>
  903825:	282212        	l32i	a8, a2, 72
  903828:	0b8000        	callx8	a8
	*(volatile uint16_t *) addr = b;
}

static inline void iowrite32(volatile uint32_t addr, const uint32_t b)
{
	*(volatile uint32_t *) addr = b;
  90382b:	187189        	l32r	a8, 8dfe50 <_bss_end+0x3d2648>
  90382e:	c090      	movi.n	a9, 0
#if defined(PROJECT_MAGPIE)
	iowrite32(WATCH_DOG_MAGIC_PATTERN_ADDR, 0);
#elif defined(PROJECT_K2)
	iowrite32(MAGPIE_REG_RST_STATUS_ADDR, 0);
#endif /* #if defined(PROJECT_MAGPIE) */
	A_USB_JUMP_BOOT();
  903830:	22222b        	l32i	a2, a2, 172
  903833:	0c0200        	memw
  903836:	298600        	s32i	a9, a8, 0
  903839:	0b2000        	callx8	a2
  90383c:	d10f      	retw.n
	...

00903840 <usb_status_in_patch>:

/*
 * support more than 64 bytes command on ep3
 */
void usb_status_in_patch(void)
{
  903840:	6c1004        	entry	a1, 32
	static VBUF *evntbuf = NULL;
	static volatile uint32_t *regaddr;
	static BOOLEAN cmd_is_new = TRUE;
	BOOLEAN cmd_end = FALSE;

	if (cmd_is_new) {
  903843:	1271c9        	l32r	a2, 8dff68 <_bss_end+0x3d2760>
  903846:	282100        	l16ui	a8, a2, 0
  903849:	648048        	beqz	a8, 903895 <usb_status_in_patch+0x55>
		evntbuf = usbFifoConf.get_event_buf();
  90384c:	1871c6        	l32r	a8, 8dff64 <_bss_end+0x3d275c>
  90384f:	8a82      	l32i.n	a10, a8, 8
  903851:	0ba000        	callx8	a10
  903854:	1871ca        	l32r	a8, 8dff7c <_bss_end+0x3d2774>
  903857:	9a80      	s32i.n	a10, a8, 0
		if (evntbuf != NULL) {
  903859:	c9af      	beqz.n	a10, 90387c <usb_status_in_patch+0x3c>
			regaddr = (uint32_t *)VBUF_GET_DATA_ADDR(evntbuf);
  90385b:	88a0      	l32i.n	a8, a10, 0
  90385d:	298105        	l16ui	a9, a8, 10
  903860:	8881      	l32i.n	a8, a8, 4
  903862:	a989      	add.n	a9, a8, a9
  903864:	1871cb        	l32r	a8, 8dff90 <_bss_end+0x3d2788>
  903867:	9980      	s32i.n	a9, a8, 0
			buf_len = evntbuf->buf_length;
  903869:	1871cc        	l32r	a8, 8dff9c <_bss_end+0x3d2794>
  90386c:	29a104        	l16ui	a9, a10, 8
  90386f:	298500        	s16i	a9, a8, 0
		} else {
			mUSB_STATUS_IN_INT_DISABLE();
			return;
		}

		cmd_is_new = FALSE;
  903872:	c080      	movi.n	a8, 0
  903874:	282500        	s16i	a8, a2, 0
  903877:	60001a        	j	903895 <usb_status_in_patch+0x55>
  90387a:	000012        	srai	a0, a0, 0

#include <adf_os_io_pvt.h>

static inline uint8_t ioread8(const volatile uint32_t addr)
{
	return *(const volatile uint8_t *) addr;
  90387d:	71cd29        	bbs	a12, a1, 9038aa <usb_status_in_patch+0x6a>
		evntbuf = usbFifoConf.get_event_buf();
		if (evntbuf != NULL) {
			regaddr = (uint32_t *)VBUF_GET_DATA_ADDR(evntbuf);
			buf_len = evntbuf->buf_length;
		} else {
			mUSB_STATUS_IN_INT_DISABLE();
  903880:	0ac028        	mull	a0, a12, a10
  903883:	200008        	l8ui	a0, a0, 8
  903886:	084709        	addx2	a7, a4, a8
  903889:	8802      	l32i.n	a8, a0, 8
	return *(const volatile uint32_t *) addr;
}

static inline void iowrite8(volatile uint32_t addr, const uint8_t b)
{
	*(volatile uint8_t *) addr = b;
  90388b:	0c0200        	memw
  90388e:	282400        	s8i	a8, a2, 0
  903891:	d10f      	retw.n
  903893:	00001a        	sll	a0, a0
		}

		cmd_is_new = FALSE;
	}

	if (buf_len > USB_EP3_MAX_PKT_SIZE) {
  903896:	71ccc4        	bnall	a12, a1, 90385e <usb_status_in_patch+0x1e>
  903899:	9028      	s32i.n	a0, a2, 32
  90389b:	a100      	add.n	a0, a0, a1
	}
	/* TODO: 64 bytes...
	 * controller supposed will take care of zero-length? */
	else {
		reg_buf_len = buf_len;
		cmd_end = TRUE;
  90389d:	c021      	movi.n	a2, 1
		}

		cmd_is_new = FALSE;
	}

	if (buf_len > USB_EP3_MAX_PKT_SIZE) {
  90389f:	789b09        	bgeu	a9, a8, 9038ac <usb_status_in_patch+0x6c>
		reg_buf_len = USB_EP3_MAX_PKT_SIZE;
		buf_len -= USB_EP3_MAX_PKT_SIZE;
  9038a2:	288cc0        	addi	a8, a8, -64
  9038a5:	28a500        	s16i	a8, a10, 0
	uint16_t reg_buf_len;
	static uint16_t buf_len;
	static VBUF *evntbuf = NULL;
	static volatile uint32_t *regaddr;
	static BOOLEAN cmd_is_new = TRUE;
	BOOLEAN cmd_end = FALSE;
  9038a8:	c020      	movi.n	a2, 0

		cmd_is_new = FALSE;
	}

	if (buf_len > USB_EP3_MAX_PKT_SIZE) {
		reg_buf_len = USB_EP3_MAX_PKT_SIZE;
  9038aa:	d890      	mov.n	a8, a9
  9038ac:	1971cb        	l32r	a9, 8dffd8 <_bss_end+0x3d27d0>
		reg_buf_len = buf_len;
		cmd_end = TRUE;
	}

	/* INT use EP3 */
	for (count = 0; count < (reg_buf_len / 4); count++)
  9038af:	082c14        	srli	a12, a8, 2
  9038b2:	8b90      	l32i.n	a11, a9, 0
  9038b4:	1e71ce        	l32r	a14, 8dffec <_bss_end+0x3d27e4>
  9038b7:	dab0      	mov.n	a10, a11
  9038b9:	c090      	movi.n	a9, 0
  9038bb:	600010        	j	9038cf <usb_status_in_patch+0x8f>
  9038be:	00000c        	sub	a0, a0, a0
	{
		iowrite32_usb(ZM_EP3_DATA_OFFSET, *regaddr);
  9038c1:	02008d        	excw
  9038c4:	d0b1      	excw
		reg_buf_len = buf_len;
		cmd_end = TRUE;
	}

	/* INT use EP3 */
	for (count = 0; count < (reg_buf_len / 4); count++)
  9038c6:	990c      	s32i.n	a9, a0, 48
	*(volatile uint16_t *) addr = b;
}

static inline void iowrite32(volatile uint32_t addr, const uint32_t b)
{
	*(volatile uint32_t *) addr = b;
  9038c8:	02009d        	excw
  9038cb:	e0          	.byte 0xe0
  9038cc:	09094f        	extui	a9, a9, 0, 16
  9038cf:	dda0      	mov.n	a13, a10
  9038d1:	b4aa      	addi.n	a10, a10, 4
  9038d3:	7c99e9        	bne	a9, a12, 9038c0 <usb_status_in_patch+0x80>
  9038d6:	1a71cb        	l32r	a10, 8e0004 <_bss_end+0x3d27fc>
  9038d9:	0b990a        	addx4	a9, a9, a11
  9038dc:	99a0      	s32i.n	a9, a10, 0
	{
		iowrite32_usb(ZM_EP3_DATA_OFFSET, *regaddr);
		regaddr++;
	}

	remainder = reg_buf_len % 4;
  9038de:	080841        	extui	a8, a8, 0, 2

	if (remainder) {
  9038e1:	cb84      	beqz.n	a8, 903919 <usb_status_in_patch+0xd9>
  9038e3:	1971ac        	l32r	a9, 8dff94 <_bss_end+0x3d278c>
		switch(remainder) {
  9038e6:	688207        	beqi	a8, 2, 9038f1 <usb_status_in_patch+0xb1>
  9038e9:	698309        	bnei	a8, 3, 9038f6 <usb_status_in_patch+0xb6>
  9038ec:	c087      	movi.n	a8, 7
  9038ee:	600006        	j	9038f8 <usb_status_in_patch+0xb8>
  9038f1:	c083      	movi.n	a8, 3
  9038f3:	600001        	j	9038f8 <usb_status_in_patch+0xb8>
  9038f6:	c081      	movi.n	a8, 1
  9038f8:	0c0200        	memw
  9038fb:	9890      	s32i.n	a8, a9, 0
		case 1:
			iowrite32_usb(ZM_CBUS_FIFO_SIZE_OFFSET, 0x1);
			break;
		}

		iowrite32_usb(ZM_EP3_DATA_OFFSET, *regaddr);
  9038fd:	1871cb        	l32r	a8, 8e002c <_bss_end+0x3d2824>
  903900:	8880      	l32i.n	a8, a8, 0
  903902:	0c0200        	memw
  903905:	8980      	l32i.n	a9, a8, 0
  903907:	1871ce        	l32r	a8, 8e0040 <_bss_end+0x3d2838>
  90390a:	0c0200        	memw
  90390d:	9980      	s32i.n	a9, a8, 0
  90390f:	1871ac        	l32r	a8, 8dffc0 <_bss_end+0x3d27b8>
  903912:	c09f      	movi.n	a9, 15
  903914:	0c0200        	memw
  903917:	9980      	s32i.n	a9, a8, 0

#include <adf_os_io_pvt.h>

static inline uint8_t ioread8(const volatile uint32_t addr)
{
	return *(const volatile uint8_t *) addr;
  903919:	1871cf        	l32r	a8, 8e0058 <_bss_end+0x3d2850>

		/* Restore CBus FIFO size to word size */
		iowrite32_usb(ZM_CBUS_FIFO_SIZE_OFFSET, 0xF);
	}

	mUSB_EP3_XFER_DONE();
  90391c:	c0a8      	movi.n	a10, 8
  90391e:	298000        	l8ui	a9, a8, 0
  903921:	090947        	extui	a9, a9, 0, 8
  903924:	0a9902        	or	a9, a9, a10
	return *(const volatile uint32_t *) addr;
}

static inline void iowrite8(volatile uint32_t addr, const uint8_t b)
{
	*(volatile uint8_t *) addr = b;
  903927:	0c0200        	memw
  90392a:	298400        	s8i	a9, a8, 0

	if (evntbuf != NULL && cmd_end) {
  90392d:	1871ca        	l32r	a8, 8e0058 <_bss_end+0x3d2850>
  903930:	8a80      	l32i.n	a10, a8, 0
  903932:	c9a2      	beqz.n	a10, 903948 <usb_status_in_patch+0x108>
  903934:	642010        	beqz	a2, 903948 <usb_status_in_patch+0x108>
		usbFifoConf.send_event_done(evntbuf);
  903937:	1271c6        	l32r	a2, 8e0050 <_bss_end+0x3d2848>
  90393a:	222203        	l32i	a2, a2, 12
  90393d:	0b2000        	callx8	a2
		cmd_is_new = TRUE;
  903940:	1271c9        	l32r	a2, 8e0064 <_bss_end+0x3d285c>
  903943:	c081      	movi.n	a8, 1
  903945:	282500        	s16i	a8, a2, 0
  903948:	d10f      	retw.n
	...

0090394c <usb_reg_out_patch>:

/*
 * support more than 64 bytes command on ep4 
 */
void usb_reg_out_patch(void)
{
  90394c:	6c1004        	entry	a1, 32

#include <adf_os_io_pvt.h>

static inline uint8_t ioread8(const volatile uint32_t addr)
{
	return *(const volatile uint8_t *) addr;
  90394f:	1271d0        	l32r	a2, 8e0090 <_bss_end+0x3d2888>
	static BOOLEAN cmd_is_new = TRUE;

	/* get the size of this transcation */
	usbfifolen = ioread8_usb(ZM_EP4_BYTE_COUNT_LOW_OFFSET);

	if (usbfifolen > USB_EP4_MAX_PKT_SIZE) {
  903952:	230a40        	movi	a3, 64
  903955:	222000        	l8ui	a2, a2, 0
  903958:	020247        	extui	a2, a2, 0, 8
  90395b:	723b11        	bgeu	a3, a2, 903970 <usb_reg_out_patch+0x24>
		A_PRINTF("EP4 FIFO Bug? Buffer is too big: %x\n", usbfifolen);
  90395e:	137184        	l32r	a3, 8dff70 <_bss_end+0x3d2768>
  903961:	1a71d1        	l32r	a10, 8e00a8 <_bss_end+0x3d28a0>
  903964:	233212        	l32i	a3, a3, 72
  903967:	022b02        	or	a11, a2, a2
  90396a:	0b3000        	callx8	a3
		cold_reboot();
  90396d:	5bffab        	call8	90381c <cold_reboot>
	}

	/* check is command is new */
	if(cmd_is_new) {
  903970:	1371d2        	l32r	a3, 8e00b8 <_bss_end+0x3d28b0>
  903973:	243100        	l16ui	a4, a3, 0
  903976:	cb4a      	beqz.n	a4, 9039b4 <usb_reg_out_patch+0x68>

		buf = usbFifoConf.get_command_buf();
  903978:	1471c6        	l32r	a4, 8e0090 <_bss_end+0x3d2888>
  90397b:	8a40      	l32i.n	a10, a4, 0
  90397d:	0ba000        	callx8	a10
  903980:	1471d3        	l32r	a4, 8e00cc <_bss_end+0x3d28c4>
		cmd_len = 0;
  903983:	c080      	movi.n	a8, 0
	}

	/* check is command is new */
	if(cmd_is_new) {

		buf = usbFifoConf.get_command_buf();
  903985:	9a40      	s32i.n	a10, a4, 0
		cmd_len = 0;
  903987:	1471d4        	l32r	a4, 8e00d8 <_bss_end+0x3d28d0>
  90398a:	284500        	s16i	a8, a4, 0

		if(!buf) {
  90398d:	cda5      	bnez.n	a10, 9039a6 <usb_reg_out_patch+0x5a>
			A_PRINTF("%s: Filed to get new buffer.\n", __func__);
  90398f:	137184        	l32r	a3, 8dffa0 <_bss_end+0x3d2798>
  903992:	1a71d5        	l32r	a10, 8e00e8 <_bss_end+0x3d28e0>
  903995:	233212        	l32i	a3, a3, 72
  903998:	1b71d6        	l32r	a11, 8e00f0 <_bss_end+0x3d28e8>
  90399b:	0b3000        	callx8	a3
		usbfifolen = (usbfifolen >> 2) + 1;
	else
		usbfifolen = usbfifolen >> 2;

	/* retrieve the data from fifo */
	for(ii = 0; ii < usbfifolen; ii++) {
  90399e:	c080      	movi.n	a8, 0
	return *(const volatile uint16_t *) addr;
}

static inline uint32_t ioread32(const volatile uint32_t addr)
{
	return *(const volatile uint32_t *) addr;
  9039a0:	1371d9        	l32r	a3, 8e0104 <_bss_end+0x3d28fc>
  9039a3:	6000a7        	j	903a4e <usb_reg_out_patch+0x102>
			A_PRINTF("%s: Filed to get new buffer.\n", __func__);
			goto err;
		}

		/* copy free, assignment buffer of the address */
		regaddr = (uint32_t *)buf->desc_list->buf_addr;
  9039a6:	84a0      	l32i.n	a4, a10, 0

		cmd_is_new = FALSE;
  9039a8:	283500        	s16i	a8, a3, 0
			A_PRINTF("%s: Filed to get new buffer.\n", __func__);
			goto err;
		}

		/* copy free, assignment buffer of the address */
		regaddr = (uint32_t *)buf->desc_list->buf_addr;
  9039ab:	294201        	l32i	a9, a4, 4
  9039ae:	1471d7        	l32r	a4, 8e010c <_bss_end+0x3d2904>
  9039b1:	294600        	s32i	a9, a4, 0

		cmd_is_new = FALSE;
	}

	/* just in case, suppose should not happen */
	if(!buf)
  9039b4:	1371d3        	l32r	a3, 8e0100 <_bss_end+0x3d28f8>
  9039b7:	8a30      	l32i.n	a10, a3, 0
  9039b9:	64afe1        	beqz	a10, 90399e <usb_reg_out_patch+0x52>
	 */
	if(usbfifolen < USB_EP4_MAX_PKT_SIZE)
		cmd_is_last = TRUE;

	/* accumulate the size */
	cmd_len += usbfifolen;
  9039bc:	1371d4        	l32r	a3, 8e010c <_bss_end+0x3d2904>

	if (cmd_len > buf->desc_list->buf_size) {
  9039bf:	88a0      	l32i.n	a8, a10, 0
	 */
	if(usbfifolen < USB_EP4_MAX_PKT_SIZE)
		cmd_is_last = TRUE;

	/* accumulate the size */
	cmd_len += usbfifolen;
  9039c1:	293100        	l16ui	a9, a3, 0
  9039c4:	a929      	add.n	a9, a2, a9
  9039c6:	09094f        	extui	a9, a9, 0, 16
  9039c9:	293500        	s16i	a9, a3, 0

	if (cmd_len > buf->desc_list->buf_size) {
  9039cc:	238104        	l16ui	a3, a8, 8
  9039cf:	793b0b        	bgeu	a3, a9, 9039de <usb_reg_out_patch+0x92>
		A_PRINTF("%s: Data length on EP4 FIFO is bigger as "
  9039d2:	137184        	l32r	a3, 8dffe4 <_bss_end+0x3d27dc>
  9039d5:	1a71d8        	l32r	a10, 8e0138 <_bss_end+0x3d2930>
  9039d8:	233212        	l32i	a3, a3, 72
  9039db:	63ffb9        	j	903998 <usb_reg_out_patch+0x4c>
		goto err;
	}

	/* round it to alignment */
	if(usbfifolen % 4)
		usbfifolen = (usbfifolen >> 2) + 1;
  9039de:	c031      	movi.n	a3, 1
			 "allocated buffer data! Drop it!\n", __func__);
		goto err;
	}

	/* round it to alignment */
	if(usbfifolen % 4)
  9039e0:	020441        	extui	a4, a2, 0, 2
		usbfifolen = (usbfifolen >> 2) + 1;
  9039e3:	c0b0      	movi.n	a11, 0
  9039e5:	043b39        	movnez	a11, a3, a4
  9039e8:	1371d7        	l32r	a3, 8e0144 <_bss_end+0x3d293c>
	else
		usbfifolen = usbfifolen >> 2;
  9039eb:	022c14        	srli	a12, a2, 2
  9039ee:	8330      	l32i.n	a3, a3, 0
		goto err;
	}

	/* round it to alignment */
	if(usbfifolen % 4)
		usbfifolen = (usbfifolen >> 2) + 1;
  9039f0:	abcc      	add.n	a12, a12, a11
  9039f2:	dd30      	mov.n	a13, a3
	else
		usbfifolen = usbfifolen >> 2;

	/* retrieve the data from fifo */
	for(ii = 0; ii < usbfifolen; ii++) {
  9039f4:	c0b0      	movi.n	a11, 0
  9039f6:	1f71d9        	l32r	a15, 8e015c <_bss_end+0x3d2954>
  9039f9:	60000f        	j	903a0c <usb_reg_out_patch+0xc0>
  9039fc:	000c02        	or	a12, a0, a0
  9039ff:	0084f0        	excw
  903a02:	b1bb      	addi.n	a11, a11, 1
		/* read fifo data out */
		ep4_data = ioread32_usb(ZM_EP4_DATA_OFFSET);
		*regaddr = ep4_data;
  903a04:	0c0200        	memw
  903a07:	94e0      	s32i.n	a4, a14, 0
		usbfifolen = (usbfifolen >> 2) + 1;
	else
		usbfifolen = usbfifolen >> 2;

	/* retrieve the data from fifo */
	for(ii = 0; ii < usbfifolen; ii++) {
  903a09:	0b0b4f        	extui	a11, a11, 0, 16
  903a0c:	ded0      	mov.n	a14, a13
  903a0e:	b4dd      	addi.n	a13, a13, 4
  903a10:	7cb9e9        	bne	a11, a12, 9039fd <usb_reg_out_patch+0xb1>
  903a13:	1c71d7        	l32r	a12, 8e0170 <_bss_end+0x3d2968>
  903a16:	03bb0a        	addx4	a11, a11, a3
  903a19:	9bc0      	s32i.n	a11, a12, 0
		*regaddr = ep4_data;
		regaddr++;
	}

	/* if this is the last command, callback to HTC */
	if (cmd_is_last) {
  903a1b:	c33f      	movi.n	a3, 63
  903a1d:	723330        	bltu	a3, a2, 903a51 <usb_reg_out_patch+0x105>
		buf->desc_list->next_desc = NULL;
  903a20:	c020      	movi.n	a2, 0
  903a22:	9280      	s32i.n	a2, a8, 0
		buf->desc_list->data_offset = 0;
  903a24:	228505        	s16i	a2, a8, 10
		buf->desc_list->data_size = cmd_len;
		buf->desc_list->control = 0;
  903a27:	228507        	s16i	a2, a8, 14

	/* if this is the last command, callback to HTC */
	if (cmd_is_last) {
		buf->desc_list->next_desc = NULL;
		buf->desc_list->data_offset = 0;
		buf->desc_list->data_size = cmd_len;
  903a2a:	298506        	s16i	a9, a8, 12
		buf->desc_list->control = 0;
		buf->next_buf = NULL;
  903a2d:	92a1      	s32i.n	a2, a10, 4
		buf->buf_length = cmd_len;

		usbFifoConf.recv_command(buf);
  903a2f:	1271c6        	l32r	a2, 8e0148 <_bss_end+0x3d2940>
		buf->desc_list->next_desc = NULL;
		buf->desc_list->data_offset = 0;
		buf->desc_list->data_size = cmd_len;
		buf->desc_list->control = 0;
		buf->next_buf = NULL;
		buf->buf_length = cmd_len;
  903a32:	29a504        	s16i	a9, a10, 8

		usbFifoConf.recv_command(buf);
  903a35:	8221      	l32i.n	a2, a2, 4

		cmd_is_new = TRUE;
  903a37:	c031      	movi.n	a3, 1
		buf->desc_list->data_size = cmd_len;
		buf->desc_list->control = 0;
		buf->next_buf = NULL;
		buf->buf_length = cmd_len;

		usbFifoConf.recv_command(buf);
  903a39:	0b2000        	callx8	a2

		cmd_is_new = TRUE;
  903a3c:	1271d2        	l32r	a2, 8e0184 <_bss_end+0x3d297c>
  903a3f:	232500        	s16i	a3, a2, 0
  903a42:	d10f      	retw.n
	goto done;
err:
	/* we might get no command buffer here?
	 * but if we return here, the ep4 fifo will be lock out,
	 * so that we still read them out but just drop it? */
	for(ii = 0; ii < usbfifolen; ii++)
  903a44:	b188      	addi.n	a8, a8, 1
  903a46:	0c0200        	memw
  903a49:	8430      	l32i.n	a4, a3, 0
  903a4b:	08084f        	extui	a8, a8, 0, 16
  903a4e:	7283f2        	bltu	a8, a2, 903a44 <usb_reg_out_patch+0xf8>
  903a51:	d10f      	retw.n
	...

00903a54 <vUSBFIFO_EP6Cfg_FS_patch>:
#define FS_C1_I0_A0_EP6_MAP		\
	 (FS_C1_I0_A0_EP6_FIFO_START | (FS_C1_I0_A0_EP6_FIFO_START << 4) | \
	  (MASK_F0 >> (4*FS_C1_I0_A0_EP6_DIRECTION)))

void vUSBFIFO_EP6Cfg_FS_patch(void)
{
  903a54:	6c1004        	entry	a1, 32
#if (FS_C1_I0_A0_EP_NUMBER >= 6)
	int i;

	/* EP0X06 */
	mUsbEPMap(EP6, FS_C1_I0_A0_EP6_MAP);
  903a57:	2b0a6f        	movi	a11, 111
  903a5a:	2a0a06        	movi	a10, 6
  903a5d:	5b8082        	call8	8e3c68 <mUsbEPMap>
	mUsbFIFOMap(FS_C1_I0_A0_EP6_FIFO_START, FS_C1_I0_A0_EP6_FIFO_MAP);
  903a60:	2a0a06        	movi	a10, 6
  903a63:	0aab02        	or	a11, a10, a10
  903a66:	5b8087        	call8	8e3c84 <mUsbFIFOMap>
	mUsbFIFOConfig(FS_C1_I0_A0_EP6_FIFO_START, FS_C1_I0_A0_EP6_FIFO_CONFIG);
  903a69:	2b0a86        	movi	a11, 134
  903a6c:	c0a6      	movi.n	a10, 6
  903a6e:	5b808d        	call8	8e3ca4 <mUsbFIFOConfig>

	for(i = FS_C1_I0_A0_EP6_FIFO_START + 1 ;
            i < FS_C1_I0_A0_EP6_FIFO_START + FS_C1_I0_A0_EP6_FIFO_NO ; i ++)
	{
		mUsbFIFOConfig(i, (FS_C1_I0_A0_EP6_FIFO_CONFIG & (~BIT7)) );
  903a71:	c0b6      	movi.n	a11, 6
  903a73:	c0a7      	movi.n	a10, 7
  903a75:	5b808b        	call8	8e3ca4 <mUsbFIFOConfig>
	}

	mUsbEPMxPtSzHigh(EP6, FS_C1_I0_A0_EP6_DIRECTION,
  903a78:	c0b1      	movi.n	a11, 1
  903a7a:	c4c0      	movi.n	a12, 64
  903a7c:	c0a6      	movi.n	a10, 6
  903a7e:	5b8091        	call8	8e3cc4 <mUsbEPMxPtSzHigh>
			 (FS_C1_I0_A0_EP6_MAX_PACKET & 0x7ff));
	mUsbEPMxPtSzLow(EP6, FS_C1_I0_A0_EP6_DIRECTION,
  903a81:	c0b1      	movi.n	a11, 1
  903a83:	c4c0      	movi.n	a12, 64
  903a85:	c0a6      	movi.n	a10, 6
  903a87:	5b8099        	call8	8e3cec <mUsbEPMxPtSzLow>
			(FS_C1_I0_A0_EP6_MAX_PACKET & 0x7ff));
	mUsbEPinHighBandSet(EP6, FS_C1_I0_A0_EP6_DIRECTION,
  903a8a:	c0b1      	movi.n	a11, 1
  903a8c:	c4c0      	movi.n	a12, 64
  903a8e:	2a0a06        	movi	a10, 6
  903a91:	5b809f        	call8	8e3d10 <mUsbEPinHighBandSet>
  903a94:	d10f      	retw.n
	...

00903a98 <vUsbFIFO_EPxCfg_FS_patch>:
			    FS_C1_I0_A0_EP6_MAX_PACKET);
#endif
}

void vUsbFIFO_EPxCfg_FS_patch(void)
{
  903a98:	6c1004        	entry	a1, 32
	switch (u8UsbConfigValue)
  903a9b:	187187        	l32r	a8, 8e00b8 <_bss_end+0x3d28b0>
  903a9e:	288100        	l16ui	a8, a8, 0
  903aa1:	698113        	bnei	a8, 1, 903ab8 <vUsbFIFO_EPxCfg_FS_patch+0x20>
	{
#if (FS_CONFIGURATION_NUMBER >= 1)
		/* Configuration 0X01 */
        case 0X01:
		switch (u8UsbInterfaceValue)
  903aa4:	187186        	l32r	a8, 8e00bc <_bss_end+0x3d28b4>
  903aa7:	288100        	l16ui	a8, a8, 0
  903aaa:	cc8a      	bnez.n	a8, 903ab8 <vUsbFIFO_EPxCfg_FS_patch+0x20>
		{
#if (FS_C1_INTERFACE_NUMBER >= 1)
			/* Interface 0 */
                case 0:
			switch (u8UsbInterfaceAlternateSetting)
  903aac:	187188        	l32r	a8, 8e00cc <_bss_end+0x3d28c4>
  903aaf:	288100        	l16ui	a8, a8, 0
  903ab2:	658002        	bnez	a8, 903ab8 <vUsbFIFO_EPxCfg_FS_patch+0x20>
                        case 0:

				/* snapped.... */

				/* patch up this ep6_fs config */
				vUSBFIFO_EP6Cfg_FS_patch();
  903ab5:	5bffe7        	call8	903a54 <vUSBFIFO_EP6Cfg_FS_patch>
  903ab8:	d10f      	retw.n
	...

00903abc <bSet_configuration_patch>:
	}
	/* mCHECK_STACK(); */
}

BOOLEAN bSet_configuration_patch(void)
{
  903abc:	6c1004        	entry	a1, 32
	/* do some defaul configuration */
	bSet_configuration();
  903abf:	5b7d2f        	call8	8e2f7c <bSet_configuration>

	/* overwrite defaul FIFO configuration for FullSpeed USB */
	if ((mLOW_BYTE(mDEV_REQ_VALUE()) != 0) && !mUsbHighSpeedST())
  903ac2:	1271da        	l32r	a2, 8e022c <_bss_end+0x3d2a24>
  903ac5:	222007        	l8ui	a2, a2, 7
  903ac8:	c82a      	beqz.n	a2, 903ad6 <bSet_configuration_patch+0x1a>

#include <adf_os_io_pvt.h>

static inline uint8_t ioread8(const volatile uint32_t addr)
{
	return *(const volatile uint8_t *) addr;
  903aca:	1271a6        	l32r	a2, 8e0164 <_bss_end+0x3d295c>
  903acd:	222000        	l8ui	a2, a2, 0
  903ad0:	792f02        	bbsi	a2, 25, 903ad6 <bSet_configuration_patch+0x1a>
			vUsbFIFO_EPxCfg_FS_patch();
  903ad3:	5bfff1        	call8	903a98 <vUsbFIFO_EPxCfg_FS_patch>

	eUsbCxFinishAction = ACT_DONE;
  903ad6:	1871db        	l32r	a8, 8e0244 <_bss_end+0x3d2a3c>
  903ad9:	c021      	movi.n	a2, 1
  903adb:	9280      	s32i.n	a2, a8, 0
	return TRUE;
}
  903add:	d10f      	retw.n
	...

00903ae0 <bStandardCommand_patch>:

extern BOOLEAN bStandardCommand(void);

BOOLEAN bStandardCommand_patch(void)
{
  903ae0:	6c1004        	entry	a1, 32
	if (mDEV_REQ_REQ() == USB_SET_CONFIGURATION) {
  903ae3:	1871da        	l32r	a8, 8e024c <_bss_end+0x3d2a44>
  903ae6:	298102        	l16ui	a9, a8, 4
  903ae9:	280a09        	movi	a8, 9
  903aec:	78992d        	bne	a9, a8, 903b1d <bStandardCommand_patch+0x3d>
		A_USB_SET_CONFIG();
  903aef:	187184        	l32r	a8, 8e0100 <_bss_end+0x3d28f8>
  903af2:	2a8225        	l32i	a10, a8, 148
  903af5:	0ba000        	callx8	a10

#if ENABLE_SWAP_DATA_MODE
		/* SWAP FUNCTION should be enabled while DMA engine
		 * is not working, the best place to enable it
		 * is before we trigger the DMA */
		MAGPIE_REG_USB_RX0_SWAP_DATA = 0x1;
  903af8:	1871dc        	l32r	a8, 8e0268 <_bss_end+0x3d2a60>
  903afb:	c0a1      	movi.n	a10, 1
  903afd:	0c0200        	memw
  903b00:	9a80      	s32i.n	a10, a8, 0
		MAGPIE_REG_USB_TX0_SWAP_DATA = 0x1;
  903b02:	1871dd        	l32r	a8, 8e0278 <_bss_end+0x3d2a70>
  903b05:	0c0200        	memw
  903b08:	9a80      	s32i.n	a10, a8, 0

#if SYSTEM_MODULE_HP_EP5
		MAGPIE_REG_USB_RX1_SWAP_DATA = 0x1;
  903b0a:	1871de        	l32r	a8, 8e0284 <_bss_end+0x3d2a7c>
  903b0d:	0c0200        	memw
  903b10:	9a80      	s32i.n	a10, a8, 0
#endif

#if SYSTEM_MODULE_HP_EP6
		MAGPIE_REG_USB_RX2_SWAP_DATA = 0x1;
  903b12:	1871df        	l32r	a8, 8e0290 <_bss_end+0x3d2a88>
  903b15:	0c0200        	memw
  903b18:	9a80      	s32i.n	a10, a8, 0
#endif

#endif /* ENABLE_SWAP_DATA_MODE */
		return TRUE;
  903b1a:	600002        	j	903b20 <bStandardCommand_patch+0x40>
	} else
		return bStandardCommand();
  903b1d:	5b7ddb        	call8	8e328c <bStandardCommand>
}
  903b20:	d2a0      	mov.n	a2, a10
  903b22:	d10f      	retw.n

00903b24 <bGet_descriptor_patch>:
#define EP3_INT_INTERVAL		19
#define EP4_TRANSFER_TYPE_OFFSET	21
#define EP4_INT_INTERVAL		22

BOOLEAN bGet_descriptor_patch(void)
{
  903b24:	6c1004        	entry	a1, 32
	if (mDEV_REQ_VALUE_HIGH() == 1)
  903b27:	1371da        	l32r	a3, 8e0290 <_bss_end+0x3d2a88>
  903b2a:	223103        	l16ui	a2, a3, 6
  903b2d:	028214        	srli	a2, a2, 8
  903b30:	692120        	bnei	a2, 1, 903b54 <bGet_descriptor_patch+0x30>
	{
		uint8_t *p = (uint8_t *)u8UsbDeviceDescriptor;

		/* Copy Usb Device Descriptor */
		ath_hal_memcpy(UsbDeviceDescriptorPatch, p,
  903b33:	1471e1        	l32r	a4, 8e02b8 <_bss_end+0x3d2ab0>
  903b36:	1271e0        	l32r	a2, 8e02b8 <_bss_end+0x3d2ab0>
  903b39:	8b40      	l32i.n	a11, a4, 0
  903b3b:	da20      	mov.n	a10, a2
  903b3d:	c1c2      	movi.n	a12, 18
  903b3f:	580034        	call8	903c10 <ath_hal_memcpy>
				sizeof(UsbDeviceDescriptorPatch));

		/* Change bcdDevice. we need it to detect if FW
		 * was uploaded. */
		UsbDeviceDescriptorPatch[BCD_DEVICE_OFFSET] =
  903b42:	c78f      	movi.n	a8, -1
  903b44:	282506        	s16i	a8, a2, 12
			BCD_DEVICE_FW_SIGNATURE;

		pu8DescriptorEX = UsbDeviceDescriptorPatch;
  903b47:	1871e2        	l32r	a8, 8e02d0 <_bss_end+0x3d2ac8>
  903b4a:	9280      	s32i.n	a2, a8, 0
		u16TxRxCounter = mTABLE_LEN(u8UsbDeviceDescriptor[0]);
  903b4c:	8240      	l32i.n	a2, a4, 0
  903b4e:	242001        	l8ui	a4, a2, 1
  903b51:	600024        	j	903b79 <bGet_descriptor_patch+0x55>
			u16TxRxCounter = mDEV_REQ_LENGTH();

		A_USB_EP0_TX_DATA();

		return TRUE;
	} else if (mDEV_REQ_VALUE_HIGH() == 2) {
  903b54:	69223d        	bnei	a2, 2, 903b95 <bGet_descriptor_patch+0x71>
		uint8_t *p = (uint8_t *)u8ConfigDescriptorEX;

		/* Copy ConfigDescriptor */
		ath_hal_memcpy(ConfigDescriptorPatch, p,
  903b57:	1271e5        	l32r	a2, 8e02ec <_bss_end+0x3d2ae4>
  903b5a:	1471e4        	l32r	a4, 8e02ec <_bss_end+0x3d2ae4>
  903b5d:	2b2200        	l32i	a11, a2, 0
  903b60:	044a02        	or	a10, a4, a4
  903b63:	2c0a3c        	movi	a12, 60
  903b66:	58002a        	call8	903c10 <ath_hal_memcpy>
				sizeof(ConfigDescriptorPatch));

		 /* place holder for EPx patches */

		if (mDEV_REQ_VALUE_LOW() == 0) {
  903b69:	283007        	l8ui	a8, a3, 7
			/* configuration no: 0 */
			pu8DescriptorEX = ConfigDescriptorPatch;
			u16TxRxCounter = ConfigDescriptorPatch[1];
		} else
			return FALSE;
  903b6c:	c020      	movi.n	a2, 0
		ath_hal_memcpy(ConfigDescriptorPatch, p,
				sizeof(ConfigDescriptorPatch));

		 /* place holder for EPx patches */

		if (mDEV_REQ_VALUE_LOW() == 0) {
  903b6e:	728928        	bne	a8, a2, 903b9a <bGet_descriptor_patch+0x76>
			/* configuration no: 0 */
			pu8DescriptorEX = ConfigDescriptorPatch;
  903b71:	1271e2        	l32r	a2, 8e02fc <_bss_end+0x3d2af4>
  903b74:	9420      	s32i.n	a4, a2, 0
			u16TxRxCounter = ConfigDescriptorPatch[1];
  903b76:	244101        	l16ui	a4, a4, 2
  903b79:	1271e3        	l32r	a2, 8e0308 <_bss_end+0x3d2b00>
		} else
			return FALSE;

		if (u16TxRxCounter > mDEV_REQ_LENGTH())
  903b7c:	233105        	l16ui	a3, a3, 10
		 /* place holder for EPx patches */

		if (mDEV_REQ_VALUE_LOW() == 0) {
			/* configuration no: 0 */
			pu8DescriptorEX = ConfigDescriptorPatch;
			u16TxRxCounter = ConfigDescriptorPatch[1];
  903b7f:	242500        	s16i	a4, a2, 0
		} else
			return FALSE;

		if (u16TxRxCounter > mDEV_REQ_LENGTH())
  903b82:	743b02        	bgeu	a3, a4, 903b88 <bGet_descriptor_patch+0x64>
			u16TxRxCounter = mDEV_REQ_LENGTH();
  903b85:	232500        	s16i	a3, a2, 0

		A_USB_EP0_TX_DATA();
  903b88:	127184        	l32r	a2, 8e0198 <_bss_end+0x3d2990>
  903b8b:	222234        	l32i	a2, a2, 208
  903b8e:	0b2000        	callx8	a2
		return TRUE;
  903b91:	c021      	movi.n	a2, 1
  903b93:	d10f      	retw.n
	} else
		return bGet_descriptor();
  903b95:	5b7ccb        	call8	8e2ec4 <bGet_descriptor>
  903b98:	d2a0      	mov.n	a2, a10
}
  903b9a:	d10f      	retw.n

00903b9c <ath_hal_getuptime>:
#include<ah_internal.h>
#include "ah_osdep.h"

a_uint32_t __ahdecl
ath_hal_getuptime(struct ath_hal *ah)
{
  903b9c:	6c1004        	entry	a1, 32
	return MSEC_TO_TICK(msecs);
}
static inline unsigned long
__adf_os_getuptime(void)
{
    return MSEC_TO_TICK(A_MILLISECONDS());;      
  903b9f:	187184        	l32r	a8, 8e01b0 <_bss_end+0x3d29a8>
  903ba2:	2a823d        	l32i	a10, a8, 244
  903ba5:	0ba000        	callx8	a10
	return adf_os_getuptime();
}
  903ba8:	d2a0      	mov.n	a2, a10
  903baa:	d10f      	retw.n

00903bac <_ath_hal_attach_tgt>:

struct ath_hal *
_ath_hal_attach_tgt(a_uint32_t devid, HAL_SOFTC sc,
		    adf_os_device_t dev, a_uint32_t flags, void* s)
{
  903bac:	6c1006        	entry	a1, 48
	HAL_STATUS status;
	struct ath_hal *ah = ath_hal_attach_tgt(devid, sc, dev, flags, &status);
  903baf:	db30      	mov.n	a11, a3
  903bb1:	dc40      	mov.n	a12, a4
  903bb3:	dd50      	mov.n	a13, a5
  903bb5:	de10      	mov.n	a14, a1
  903bb7:	da20      	mov.n	a10, a2
  903bb9:	5804dd        	call8	904f30 <ath_hal_attach_tgt>
	adf_os_print(" ath_hal = %p \n",ah);
  903bbc:	187184        	l32r	a8, 8e01cc <_bss_end+0x3d29c4>
struct ath_hal *
_ath_hal_attach_tgt(a_uint32_t devid, HAL_SOFTC sc,
		    adf_os_device_t dev, a_uint32_t flags, void* s)
{
	HAL_STATUS status;
	struct ath_hal *ah = ath_hal_attach_tgt(devid, sc, dev, flags, &status);
  903bbf:	d2a0      	mov.n	a2, a10
	adf_os_print(" ath_hal = %p \n",ah);
  903bc1:	288212        	l32i	a8, a8, 72
  903bc4:	1a71e6        	l32r	a10, 8e035c <_bss_end+0x3d2b54>
  903bc7:	db20      	mov.n	a11, a2
  903bc9:	0b8000        	callx8	a8
	*(HAL_STATUS *)s = status;
  903bcc:	8810      	l32i.n	a8, a1, 0
  903bce:	9860      	s32i.n	a8, a6, 0
	return ah;
}
  903bd0:	d10f      	retw.n
	...

00903bd4 <ath_hal_delay>:
/*
 * Delay n microseconds.
 */
void __ahdecl
ath_hal_delay(a_int32_t n)
{
  903bd4:	6c1004        	entry	a1, 32
}

static inline void
__adf_os_udelay(int usecs)
{
    A_DELAY_USECS(usecs);
  903bd7:	187184        	l32r	a8, 8e01e8 <_bss_end+0x3d29e0>
  903bda:	da20      	mov.n	a10, a2
  903bdc:	28823a        	l32i	a8, a8, 232
  903bdf:	0b8000        	callx8	a8
  903be2:	d10f      	retw.n

00903be4 <ath_hal_malloc>:
/*
 * Allocate/free memory.
 */
void * __ahdecl
ath_hal_malloc(adf_os_size_t size)
{
  903be4:	6c1004        	entry	a1, 32
  903be7:	147184        	l32r	a4, 8e01f8 <_bss_end+0x3d29f0>
  903bea:	d320      	mov.n	a3, a2
  903bec:	224252        	l32i	a2, a4, 0x148
  903bef:	c0a0      	movi.n	a10, 0
  903bf1:	db30      	mov.n	a11, a3
  903bf3:	0b2000        	callx8	a2
  903bf6:	d2a0      	mov.n	a2, a10
	void *p;

	p = adf_os_mem_alloc(size);
	if (p)
  903bf8:	c8a8      	beqz.n	a10, 903c04 <ath_hal_malloc+0x20>
}
/* zero a memory buffer */
static inline void
__adf_os_mem_zero(void *buf, adf_os_size_t size)
{
    A_MEMZERO(buf,size);
  903bfa:	8444      	l32i.n	a4, a4, 16
  903bfc:	c0b0      	movi.n	a11, 0
  903bfe:	033c02        	or	a12, a3, a3
  903c01:	0b4000        	callx8	a4
		adf_os_mem_zero(p, size);

	return p;
}
  903c04:	d10f      	retw.n
	...

00903c08 <ath_hal_free>:

void __ahdecl
ath_hal_free(void* p)
{
  903c08:	6c1004        	entry	a1, 32
  903c0b:	d10f      	retw.n
  903c0d:	000000        	ill

00903c10 <ath_hal_memcpy>:
	adf_os_mem_free(p);
}

void * __ahdecl
ath_hal_memcpy(void *dst, const void *src, adf_os_size_t n)
{
  903c10:	6c1004        	entry	a1, 32
}

/* move a memory buffer */
static inline void 		__adf_os_mem_copy(void *dst, const void *src, adf_os_size_t size)
{
    A_MEMCPY(dst,src,size);    
  903c13:	187184        	l32r	a8, 8e0224 <_bss_end+0x3d2a1c>
  903c16:	da20      	mov.n	a10, a2
  903c18:	8885      	l32i.n	a8, a8, 20
  903c1a:	db30      	mov.n	a11, a3
  903c1c:	dc40      	mov.n	a12, a4
  903c1e:	0b8000        	callx8	a8
	adf_os_mem_copy(dst, src, n);
	return 0;
}
  903c21:	c020      	movi.n	a2, 0
  903c23:	d10f      	retw.n
  903c25:	000000        	ill

00903c28 <wlan_pci_module_init>:
adf_drv_info_t* g_wlan_drv = NULL;
adf_drv_handle_t g_wlan_drv_handle = NULL;
adf_os_drv_intr g_wlan_intr = NULL;

void wlan_pci_module_init(void)
{
  903c28:	6c1004        	entry	a1, 32
	if (g_pci_init_func != NULL) {
  903c2b:	1871e7        	l32r	a8, 8e03c8 <_bss_end+0x3d2bc0>
  903c2e:	8a80      	l32i.n	a10, a8, 0
  903c30:	c8a1      	beqz.n	a10, 903c35 <wlan_pci_module_init+0xd>
		g_pci_init_func();
  903c32:	0ba000        	callx8	a10
  903c35:	d10f      	retw.n
	...

00903c38 <wlan_pci_register_drv>:
	}
}

void wlan_pci_register_drv(adf_drv_info_t *drv)
{
  903c38:	6c1004        	entry	a1, 32
	g_wlan_drv = drv;
  903c3b:	1871e8        	l32r	a8, 8e03dc <_bss_end+0x3d2bd4>
  903c3e:	9280      	s32i.n	a2, a8, 0
  903c40:	d10f      	retw.n
	...

00903c44 <wlan_pci_probe>:

#define ATHEROS_VENDOR_ID 0x168c
#define AR5416_DEVID_PCIE 0x24 	

void wlan_pci_probe(void)
{
  903c44:	6c100a        	entry	a1, 80
	__adf_softc_t           *sc;
	adf_os_resource_t       drv_res = {0};
  903c47:	c0b0      	movi.n	a11, 0
  903c49:	2c0a18        	movi	a12, 24
  903c4c:	011a02        	or	a10, a1, a1
  903c4f:	5b8553        	call8	8e519c <memset>
	adf_os_attach_data_t    drv_data = {{0}};   
  903c52:	c0b0      	movi.n	a11, 0
  903c54:	c1c0      	movi.n	a12, 16
  903c56:	2a1c18        	addi	a10, a1, 24
  903c59:	5b8550        	call8	8e519c <memset>
	int vendor_id;
	int device_id;

	A_PRINTF("<wlan_pci_probe>: Attaching the driver\n");
  903c5c:	127184        	l32r	a2, 8e026c <_bss_end+0x3d2a64>
  903c5f:	1a71e9        	l32r	a10, 8e0404 <_bss_end+0x3d2bfc>
  903c62:	232212        	l32i	a3, a2, 72
  903c65:	0b3000        	callx8	a3
	device_id = AR5416_DEVID_PCIE;
#else    
	vendor_id = wlan_pci_config_read(0, 2);
	device_id = wlan_pci_config_read(2, 2);
#endif    
	A_PRINTF("<wlan_pci_probe>: Vendor id 0x%x Dev id 0x%x\n", vendor_id, device_id);    
  903c68:	1371eb        	l32r	a3, 8e0414 <_bss_end+0x3d2c0c>
  903c6b:	282212        	l32i	a8, a2, 72
  903c6e:	1a71ea        	l32r	a10, 8e0418 <_bss_end+0x3d2c10>
  903c71:	db30      	mov.n	a11, a3
  903c73:	c2c4      	movi.n	a12, 36
  903c75:	0b8000        	callx8	a8
	}
            
	/**
	 * Allocate the sc & zero down
	 */
	sc = A_ALLOCRAM(sizeof(__adf_softc_t));
  903c78:	282252        	l32i	a8, a2, 0x148
  903c7b:	c0a0      	movi.n	a10, 0
  903c7d:	c0b4      	movi.n	a11, 4
  903c7f:	0b8000        	callx8	a8
	if (!sc) {
  903c82:	ccaa      	bnez.n	a10, 903c90 <wlan_pci_probe+0x4c>
		A_PRINTF("Cannot malloc softc\n");
  903c84:	222212        	l32i	a2, a2, 72
  903c87:	1a71ec        	l32r	a10, 8e0438 <_bss_end+0x3d2c30>
  903c8a:	0b2000        	callx8	a2
  903c8d:	d10f      	retw.n
  903c8f:	00c224        	excw
		goto mem_fail;
	}
    
#define AR5416_DEVID_PCIE 0x24 		

	drv_data.pci.device    = AR5416_DEVID_PCIE;
  903c92:	9217      	s32i.n	a2, a1, 28
    
	drv_res.start  = (a_uint32_t) 0;
	drv_res.end    = 0;
	drv_res.type   = ADF_OS_RESOURCE_TYPE_MEM;
        
	g_wlan_drv_handle = g_wlan_drv->drv_attach(&drv_res, 1, &drv_data, NULL);
  903c94:	1271e8        	l32r	a2, 8e0434 <_bss_end+0x3d2c2c>
    
#define AR5416_DEVID_PCIE 0x24 		

	drv_data.pci.device    = AR5416_DEVID_PCIE;
	drv_data.pci.vendor    = 0x168c;
	drv_data.pci.subvendor = 0;
  903c97:	c0d0      	movi.n	a13, 0
    
	drv_res.start  = (a_uint32_t) 0;
	drv_res.end    = 0;
	drv_res.type   = ADF_OS_RESOURCE_TYPE_MEM;
        
	g_wlan_drv_handle = g_wlan_drv->drv_attach(&drv_res, 1, &drv_data, NULL);
  903c99:	8220      	l32i.n	a2, a2, 0
	drv_data.pci.device    = AR5416_DEVID_PCIE;
	drv_data.pci.vendor    = 0x168c;
	drv_data.pci.subvendor = 0;
	drv_data.pci.subdevice = 0;
    
	drv_res.start  = (a_uint32_t) 0;
  903c9b:	1871ed        	l32r	a8, 8e0450 <_bss_end+0x3d2c48>
  903c9e:	1971ed        	l32r	a9, 8e0454 <_bss_end+0x3d2c4c>
	}
    
#define AR5416_DEVID_PCIE 0x24 		

	drv_data.pci.device    = AR5416_DEVID_PCIE;
	drv_data.pci.vendor    = 0x168c;
  903ca1:	9316      	s32i.n	a3, a1, 24
	drv_data.pci.subvendor = 0;
  903ca3:	9d18      	s32i.n	a13, a1, 32
	drv_data.pci.subdevice = 0;
  903ca5:	9d19      	s32i.n	a13, a1, 36
    
	drv_res.start  = (a_uint32_t) 0;
	drv_res.end    = 0;
	drv_res.type   = ADF_OS_RESOURCE_TYPE_MEM;
        
	g_wlan_drv_handle = g_wlan_drv->drv_attach(&drv_res, 1, &drv_data, NULL);
  903ca7:	8220      	l32i.n	a2, a2, 0
	drv_data.pci.device    = AR5416_DEVID_PCIE;
	drv_data.pci.vendor    = 0x168c;
	drv_data.pci.subvendor = 0;
	drv_data.pci.subdevice = 0;
    
	drv_res.start  = (a_uint32_t) 0;
  903ca9:	9810      	s32i.n	a8, a1, 0
  903cab:	9911      	s32i.n	a9, a1, 4
	drv_res.end    = 0;
  903cad:	9812      	s32i.n	a8, a1, 8
  903caf:	9913      	s32i.n	a9, a1, 12
	drv_res.type   = ADF_OS_RESOURCE_TYPE_MEM;
  903cb1:	9d14      	s32i.n	a13, a1, 16
        
	g_wlan_drv_handle = g_wlan_drv->drv_attach(&drv_res, 1, &drv_data, NULL);
  903cb3:	da10      	mov.n	a10, a1
  903cb5:	c0b1      	movi.n	a11, 1
  903cb7:	2c1c18        	addi	a12, a1, 24
  903cba:	0b2000        	callx8	a2
  903cbd:	1271ee        	l32r	a2, 8e0478 <_bss_end+0x3d2c70>
  903cc0:	9a20      	s32i.n	a10, a2, 0
  903cc2:	d10f      	retw.n

00903cc4 <wlan_pci_config_write>:
mem_fail:
	return;        
}

int wlan_pci_config_write(int offset, a_uint32_t val, int width)
{
  903cc4:	6c1004        	entry	a1, 32
		ptr[idx + i] = valptr[3-i];
	}            
#endif
    
	return 0;    
}
  903cc7:	c020      	movi.n	a2, 0
  903cc9:	d10f      	retw.n
	...

00903ccc <wlan_pci_config_read>:

int wlan_pci_config_read(int offset, int width)
{
  903ccc:	6c1004        	entry	a1, 32
		result |= (ptr[ 3 - (idx + i)] << (8*i));
	}            
    
	return result;    
#endif    
}
  903ccf:	c020      	movi.n	a2, 0
  903cd1:	d10f      	retw.n
	...

00903cd4 <wlan_pci_isr>:

void wlan_pci_isr()
{
  903cd4:	6c1004        	entry	a1, 32
	if (g_wlan_intr != NULL && g_wlan_drv_handle != NULL) {
  903cd7:	1871ef        	l32r	a8, 8e0494 <_bss_end+0x3d2c8c>
  903cda:	8880      	l32i.n	a8, a8, 0
  903cdc:	c888      	beqz.n	a8, 903ce8 <wlan_pci_isr+0x14>
  903cde:	1971ee        	l32r	a9, 8e0498 <_bss_end+0x3d2c90>
  903ce1:	8a90      	l32i.n	a10, a9, 0
  903ce3:	c8a1      	beqz.n	a10, 903ce8 <wlan_pci_isr+0x14>
		g_wlan_intr(g_wlan_drv_handle);
  903ce5:	0b8000        	callx8	a8
  903ce8:	d10f      	retw.n
	...

00903cec <_HTC_Shutdown>:
    
	return pHTC;
}

LOCAL void _HTC_Shutdown(htc_handle_t htcHandle)
{
  903cec:	6c1004        	entry	a1, 32
  903cef:	d10f      	retw.n
  903cf1:	000000        	ill

00903cf4 <_HTC_RegisterService>:
    
	adf_os_mem_free(pHTC);
}

LOCAL void _HTC_RegisterService(htc_handle_t htcHandle, HTC_SERVICE *pService)
{
  903cf4:	6c1004        	entry	a1, 32
	HTC_CONTEXT *pHTC = (HTC_CONTEXT *)htcHandle;
    
        /* add it to the list */
	pService->pNext = pHTC->pServiceList;
  903cf7:	282290        	l32i	a8, a2, 0x240
  903cfa:	9830      	s32i.n	a8, a3, 0
	pHTC->pServiceList = pService;
  903cfc:	232690        	s32i	a3, a2, 0x240
  903cff:	d10f      	retw.n
  903d01:	000000        	ill

00903d04 <_HTC_GetReservedHeadroom>:
void _HTC_ResumeRecv(HTC_ENDPOINT_ID EndpointID)
{
}

int _HTC_GetReservedHeadroom(htc_handle_t htcHandle)
{
  903d04:	6c1004        	entry	a1, 32
	HTC_CONTEXT *pHTC = (HTC_CONTEXT *)htcHandle;  
    
	return HTC_HDR_LENGTH + HIF_get_reserved_headroom(pHTC->hifHandle);
  903d07:	187184        	l32r	a8, 8e0318 <_bss_end+0x3d2b10>
  903d0a:	2a229a        	l32i	a10, a2, 0x268
  903d0d:	28827f        	l32i	a8, a8, 0x1fc
  903d10:	0b8000        	callx8	a8
}
  903d13:	b8a2      	addi.n	a2, a10, 8
  903d15:	d10f      	retw.n
	...

00903d18 <HTCSendDoneHandler>:
		HTCCheckAndSendCreditReport(pHTC, HTC_ANY_ENDPOINT_MASK,NULL,ENDPOINT_MAX);
	}  
}

LOCAL void HTCSendDoneHandler(adf_nbuf_t buf, void *context)
{
  903d18:	6c1004        	entry	a1, 32
 * @return data pointer to typecast into your priv structure
 */
static inline a_uint8_t *
adf_nbuf_get_priv(adf_nbuf_t buf)
{
    return (__adf_nbuf_get_priv(buf));
  903d1b:	022a02        	or	a10, a2, a2
  903d1e:	5bfdd3        	call8	90346c <__adf_nbuf_get_priv>
	A_UINT8 current_eid;
	HTC_CONTEXT *pHTC = (HTC_CONTEXT *)context;
	HTC_BUF_CONTEXT *ctx;
      
	ctx = (HTC_BUF_CONTEXT *)adf_nbuf_get_priv(buf);
	current_eid = ctx->end_point;
  903d21:	24a000        	l8ui	a4, a10, 0
 *         or NULL if there is not sufficient data to pull.
 */
static inline a_uint8_t *
adf_nbuf_pull_head(adf_nbuf_t buf, adf_os_size_t size)
{
    return __adf_nbuf_pull_head(buf, size);
  903d24:	c0b8      	movi.n	a11, 8
  903d26:	022a02        	or	a10, a2, a2
  903d29:	5bfdb5        	call8	903400 <__adf_nbuf_pull_head>
	/* Walk through the buffers and fixup the ones we used for HTC headers.
	 * The buffer list may contain more than one string of HTC buffers comprising of an
	 * HTC message so we need to check every buffer */            
	adf_nbuf_pull_head(buf, HTC_HDR_LENGTH);
                   
	pHTC->Endpoints[current_eid].pService->
  903d2c:	044809        	addx2	a8, a4, a4
  903d2f:	03830b        	addx8	a3, a8, a3
  903d32:	8832      	l32i.n	a8, a3, 8
		ProcessSendBufferComplete(current_eid, 
  903d34:	da40      	mov.n	a10, a4
  903d36:	8982      	l32i.n	a9, a8, 8
  903d38:	8c86      	l32i.n	a12, a8, 24
  903d3a:	022b02        	or	a11, a2, a2
  903d3d:	0b9000        	callx8	a9
  903d40:	d10f      	retw.n
	...

00903d44 <HTC_AssembleBuffers>:
	if ((pEndpoint)->ConnectionFlags & HTC_CONNECT_FLAGS_REDUCE_CREDIT_DRIBBLE) { \
		AdjustCreditThreshold((pEndpoint));			\
	}    

LOCAL void HTC_AssembleBuffers(HTC_CONTEXT *pHTC, int Count, int Size)
{
  903d44:	6c1004        	entry	a1, 32
	BUF_Pool_create_pool(pHTC->PoolHandle, POOL_ID_HTC_CONTROL, Count, Size);       
  903d47:	187184        	l32r	a8, 8e0358 <_bss_end+0x3d2b50>
  903d4a:	2a229b        	l32i	a10, a2, 0x26c
  903d4d:	2882a0        	l32i	a8, a8, 0x280
  903d50:	c0b0      	movi.n	a11, 0
  903d52:	dc30      	mov.n	a12, a3
  903d54:	dd40      	mov.n	a13, a4
  903d56:	0b8000        	callx8	a8
  903d59:	d10f      	retw.n
	...

00903d5c <_HTC_Init>:
}

LOCAL htc_handle_t _HTC_Init(HTC_SETUP_COMPLETE_CB SetupComplete,
                             HTC_CONFIG *pConfig)
{
  903d5c:	6c1006        	entry	a1, 48
#include "Magpie_api.h"

static inline void *	__adf_os_mem_alloc(adf_os_size_t size)
{
//    return (malloc(size,M_DEVBUF,M_DONTWAIT | M_ZERO));
    return A_ALLOCRAM(size);
  903d5f:	147184        	l32r	a4, 8e0370 <_bss_end+0x3d2b68>
  903d62:	022502        	or	a5, a2, a2
  903d65:	224252        	l32i	a2, a4, 0x148
  903d68:	2b2a74        	movi	a11, 0x274
  903d6b:	c0a0      	movi.n	a10, 0
  903d6d:	0b2000        	callx8	a2
}
/* zero a memory buffer */
static inline void
__adf_os_mem_zero(void *buf, adf_os_size_t size)
{
    A_MEMZERO(buf,size);
  903d70:	8844      	l32i.n	a8, a4, 16
  903d72:	2c2a74        	movi	a12, 0x274
  903d75:	c0b0      	movi.n	a11, 0
#include "Magpie_api.h"

static inline void *	__adf_os_mem_alloc(adf_os_size_t size)
{
//    return (malloc(size,M_DEVBUF,M_DONTWAIT | M_ZERO));
    return A_ALLOCRAM(size);
  903d77:	d2a0      	mov.n	a2, a10
}
/* zero a memory buffer */
static inline void
__adf_os_mem_zero(void *buf, adf_os_size_t size)
{
    A_MEMZERO(buf,size);
  903d79:	0b8000        	callx8	a8
    
        pHTC = (HTC_CONTEXT *)adf_os_mem_alloc(sizeof(HTC_CONTEXT));
    
	adf_os_mem_zero(pHTC, sizeof(HTC_CONTEXT));

	pHTC->OSHandle = pConfig->OSHandle;
  903d7c:	8832      	l32i.n	a8, a3, 8
	pHTC->PoolHandle = pConfig->PoolHandle;
	pHTC->hifHandle = pConfig->HIFHandle;
  903d7e:	8a33      	l32i.n	a10, a3, 12
    
        pHTC = (HTC_CONTEXT *)adf_os_mem_alloc(sizeof(HTC_CONTEXT));
    
	adf_os_mem_zero(pHTC, sizeof(HTC_CONTEXT));

	pHTC->OSHandle = pConfig->OSHandle;
  903d80:	9820      	s32i.n	a8, a2, 0
	pHTC->PoolHandle = pConfig->PoolHandle;
  903d82:	8834      	l32i.n	a8, a3, 16
	hifCBConfig.send_buf_done = A_INDIR(htc._HTC_SendDoneHandler);
	hifCBConfig.recv_buf = A_INDIR(htc._HTC_MsgRecvHandler);
	hifCBConfig.context = pHTC;
    
	/* initialize hardware layer */
	HIF_register_callback(pConfig->HIFHandle, &hifCBConfig);
  903d84:	db10      	mov.n	a11, a1
        pHTC = (HTC_CONTEXT *)adf_os_mem_alloc(sizeof(HTC_CONTEXT));
    
	adf_os_mem_zero(pHTC, sizeof(HTC_CONTEXT));

	pHTC->OSHandle = pConfig->OSHandle;
	pHTC->PoolHandle = pConfig->PoolHandle;
  903d86:	28269b        	s32i	a8, a2, 0x26c
	pHTC->hifHandle = pConfig->HIFHandle;
                        
	hifCBConfig.send_buf_done = A_INDIR(htc._HTC_SendDoneHandler);
  903d89:	28428c        	l32i	a8, a4, 0x230
    
	adf_os_mem_zero(pHTC, sizeof(HTC_CONTEXT));

	pHTC->OSHandle = pConfig->OSHandle;
	pHTC->PoolHandle = pConfig->PoolHandle;
	pHTC->hifHandle = pConfig->HIFHandle;
  903d8c:	2a269a        	s32i	a10, a2, 0x268
                        
	hifCBConfig.send_buf_done = A_INDIR(htc._HTC_SendDoneHandler);
  903d8f:	9810      	s32i.n	a8, a1, 0
	hifCBConfig.recv_buf = A_INDIR(htc._HTC_MsgRecvHandler);
  903d91:	28428b        	l32i	a8, a4, 0x22c
	hifCBConfig.context = pHTC;
  903d94:	9212      	s32i.n	a2, a1, 8
	pHTC->OSHandle = pConfig->OSHandle;
	pHTC->PoolHandle = pConfig->PoolHandle;
	pHTC->hifHandle = pConfig->HIFHandle;
                        
	hifCBConfig.send_buf_done = A_INDIR(htc._HTC_SendDoneHandler);
	hifCBConfig.recv_buf = A_INDIR(htc._HTC_MsgRecvHandler);
  903d96:	9811      	s32i.n	a8, a1, 4
	hifCBConfig.context = pHTC;
    
	/* initialize hardware layer */
	HIF_register_callback(pConfig->HIFHandle, &hifCBConfig);
  903d98:	284277        	l32i	a8, a4, 0x1dc
  903d9b:	0b8000        	callx8	a8
        /* see if the host wants us to override the number of ctrl buffers */
	pHTC->NumBuffersForCreditRpts = 0;
    
	if (0 == pHTC->NumBuffersForCreditRpts) {
		/* nothing to override, simply set default */
		pHTC->NumBuffersForCreditRpts = HTC_DEFAULT_NUM_CTRL_BUFFERS; 
  903d9e:	c086      	movi.n	a8, 6
  903da0:	282696        	s32i	a8, a2, 0x258
	}    
    
	pHTC->MaxEpPendingCreditRpts = 0;
    
	if (0 == pHTC->MaxEpPendingCreditRpts) {
		pHTC->MaxEpPendingCreditRpts = HTC_DEFAULT_MAX_EP_PENDING_CREDIT_REPORTS;    
  903da3:	c083      	movi.n	a8, 3
  903da5:	282699        	s32i	a8, a2, 0x264
	}
	/* calculate the total allocation size based on the number of credit report buffers */
	pHTC->CtrlBufferAllocSize = MIN_CREDIT_BUFFER_ALLOC_SIZE * pHTC->NumBuffersForCreditRpts;
  903da8:	280ad8        	movi	a8, 216
  903dab:	282697        	s32i	a8, a2, 0x25c
	/* we need at least enough buffer space for 1 ctrl message */
	pHTC->CtrlBufferAllocSize = A_MAX(pHTC->CtrlBufferAllocSize,MAX_HTC_SETUP_MSG_SIZE);
    
	/* save the size of each buffer/credit we will receive */
	pHTC->RecvBufferSize = pConfig->CreditSize; //RecvBufferSize;
  903dae:	8830      	l32i.n	a8, a3, 0
	pHTC->TotalCredits = pConfig->CreditNumber;
  903db0:	8331      	l32i.n	a3, a3, 4
	pHTC->CtrlBufferAllocSize = MIN_CREDIT_BUFFER_ALLOC_SIZE * pHTC->NumBuffersForCreditRpts;
	/* we need at least enough buffer space for 1 ctrl message */
	pHTC->CtrlBufferAllocSize = A_MAX(pHTC->CtrlBufferAllocSize,MAX_HTC_SETUP_MSG_SIZE);
    
	/* save the size of each buffer/credit we will receive */
	pHTC->RecvBufferSize = pConfig->CreditSize; //RecvBufferSize;
  903db2:	282691        	s32i	a8, a2, 0x244
	pHTC->TotalCredits = pConfig->CreditNumber;
  903db5:	232694        	s32i	a3, a2, 0x250
	pHTC->TotalCreditsAssigned = 0;
  903db8:	c030      	movi.n	a3, 0
  903dba:	232695        	s32i	a3, a2, 0x254
     
	/* setup the pseudo service that handles HTC control messages */
	pHTC->HTCControlService.ProcessRecvMsg = A_INDIR(htc._HTC_ControlSvcProcessMsg);
  903dbd:	23428d        	l32i	a3, a4, 0x234
	pHTC->HTCControlService.ProcessSendBufferComplete = A_INDIR(htc._HTC_ControlSvcProcessSendComplete);
	pHTC->HTCControlService.TrailerSpcCheckLimit = HTC_CTRL_BUFFER_CHECK_SIZE;
  903dc0:	c18c      	movi.n	a8, 28
	pHTC->RecvBufferSize = pConfig->CreditSize; //RecvBufferSize;
	pHTC->TotalCredits = pConfig->CreditNumber;
	pHTC->TotalCreditsAssigned = 0;
     
	/* setup the pseudo service that handles HTC control messages */
	pHTC->HTCControlService.ProcessRecvMsg = A_INDIR(htc._HTC_ControlSvcProcessMsg);
  903dc2:	23268a        	s32i	a3, a2, 0x228
	pHTC->HTCControlService.ProcessSendBufferComplete = A_INDIR(htc._HTC_ControlSvcProcessSendComplete);
  903dc5:	23428e        	l32i	a3, a4, 0x238
	pHTC->HTCControlService.MaxSvcMsgSize = MAX_HTC_SETUP_MSG_SIZE;
	pHTC->HTCControlService.ServiceCtx = pHTC;
    
	/* automatically register this pseudo service to endpoint 1 */
	pHTC->Endpoints[ENDPOINT0].pService = &pHTC->HTCControlService;
	HIF_get_default_pipe(pHTC->hifHandle, &pHTC->Endpoints[ENDPOINT0].UpLinkPipeID, 
  903dc8:	2a229a        	l32i	a10, a2, 0x268
	pHTC->TotalCredits = pConfig->CreditNumber;
	pHTC->TotalCreditsAssigned = 0;
     
	/* setup the pseudo service that handles HTC control messages */
	pHTC->HTCControlService.ProcessRecvMsg = A_INDIR(htc._HTC_ControlSvcProcessMsg);
	pHTC->HTCControlService.ProcessSendBufferComplete = A_INDIR(htc._HTC_ControlSvcProcessSendComplete);
  903dcb:	23268b        	s32i	a3, a2, 0x22c
	pHTC->HTCControlService.TrailerSpcCheckLimit = HTC_CTRL_BUFFER_CHECK_SIZE;
  903dce:	232d02        	addmi	a3, a2, 0x200
  903dd1:	28351d        	s16i	a8, a3, 58
	pHTC->HTCControlService.MaxSvcMsgSize = MAX_HTC_SETUP_MSG_SIZE;
  903dd4:	c480      	movi.n	a8, 64
  903dd6:	28351c        	s16i	a8, a3, 56
	pHTC->HTCControlService.ServiceCtx = pHTC;
    
	/* automatically register this pseudo service to endpoint 1 */
	pHTC->Endpoints[ENDPOINT0].pService = &pHTC->HTCControlService;
  903dd9:	232a24        	movi	a3, 0x224
  903ddc:	032308        	add	a3, a2, a3
  903ddf:	9322      	s32i.n	a3, a2, 8
	HIF_get_default_pipe(pHTC->hifHandle, &pHTC->Endpoints[ENDPOINT0].UpLinkPipeID, 
  903de1:	234281        	l32i	a3, a4, 0x204
  903de4:	2b2c19        	addi	a11, a2, 25
  903de7:	2c2c18        	addi	a12, a2, 24
	/* setup the pseudo service that handles HTC control messages */
	pHTC->HTCControlService.ProcessRecvMsg = A_INDIR(htc._HTC_ControlSvcProcessMsg);
	pHTC->HTCControlService.ProcessSendBufferComplete = A_INDIR(htc._HTC_ControlSvcProcessSendComplete);
	pHTC->HTCControlService.TrailerSpcCheckLimit = HTC_CTRL_BUFFER_CHECK_SIZE;
	pHTC->HTCControlService.MaxSvcMsgSize = MAX_HTC_SETUP_MSG_SIZE;
	pHTC->HTCControlService.ServiceCtx = pHTC;
  903dea:	22268f        	s32i	a2, a2, 0x23c
    
	/* automatically register this pseudo service to endpoint 1 */
	pHTC->Endpoints[ENDPOINT0].pService = &pHTC->HTCControlService;
	HIF_get_default_pipe(pHTC->hifHandle, &pHTC->Endpoints[ENDPOINT0].UpLinkPipeID, 
  903ded:	0b3000        	callx8	a3
			     &pHTC->Endpoints[ENDPOINT0].DownLinkPipeID);
    
	/* Initialize control pipe so we could receive the HTC control packets */
	// @TODO: msg size!
	HIF_config_pipe(pHTC->hifHandle, pHTC->Endpoints[ENDPOINT0].UpLinkPipeID, 1);    
  903df0:	2a229a        	l32i	a10, a2, 0x268
  903df3:	23427a        	l32i	a3, a4, 0x1e8
  903df6:	2b2019        	l8ui	a11, a2, 25
  903df9:	c0c1      	movi.n	a12, 1
  903dfb:	0b3000        	callx8	a3
    
	/* set the first free endpoint */
	pHTC->CurrentEpIndex = ENDPOINT1;
  903dfe:	c031      	movi.n	a3, 1
  903e00:	232688        	s32i	a3, a2, 0x220
	pHTC->SetupCompleteCb = SetupComplete;
    
        /* setup buffers for just the setup phase, we only need 1 buffer to handle
	 * setup */
	HTC_AssembleBuffers(pHTC, 4, MAX_HTC_SETUP_MSG_SIZE);
  903e03:	da20      	mov.n	a10, a2
	// @TODO: msg size!
	HIF_config_pipe(pHTC->hifHandle, pHTC->Endpoints[ENDPOINT0].UpLinkPipeID, 1);    
    
	/* set the first free endpoint */
	pHTC->CurrentEpIndex = ENDPOINT1;
	pHTC->SetupCompleteCb = SetupComplete;
  903e05:	252693        	s32i	a5, a2, 0x24c
    
        /* setup buffers for just the setup phase, we only need 1 buffer to handle
	 * setup */
	HTC_AssembleBuffers(pHTC, 4, MAX_HTC_SETUP_MSG_SIZE);
  903e08:	c0b4      	movi.n	a11, 4
  903e0a:	2c0a40        	movi	a12, 64
  903e0d:	5bffcd        	call8	903d44 <HTC_AssembleBuffers>
   
	/* start hardware layer so that we can queue buffers */
	HIF_start(pHTC->hifHandle);
  903e10:	2a229a        	l32i	a10, a2, 0x268
  903e13:	234279        	l32i	a3, a4, 0x1e4
  903e16:	0b3000        	callx8	a3
    
	return pHTC;
}
  903e19:	d10f      	retw.n
	...

00903e1c <_HTC_PauseRecv>:
	pHTCHdr->PayloadLen = adf_os_htons(totsz);  
	HIF_send_buffer(pHTC->hifHandle, pHTC->Endpoints[EndpointID].DownLinkPipeID, pBuffers);       
}

void _HTC_PauseRecv(HTC_ENDPOINT_ID EndpointID)
{
  903e1c:	6c1004        	entry	a1, 32
  903e1f:	d10f      	retw.n
  903e21:	000000        	ill

00903e24 <_HTC_ResumeRecv>:
}

void _HTC_ResumeRecv(HTC_ENDPOINT_ID EndpointID)
{
  903e24:	6c1004        	entry	a1, 32
  903e27:	d10f      	retw.n
  903e29:	000000        	ill

00903e2c <htc_module_install>:
    
	return HTC_HDR_LENGTH + HIF_get_reserved_headroom(pHTC->hifHandle);
}

void htc_module_install(struct htc_apis *pAPIs)
{   
  903e2c:	6c1004        	entry	a1, 32
	pAPIs->_HTC_Init = _HTC_Init;
  903e2f:	1871f0        	l32r	a8, 8e05f0 <_bss_end+0x3d2de8>
  903e32:	9820      	s32i.n	a8, a2, 0
	pAPIs->_HTC_ReturnBuffers = _HTC_ReturnBuffers;
  903e34:	1871f1        	l32r	a8, 8e05f8 <_bss_end+0x3d2df0>
  903e37:	9824      	s32i.n	a8, a2, 16
	pAPIs->_HTC_ReturnBuffersList = _HTC_ReturnBuffersList;
  903e39:	1871f2        	l32r	a8, 8e0604 <_bss_end+0x3d2dfc>
  903e3c:	9825      	s32i.n	a8, a2, 20
	pAPIs->_HTC_Ready = _HTC_Ready;
  903e3e:	1871f3        	l32r	a8, 8e060c <_bss_end+0x3d2e04>
  903e41:	9823      	s32i.n	a8, a2, 12
	pAPIs->_HTC_RegisterService = _HTC_RegisterService;
  903e43:	1871f4        	l32r	a8, 8e0614 <_bss_end+0x3d2e0c>
  903e46:	9822      	s32i.n	a8, a2, 8
	pAPIs->_HTC_SendMsg = _HTC_SendMsg;   
  903e48:	1871f5        	l32r	a8, 8e061c <_bss_end+0x3d2e14>
  903e4b:	9826      	s32i.n	a8, a2, 24
	pAPIs->_HTC_Shutdown = _HTC_Shutdown;
  903e4d:	1871f6        	l32r	a8, 8e0628 <_bss_end+0x3d2e20>
  903e50:	9821      	s32i.n	a8, a2, 4
	pAPIs->_HTC_GetReservedHeadroom = _HTC_GetReservedHeadroom;
  903e52:	1871f7        	l32r	a8, 8e0630 <_bss_end+0x3d2e28>
  903e55:	9827      	s32i.n	a8, a2, 28
	pAPIs->_HTC_MsgRecvHandler = HTCMsgRecvHandler;
  903e57:	1871f8        	l32r	a8, 8e0638 <_bss_end+0x3d2e30>
  903e5a:	9828      	s32i.n	a8, a2, 32
	pAPIs->_HTC_SendDoneHandler = HTCSendDoneHandler;
  903e5c:	1871f9        	l32r	a8, 8e0640 <_bss_end+0x3d2e38>
  903e5f:	9829      	s32i.n	a8, a2, 36
	pAPIs->_HTC_ControlSvcProcessMsg = HTCControlSvcProcessMsg;
  903e61:	1871fa        	l32r	a8, 8e064c <_bss_end+0x3d2e44>
  903e64:	982a      	s32i.n	a8, a2, 40
	pAPIs->_HTC_ControlSvcProcessSendComplete = HTCControlSvcProcessSendComplete;
  903e66:	1871fb        	l32r	a8, 8e0654 <_bss_end+0x3d2e4c>
  903e69:	982b      	s32i.n	a8, a2, 44
  903e6b:	d10f      	retw.n
  903e6d:	000000        	ill

00903e70 <HTCFreeMsgBuffer>:
}

/* free message to the free list */
LOCAL void HTCFreeMsgBuffer(HTC_CONTEXT *pHTC, adf_nbuf_t buf) 
{
  903e70:	6c1004        	entry	a1, 32
	BUF_Pool_free_buf(pHTC->PoolHandle, POOL_ID_HTC_CONTROL, buf);      
  903e73:	187184        	l32r	a8, 8e0484 <_bss_end+0x3d2c7c>
  903e76:	2a229b        	l32i	a10, a2, 0x26c
  903e79:	2882a3        	l32i	a8, a8, 0x28c
  903e7c:	c0b0      	movi.n	a11, 0
  903e7e:	033c02        	or	a12, a3, a3
  903e81:	0b8000        	callx8	a8
  903e84:	d10f      	retw.n
	...

00903e88 <HTCAllocMsgBuffer>:
}

/* HTC control message allocator (also used for empty frames to send trailer options) */
LOCAL adf_nbuf_t HTCAllocMsgBuffer(HTC_CONTEXT *pHTC)
{
  903e88:	6c1004        	entry	a1, 32
	return BUF_Pool_alloc_buf(pHTC->PoolHandle,
  903e8b:	187184        	l32r	a8, 8e049c <_bss_end+0x3d2c94>
  903e8e:	24229b        	l32i	a4, a2, 0x26c
  903e91:	2382a1        	l32i	a3, a8, 0x284
  903e94:	28828a        	l32i	a8, a8, 0x228
  903e97:	da20      	mov.n	a10, a2
  903e99:	0b8000        	callx8	a8
  903e9c:	dca0      	mov.n	a12, a10
  903e9e:	c0b0      	movi.n	a11, 0
  903ea0:	da40      	mov.n	a10, a4
  903ea2:	0b3000        	callx8	a3
				  POOL_ID_HTC_CONTROL,
				  HTC_GetReservedHeadroom(pHTC));   
}
  903ea5:	d2a0      	mov.n	a2, a10
  903ea7:	d10f      	retw.n
  903ea9:	000000        	ill

00903eac <_HTC_Ready>:
	pService->pNext = pHTC->pServiceList;
	pHTC->pServiceList = pService;
}

LOCAL void _HTC_Ready(htc_handle_t htcHandle)
{
  903eac:	6c1004        	entry	a1, 32
	adf_nbuf_t pBuffer;
	HTC_READY_MSG *pReady;
	a_uint8_t *addr;
	HTC_CONTEXT *pHTC = (HTC_CONTEXT *)htcHandle;
    
	pBuffer = HTCAllocMsgBuffer(pHTC);
  903eaf:	022a02        	or	a10, a2, a2
  903eb2:	5bfff5        	call8	903e88 <HTCAllocMsgBuffer>
 *         put, or NULL if there is not enough room in this buf.
 */
static inline a_uint8_t *
adf_nbuf_put_tail(adf_nbuf_t buf, adf_os_size_t size)
{
    return __adf_nbuf_put_tail(buf, size);
  903eb5:	c0b8      	movi.n	a11, 8
  903eb7:	d4a0      	mov.n	a4, a10
  903eb9:	5bfddd        	call8	903630 <__adf_nbuf_put_tail>
	/* an optimization... the header length is chosen to
	 * be aligned on a 16 bit bounday, the fields in the message are designed to
	 * be aligned */
	addr = adf_nbuf_put_tail(pBuffer, sizeof(HTC_READY_MSG));       
	pReady = (HTC_READY_MSG *)addr;     
	A_MEMZERO(pReady,sizeof(HTC_READY_MSG));  
  903ebc:	157184        	l32r	a5, 8e04cc <_bss_end+0x3d2cc4>
  903ebf:	c0b0      	movi.n	a11, 0
  903ec1:	8854      	l32i.n	a8, a5, 16
  903ec3:	c0c8      	movi.n	a12, 8
  903ec5:	d3a0      	mov.n	a3, a10
  903ec7:	0b8000        	callx8	a8
	pReady->MessageID = adf_os_htons(HTC_MSG_READY_ID);
  903eca:	c0b0      	movi.n	a11, 0
  903ecc:	c081      	movi.n	a8, 1
  903ece:	2b3400        	s8i	a11, a3, 0
  903ed1:	283401        	s8i	a8, a3, 1
	pReady->CreditSize = adf_os_htons((A_UINT16)pHTC->RecvBufferSize);
  903ed4:	282291        	l32i	a8, a2, 0x244
	pReady->CreditCount = adf_os_htons((A_UINT16)pHTC->TotalCredits);
	pReady->MaxEndpoints = ENDPOINT_MAX;
       
	/* send out the message */
	HTC_SendMsg(pHTC, ENDPOINT0, pBuffer);
  903ed7:	da20      	mov.n	a10, a2
	 * be aligned */
	addr = adf_nbuf_put_tail(pBuffer, sizeof(HTC_READY_MSG));       
	pReady = (HTC_READY_MSG *)addr;     
	A_MEMZERO(pReady,sizeof(HTC_READY_MSG));  
	pReady->MessageID = adf_os_htons(HTC_MSG_READY_ID);
	pReady->CreditSize = adf_os_htons((A_UINT16)pHTC->RecvBufferSize);
  903ed9:	08084f        	extui	a8, a8, 0, 16
  903edc:	088914        	srli	a9, a8, 8
  903edf:	293404        	s8i	a9, a3, 4
  903ee2:	283405        	s8i	a8, a3, 5
	pReady->CreditCount = adf_os_htons((A_UINT16)pHTC->TotalCredits);
  903ee5:	282294        	l32i	a8, a2, 0x250
	pReady->MaxEndpoints = ENDPOINT_MAX;
       
	/* send out the message */
	HTC_SendMsg(pHTC, ENDPOINT0, pBuffer);
  903ee8:	dc40      	mov.n	a12, a4
	addr = adf_nbuf_put_tail(pBuffer, sizeof(HTC_READY_MSG));       
	pReady = (HTC_READY_MSG *)addr;     
	A_MEMZERO(pReady,sizeof(HTC_READY_MSG));  
	pReady->MessageID = adf_os_htons(HTC_MSG_READY_ID);
	pReady->CreditSize = adf_os_htons((A_UINT16)pHTC->RecvBufferSize);
	pReady->CreditCount = adf_os_htons((A_UINT16)pHTC->TotalCredits);
  903eea:	08084f        	extui	a8, a8, 0, 16
  903eed:	088914        	srli	a9, a8, 8
  903ef0:	283403        	s8i	a8, a3, 3
	pReady->MaxEndpoints = ENDPOINT_MAX;
  903ef3:	c186      	movi.n	a8, 22
	addr = adf_nbuf_put_tail(pBuffer, sizeof(HTC_READY_MSG));       
	pReady = (HTC_READY_MSG *)addr;     
	A_MEMZERO(pReady,sizeof(HTC_READY_MSG));  
	pReady->MessageID = adf_os_htons(HTC_MSG_READY_ID);
	pReady->CreditSize = adf_os_htons((A_UINT16)pHTC->RecvBufferSize);
	pReady->CreditCount = adf_os_htons((A_UINT16)pHTC->TotalCredits);
  903ef5:	293402        	s8i	a9, a3, 2
	pReady->MaxEndpoints = ENDPOINT_MAX;
  903ef8:	283406        	s8i	a8, a3, 6
       
	/* send out the message */
	HTC_SendMsg(pHTC, ENDPOINT0, pBuffer);
  903efb:	235289        	l32i	a3, a5, 0x224
  903efe:	0b3000        	callx8	a3
  903f01:	d10f      	retw.n
	...

00903f04 <HTCCheckAndSendCreditReport>:
				  HTC_GetReservedHeadroom(pHTC));   
}

LOCAL void HTCCheckAndSendCreditReport(HTC_CONTEXT *pHTC, A_UINT32 EpMask,
				       HTC_ENDPOINT *pEndpoint, HTC_ENDPOINT_ID Eid)
{
  903f04:	6c1004        	entry	a1, 32
	adf_nbuf_t pCredBuffer;
	HTC_BUF_CONTEXT *ctx;    
        
	do {
		/* check if host needs credits */
		if (!(pHTC->EpHostNeedsCreditMap & EpMask)) {
  903f07:	282285        	l32i	a8, a2, 0x214
  903f0a:	78305a        	bnone	a3, a8, 903f68 <HTCCheckAndSendCreditReport+0x64>
			/* host does not need any credits for this set */
			break;    
		}
		/* check if any are pending */
		if (!(pHTC->EpCreditPendingMap & EpMask)) {
  903f0d:	282286        	l32i	a8, a2, 0x218
  903f10:	783054        	bnone	a3, a8, 903f68 <HTCCheckAndSendCreditReport+0x64>
			/* nothing to send up */
			break;    
		}  
		/* was an endpoint specified? */
		if (pEndpoint != NULL) {
  903f13:	c945      	beqz.n	a4, 903f2c <HTCCheckAndSendCreditReport+0x28>
			/* see if a threshold is in effect for this endpoint */
			if (pEndpoint->CreditReturnThreshhold != 0) {
  903f15:	234904        	l16si	a3, a4, 8
  903f18:	c834      	beqz.n	a3, 903f20 <HTCCheckAndSendCreditReport+0x1c>
				if (pEndpoint->CreditsToReturn < pEndpoint->CreditReturnThreshhold) {
  903f1a:	284900        	l16si	a8, a4, 0
  903f1d:	738247        	blt	a8, a3, 903f68 <HTCCheckAndSendCreditReport+0x64>
					 * back to the host */
					break;
				}
			}
         
			if (pEndpoint->PendingCreditReports >= pHTC->MaxEpPendingCreditRpts) {
  903f20:	8844      	l32i.n	a8, a4, 16
  903f22:	232299        	l32i	a3, a2, 0x264
  903f25:	738203        	blt	a8, a3, 903f2c <HTCCheckAndSendCreditReport+0x28>
  903f28:	600009        	j	903f35 <HTCCheckAndSendCreditReport+0x31>
  903f2b:	00da20        	excw
		}
        
		/* if we get here we have some credits to send up */
                        
		/* allocate a message buffer for the trailer */
		pCredBuffer = HTCAllocMsgBuffer(pHTC);
  903f2e:	5bffd6        	call8	903e88 <HTCAllocMsgBuffer>
  903f31:	d3a0      	mov.n	a3, a10
		if (NULL == pCredBuffer) {
  903f33:	ccae      	bnez.n	a10, 903f45 <HTCCheckAndSendCreditReport+0x41>
			/* no buffers left to send an empty message with trailers, host will just
			 * have to wait until we get our endpoint 0 messages back.. */
			/* mark that we need to send an update as soon as we can get a buffer back */
			pHTC->StateFlags |= HTC_SEND_CREDIT_UPDATE_SOON;
  903f35:	242292        	l32i	a4, a2, 0x248
  903f38:	c032      	movi.n	a3, 2
  903f3a:	034302        	or	a3, a4, a3
  903f3d:	232692        	s32i	a3, a2, 0x248
  903f40:	d10f      	retw.n
  903f42:	000000        	ill
 * @return data pointer to typecast into your priv structure
 */
static inline a_uint8_t *
adf_nbuf_get_priv(adf_nbuf_t buf)
{
    return (__adf_nbuf_get_priv(buf));
  903f45:	5bfd49        	call8	90346c <__adf_nbuf_get_priv>
			break;    
		}
        
		ctx = (HTC_BUF_CONTEXT *)adf_nbuf_get_priv(pCredBuffer);
		if (pEndpoint != NULL) {
  903f48:	c84d      	beqz.n	a4, 903f59 <HTCCheckAndSendCreditReport+0x55>
			/* keep track of pending reports */
			pEndpoint->PendingCreditReports++; 
  903f4a:	8844      	l32i.n	a8, a4, 16
  903f4c:	b188      	addi.n	a8, a8, 1
  903f4e:	9844      	s32i.n	a8, a4, 16
			/* save the endpoint in order to decrement the count when the send completes */
			ctx->htc_flags = Eid | HTC_FLAGS_CREDIT_RPT;
  903f50:	240a20        	movi	a4, 32
  903f53:	045502        	or	a5, a5, a4
  903f56:	25a401        	s8i	a5, a10, 1
		}   
            
		/* this is an empty message, the HTC_SendMsg will tack on a trailer in the remaining
		 * space, NOTE: no need to flush the cache, the header and trailers are assembled
		 * using uncached addresses */
		HTC_SendMsg(pHTC, ENDPOINT0, pCredBuffer);    
  903f59:	147184        	l32r	a4, 8e056c <_bss_end+0x3d2d64>
  903f5c:	da20      	mov.n	a10, a2
  903f5e:	244289        	l32i	a4, a4, 0x224
  903f61:	c0b0      	movi.n	a11, 0
  903f63:	dc30      	mov.n	a12, a3
  903f65:	0b4000        	callx8	a4
  903f68:	d10f      	retw.n
	...

00903f6c <HTCControlSvcProcessSendComplete>:
}

/* callback when endpoint 0 send buffers are completed */
LOCAL void HTCControlSvcProcessSendComplete(HTC_ENDPOINT_ID EndpointID,
					    adf_nbuf_t pBuffers, void *arg)
{
  903f6c:	6c1004        	entry	a1, 32
  903f6f:	da30      	mov.n	a10, a3
  903f71:	5bfd3e        	call8	90346c <__adf_nbuf_get_priv>
	HTC_ENDPOINT_ID creditRptEndpoint;
    
	ctx = (HTC_BUF_CONTEXT *)adf_nbuf_get_priv(pBuffers);       
    
	/* put them back into the pool */
	if ( ctx->htc_flags & HTC_FLAGS_CREDIT_RPT ) {   
  903f74:	28a001        	l8ui	a8, a10, 1
  903f77:	7a870e        	bbci	a8, 26, 903f89 <HTCControlSvcProcessSendComplete+0x1d>
		/* extract the endpoint number that requested this credit report */ 
		creditRptEndpoint = ctx->htc_flags & HTC_FLAGS_CRPT_EP_MASK;    
  903f7a:	080844        	extui	a8, a8, 0, 5
		pHTC->Endpoints[creditRptEndpoint].PendingCreditReports--;  
  903f7d:	088809        	addx2	a8, a8, a8
  903f80:	04880b        	addx8	a8, a8, a4
  903f83:	8985      	l32i.n	a9, a8, 20
  903f85:	b099      	addi.n	a9, a9, -1
  903f87:	9985      	s32i.n	a9, a8, 20
	}
    
	HTCFreeMsgBuffer(pHTC, pBuffers);
  903f89:	db30      	mov.n	a11, a3
  903f8b:	da40      	mov.n	a10, a4
  903f8d:	5bffb8        	call8	903e70 <HTCFreeMsgBuffer>
   
	if (pHTC->StateFlags & HTC_SEND_CREDIT_UPDATE_SOON) {
  903f90:	234292        	l32i	a3, a4, 0x248
  903f93:	7e3712        	bbci	a3, 30, 903fa9 <HTCControlSvcProcessSendComplete+0x3d>
		/* this flag is set when the host could not send a credit report
		 * because we ran out of HTC control buffers */
		pHTC->StateFlags &= ~HTC_SEND_CREDIT_UPDATE_SOON;
  903f96:	c78d      	movi.n	a8, -3
  903f98:	083301        	and	a3, a3, a8
  903f9b:	234692        	s32i	a3, a4, 0x248
		/* send out a report if anything is pending */
		HTCCheckAndSendCreditReport(pHTC, HTC_ANY_ENDPOINT_MASK,NULL,ENDPOINT_MAX);
  903f9e:	da40      	mov.n	a10, a4
  903fa0:	c7bf      	movi.n	a11, -1
  903fa2:	c0c0      	movi.n	a12, 0
  903fa4:	c1d6      	movi.n	a13, 22
  903fa6:	5bffd7        	call8	903f04 <HTCCheckAndSendCreditReport>
  903fa9:	d10f      	retw.n
	...

00903fac <ReturnBuffers>:
	/* now we need to wait for service connection requests */
}

LOCAL void ReturnBuffers(htc_handle_t htcHandle, HTC_ENDPOINT_ID EndpointID,
			 adf_nbuf_t pBuffers, A_BOOL sendCreditFlag)
{   
  903fac:	6c1004        	entry	a1, 32
 *         or NULL if there is not enough room in this buf.
 */
static inline a_uint8_t *
adf_nbuf_push_head(adf_nbuf_t buf, adf_os_size_t size)
{
    return __adf_nbuf_push_head(buf, size);
  903faf:	044a02        	or	a10, a4, a4
  903fb2:	2b0a08        	movi	a11, 8
  903fb5:	5bfd07        	call8	9033d4 <__adf_nbuf_push_head>
    
	/* supply some head-room again */
	adf_nbuf_push_head(pBuffers, HTC_HDR_LENGTH);
              
	/* enqueue all buffers to the single mailbox */
	HIF_return_recv_buf(pHTC->hifHandle, pHTC->Endpoints[EndpointID].UpLinkPipeID, pBuffers);    
  903fb8:	187184        	l32r	a8, 8e05c8 <_bss_end+0x3d2dc0>
  903fbb:	033609        	addx2	a6, a3, a3
  903fbe:	02660b        	addx8	a6, a6, a2
  903fc1:	28827c        	l32i	a8, a8, 0x1f0
  903fc4:	2a229a        	l32i	a10, a2, 0x268
  903fc7:	2b6019        	l8ui	a11, a6, 25
  903fca:	044c02        	or	a12, a4, a4
  903fcd:	0b8000        	callx8	a8
     
	if (pHTC->StateFlags & HTC_STATE_SETUP_COMPLETE) {       
  903fd0:	242292        	l32i	a4, a2, 0x248
  903fd3:	7f472d        	bbci	a4, 31, 904004 <ReturnBuffers+0x58>
		A_UINT32    epCreditMask = (1 << EndpointID);
		/* we are running normally */
		/* update pending credit counts with the number of buffers that were added */
		pHTC->Endpoints[EndpointID].CreditsToReturn += (A_INT16)nbufs;
  903fd6:	246102        	l16ui	a4, a6, 4
              
	/* enqueue all buffers to the single mailbox */
	HIF_return_recv_buf(pHTC->hifHandle, pHTC->Endpoints[EndpointID].UpLinkPipeID, pBuffers);    
     
	if (pHTC->StateFlags & HTC_STATE_SETUP_COMPLETE) {       
		A_UINT32    epCreditMask = (1 << EndpointID);
  903fd9:	c0b1      	movi.n	a11, 1
		/* we are running normally */
		/* update pending credit counts with the number of buffers that were added */
		pHTC->Endpoints[EndpointID].CreditsToReturn += (A_INT16)nbufs;
  903fdb:	b144      	addi.n	a4, a4, 1
  903fdd:	246502        	s16i	a4, a6, 4
		pHTC->Endpoints[EndpointID].CreditsConsumed -= (A_INT16)nbufs;  
  903fe0:	246107        	l16ui	a4, a6, 14
              
	/* enqueue all buffers to the single mailbox */
	HIF_return_recv_buf(pHTC->hifHandle, pHTC->Endpoints[EndpointID].UpLinkPipeID, pBuffers);    
     
	if (pHTC->StateFlags & HTC_STATE_SETUP_COMPLETE) {       
		A_UINT32    epCreditMask = (1 << EndpointID);
  903fe3:	003104        	ssl	a3
  903fe6:	00bb1a        	sll	a11, a11
		/* we are running normally */
		/* update pending credit counts with the number of buffers that were added */
		pHTC->Endpoints[EndpointID].CreditsToReturn += (A_INT16)nbufs;
		pHTC->Endpoints[EndpointID].CreditsConsumed -= (A_INT16)nbufs;  
  903fe9:	b044      	addi.n	a4, a4, -1
  903feb:	246507        	s16i	a4, a6, 14
		/* update bit map that this endpoint has non-zero credits */
		pHTC->EpCreditPendingMap |= epCreditMask; 
  903fee:	242286        	l32i	a4, a2, 0x218
  903ff1:	0b4402        	or	a4, a4, a11
  903ff4:	242686        	s32i	a4, a2, 0x218

		if (sendCreditFlag) {
  903ff7:	c951      	beqz.n	a5, 90400c <ReturnBuffers+0x60>
			HTCCheckAndSendCreditReport(pHTC, epCreditMask,&pHTC->Endpoints[EndpointID],EndpointID);
  903ff9:	da20      	mov.n	a10, a2
  903ffb:	b46c      	addi.n	a12, a6, 4
  903ffd:	dd30      	mov.n	a13, a3
  903fff:	5bffc1        	call8	903f04 <HTCCheckAndSendCreditReport>
  904002:	d10f      	retw.n
	} else {
		/* we have not started yet so all return operations are simply adding buffers
		 * to the interface at startup, so we can keep track of how many total 
		 * credits we get */
		/* update global count that will be returned to the host */
		pHTC->TotalCredits += nbufs;
  904004:	232294        	l32i	a3, a2, 0x250
  904007:	b133      	addi.n	a3, a3, 1
  904009:	232694        	s32i	a3, a2, 0x250
  90400c:	d10f      	retw.n
	...

00904010 <_HTC_ReturnBuffers>:
	HTCCheckAndSendCreditReport(pHTC, (1 << EndpointID),&pHTC->Endpoints[EndpointID],EndpointID);
}

LOCAL void _HTC_ReturnBuffers(htc_handle_t htcHandle, HTC_ENDPOINT_ID EndpointID,
			      adf_nbuf_t pBuffers)
{
  904010:	6c1004        	entry	a1, 32
	ReturnBuffers(htcHandle, EndpointID, pBuffers, TRUE);
  904013:	da20      	mov.n	a10, a2
  904015:	db30      	mov.n	a11, a3
  904017:	dc40      	mov.n	a12, a4
  904019:	c0d1      	movi.n	a13, 1
  90401b:	5bffe4        	call8	903fac <ReturnBuffers>
  90401e:	d10f      	retw.n

00904020 <_HTC_ReturnBuffersList>:
}

LOCAL void _HTC_ReturnBuffersList(htc_handle_t htcHandle,
				  HTC_ENDPOINT_ID EndpointID,
				  adf_nbuf_queue_t bufHead)
{
  904020:	6c1006        	entry	a1, 48
 * @return first buffer in queue
 */
static inline adf_nbuf_t 
adf_nbuf_queue_first(adf_nbuf_queue_t *head)
{
    return (__adf_nbuf_queue_first(head));
  904023:	da10      	mov.n	a10, a1
  904025:	9410      	s32i.n	a4, a1, 0
  904027:	9511      	s32i.n	a5, a1, 4
  904029:	9612      	s32i.n	a6, a1, 8
  90402b:	5bfda9        	call8	9036d0 <__adf_nbuf_queue_first>
  90402e:	d4a0      	mov.n	a4, a10
	adf_nbuf_t netbuf, tmpNbuf;

	/* retrieve each nbuf in the queue */
	netbuf = adf_nbuf_queue_first(&bufHead);

	while (netbuf) {
  904030:	600014        	j	904048 <_HTC_ReturnBuffersList+0x28>
  904033:	00da40        	extui	a10, a0, 13, 1
 * @return next buffer/packet
 */
static inline adf_nbuf_t
adf_nbuf_queue_next(adf_nbuf_t buf)
{
    return (__adf_nbuf_queue_next(buf));
  904036:	5bfda8        	call8	9036d8 <__adf_nbuf_queue_next>
  904039:	d5a0      	mov.n	a5, a10

		tmpNbuf = netbuf;
		netbuf = adf_nbuf_queue_next(netbuf);

		ReturnBuffers(htcHandle, EndpointID, tmpNbuf, FALSE);
  90403b:	dc40      	mov.n	a12, a4
  90403d:	da20      	mov.n	a10, a2
  90403f:	db30      	mov.n	a11, a3
  904041:	c0d0      	movi.n	a13, 0
  904043:	5bffda        	call8	903fac <ReturnBuffers>
	netbuf = adf_nbuf_queue_first(&bufHead);

	while (netbuf) {

		tmpNbuf = netbuf;
		netbuf = adf_nbuf_queue_next(netbuf);
  904046:	d450      	mov.n	a4, a5
	adf_nbuf_t netbuf, tmpNbuf;

	/* retrieve each nbuf in the queue */
	netbuf = adf_nbuf_queue_first(&bufHead);

	while (netbuf) {
  904048:	654fe8        	bnez	a4, 904034 <_HTC_ReturnBuffersList+0x14>
		netbuf = adf_nbuf_queue_next(netbuf);

		ReturnBuffers(htcHandle, EndpointID, tmpNbuf, FALSE);
	}

	HTCCheckAndSendCreditReport(pHTC, (1 << EndpointID),&pHTC->Endpoints[EndpointID],EndpointID);
  90404b:	033c09        	addx2	a12, a3, a3
  90404e:	02cc0b        	addx8	a12, a12, a2
  904051:	c0b1      	movi.n	a11, 1
  904053:	da20      	mov.n	a10, a2
  904055:	003104        	ssl	a3
  904058:	00bb1a        	sll	a11, a11
  90405b:	b4cc      	addi.n	a12, a12, 4
  90405d:	dd30      	mov.n	a13, a3
  90405f:	5bffa9        	call8	903f04 <HTCCheckAndSendCreditReport>
  904062:	d10f      	retw.n

00904064 <HTCProcessConnectMsg>:
	} while (FALSE);      
}
        
/* called in response to the arrival of a service connection message */
LOCAL void HTCProcessConnectMsg(HTC_CONTEXT *pHTC, HTC_CONNECT_SERVICE_MSG *pMsg)
{
  904064:	6c1008        	entry	a1, 64
	HTC_SERVICE *pService = pHTC->pServiceList;
	A_UINT8 connectStatus = HTC_SERVICE_NOT_FOUND;
	adf_nbuf_t pBuffer;
	HTC_CONNECT_SERVICE_RESPONSE_MSG *pRspMsg;
	int metaDataOutLen = 0;
  904067:	c060      	movi.n	a6, 0
  904069:	9610      	s32i.n	a6, a1, 0
	A_UINT16 serviceId = adf_os_ntohs(pMsg->ServiceID);
    
	pBuffer = HTCAllocMsgBuffer(pHTC);
  90406b:	da20      	mov.n	a10, a2
	HTC_SERVICE *pService = pHTC->pServiceList;
	A_UINT8 connectStatus = HTC_SERVICE_NOT_FOUND;
	adf_nbuf_t pBuffer;
	HTC_CONNECT_SERVICE_RESPONSE_MSG *pRspMsg;
	int metaDataOutLen = 0;
	A_UINT16 serviceId = adf_os_ntohs(pMsg->ServiceID);
  90406d:	243003        	l8ui	a4, a3, 3
  904070:	273002        	l8ui	a7, a3, 2
}
        
/* called in response to the arrival of a service connection message */
LOCAL void HTCProcessConnectMsg(HTC_CONTEXT *pHTC, HTC_CONNECT_SERVICE_MSG *pMsg)
{
	HTC_SERVICE *pService = pHTC->pServiceList;
  904073:	252290        	l32i	a5, a2, 0x240
	adf_nbuf_t pBuffer;
	HTC_CONNECT_SERVICE_RESPONSE_MSG *pRspMsg;
	int metaDataOutLen = 0;
	A_UINT16 serviceId = adf_os_ntohs(pMsg->ServiceID);
    
	pBuffer = HTCAllocMsgBuffer(pHTC);
  904076:	5bff84        	call8	903e88 <HTCAllocMsgBuffer>
 *         put, or NULL if there is not enough room in this buf.
 */
static inline a_uint8_t *
adf_nbuf_put_tail(adf_nbuf_t buf, adf_os_size_t size)
{
    return __adf_nbuf_put_tail(buf, size);
  904079:	c0ba      	movi.n	a11, 10
  90407b:	9a14      	s32i.n	a10, a1, 16
  90407d:	5bfd6c        	call8	903630 <__adf_nbuf_put_tail>
	/* note : this will be aligned */
	pRspMsg = (HTC_CONNECT_SERVICE_RESPONSE_MSG *)
                adf_nbuf_put_tail(pBuffer, sizeof(HTC_CONNECT_SERVICE_RESPONSE_MSG));
                                 
	A_MEMZERO(pRspMsg,sizeof(HTC_CONNECT_SERVICE_RESPONSE_MSG));
  904080:	197184        	l32r	a9, 8e0690 <_bss_end+0x3d2e88>
	HTC_SERVICE *pService = pHTC->pServiceList;
	A_UINT8 connectStatus = HTC_SERVICE_NOT_FOUND;
	adf_nbuf_t pBuffer;
	HTC_CONNECT_SERVICE_RESPONSE_MSG *pRspMsg;
	int metaDataOutLen = 0;
	A_UINT16 serviceId = adf_os_ntohs(pMsg->ServiceID);
  904083:	087711        	slli	a7, a7, 8
	pBuffer = HTCAllocMsgBuffer(pHTC);
	/* note : this will be aligned */
	pRspMsg = (HTC_CONNECT_SERVICE_RESPONSE_MSG *)
                adf_nbuf_put_tail(pBuffer, sizeof(HTC_CONNECT_SERVICE_RESPONSE_MSG));
                                 
	A_MEMZERO(pRspMsg,sizeof(HTC_CONNECT_SERVICE_RESPONSE_MSG));
  904086:	8994      	l32i.n	a9, a9, 16
  904088:	db60      	mov.n	a11, a6
  90408a:	c0ca      	movi.n	a12, 10
	HTC_SERVICE *pService = pHTC->pServiceList;
	A_UINT8 connectStatus = HTC_SERVICE_NOT_FOUND;
	adf_nbuf_t pBuffer;
	HTC_CONNECT_SERVICE_RESPONSE_MSG *pRspMsg;
	int metaDataOutLen = 0;
	A_UINT16 serviceId = adf_os_ntohs(pMsg->ServiceID);
  90408c:	074702        	or	a7, a4, a7
  90408f:	d4a0      	mov.n	a4, a10
	pBuffer = HTCAllocMsgBuffer(pHTC);
	/* note : this will be aligned */
	pRspMsg = (HTC_CONNECT_SERVICE_RESPONSE_MSG *)
                adf_nbuf_put_tail(pBuffer, sizeof(HTC_CONNECT_SERVICE_RESPONSE_MSG));
                                 
	A_MEMZERO(pRspMsg,sizeof(HTC_CONNECT_SERVICE_RESPONSE_MSG));
  904091:	0b9000        	callx8	a9
	pRspMsg->MessageID = adf_os_htons(HTC_MSG_CONNECT_SERVICE_RESPONSE_ID);
  904094:	c083      	movi.n	a8, 3
  904096:	284401        	s8i	a8, a4, 1
	/* reflect the service ID for this connect attempt */
	pRspMsg->ServiceID = adf_os_htons(serviceId);
  904099:	078814        	srli	a8, a7, 8
  90409c:	284402        	s8i	a8, a4, 2
	/* note : this will be aligned */
	pRspMsg = (HTC_CONNECT_SERVICE_RESPONSE_MSG *)
                adf_nbuf_put_tail(pBuffer, sizeof(HTC_CONNECT_SERVICE_RESPONSE_MSG));
                                 
	A_MEMZERO(pRspMsg,sizeof(HTC_CONNECT_SERVICE_RESPONSE_MSG));
	pRspMsg->MessageID = adf_os_htons(HTC_MSG_CONNECT_SERVICE_RESPONSE_ID);
  90409f:	264400        	s8i	a6, a4, 0
	/* reflect the service ID for this connect attempt */
	pRspMsg->ServiceID = adf_os_htons(serviceId);
  9040a2:	274403        	s8i	a7, a4, 3

	while (pService) {
        
		if (pHTC->CurrentEpIndex >= ENDPOINT_MAX) {
  9040a5:	c185      	movi.n	a8, 21
	A_MEMZERO(pRspMsg,sizeof(HTC_CONNECT_SERVICE_RESPONSE_MSG));
	pRspMsg->MessageID = adf_os_htons(HTC_MSG_CONNECT_SERVICE_RESPONSE_ID);
	/* reflect the service ID for this connect attempt */
	pRspMsg->ServiceID = adf_os_htons(serviceId);

	while (pService) {
  9040a7:	600079        	j	904124 <HTCProcessConnectMsg+0xc0>
  9040aa:	00002b        	mulsh	a0, a0, a0
        
		if (pHTC->CurrentEpIndex >= ENDPOINT_MAX) {
  9040ad:	22887b        	excw
  9040b0:	827b      	l32i.n	a2, a7, 44
			/* no more endpoints */
			connectStatus = HTC_SERVICE_NO_RESOURCES;
			break;    
		}

		if (serviceId == pService->ServiceID) {
  9040b2:	295108        	l16ui	a9, a5, 16
  9040b5:	779969        	bne	a9, a7, 904122 <HTCProcessConnectMsg+0xbe>
			A_UINT8 *pMetaDataOut;
            
			/* outgoing meta data resides in the space after the response message */
			pMetaDataOut = ((A_UINT8 *)pRspMsg) + sizeof(HTC_CONNECT_SERVICE_RESPONSE_MSG);
            
			if (pMsg->ServiceMetaLength != 0) {
  9040b8:	2d3008        	l8ui	a13, a3, 8
				/* the meta data follows the connect service message */
				pMetaDataIN = ((A_UINT8 *)pMsg) + sizeof(HTC_CONNECT_SERVICE_MSG);
  9040bb:	ba37      	addi.n	a7, a3, 10
  9040bd:	c0c0      	movi.n	a12, 0
  9040bf:	0d7c39        	movnez	a12, a7, a13
			}

			/* call the connect callback with the endpoint to use and pointers to meta data */
			connectStatus = pService->ProcessConnect(pService,
  9040c2:	8753      	l32i.n	a7, a5, 12
  9040c4:	da50      	mov.n	a10, a5
  9040c6:	ba4e      	addi.n	a14, a4, 10
  9040c8:	df10      	mov.n	a15, a1
  9040ca:	0b7000        	callx8	a7
  9040cd:	d8a0      	mov.n	a8, a10
								 pMsg->ServiceMetaLength,
								 pMetaDataOut,
								 &metaDataOutLen);
            
			/* check if the service accepted this connection request */
			if (HTC_SERVICE_SUCCESS == connectStatus) {
  9040cf:	65a05d        	bnez	a10, 904130 <HTCProcessConnectMsg+0xcc>
				/* set the length of the response meta data going back to the host */
				pRspMsg->ServiceMetaLength = (A_UINT8)metaDataOutLen;
  9040d2:	8710      	l32i.n	a7, a1, 0
  9040d4:	274408        	s8i	a7, a4, 8
				/* set the endpoint ID the host will now communicate over */
				pRspMsg->EndpointID = pHTC->CurrentEpIndex;
  9040d7:	272288        	l32i	a7, a2, 0x220
  9040da:	274405        	s8i	a7, a4, 5
				/* return the maximum message size for this service */
				pRspMsg->MaxMsgSize = adf_os_htons((A_UINT16)pService->MaxSvcMsgSize);
  9040dd:	275014        	l8ui	a7, a5, 20
  9040e0:	274406        	s8i	a7, a4, 6
  9040e3:	275015        	l8ui	a7, a5, 21
  9040e6:	274407        	s8i	a7, a4, 7
				/* assign this endpoint to this service, this will be used in routing messages */
				pHTC->Endpoints[pHTC->CurrentEpIndex].pService = pService;
  9040e9:	272288        	l32i	a7, a2, 0x220
  9040ec:	077909        	addx2	a9, a7, a7
  9040ef:	02990b        	addx8	a9, a9, a2
  9040f2:	9592      	s32i.n	a5, a9, 8
				/* set connection flags */
				pHTC->Endpoints[pHTC->CurrentEpIndex].ConnectionFlags = pMsg->ConnectionFlags;
  9040f4:	2a3004        	l8ui	a10, a3, 4
  9040f7:	2b3005        	l8ui	a11, a3, 5
  9040fa:	08aa11        	slli	a10, a10, 8
  9040fd:	0aba02        	or	a10, a11, a10
  904100:	2a9508        	s16i	a10, a9, 16
                
				pHTC->Endpoints[pHTC->CurrentEpIndex].DownLinkPipeID = pMsg->DownLinkPipeID;
  904103:	2a3006        	l8ui	a10, a3, 6
				pHTC->Endpoints[pHTC->CurrentEpIndex].UpLinkPipeID = pMsg->UpLinkPipeID;
                
				/* mark that we are now connected */
				pService->ServiceFlags |= HTC_SERVICE_FLAGS_CONNECTED;
				/* bump up our index, this EP is now in use */
				pHTC->CurrentEpIndex++;   
  904106:	b177      	addi.n	a7, a7, 1
				/* assign this endpoint to this service, this will be used in routing messages */
				pHTC->Endpoints[pHTC->CurrentEpIndex].pService = pService;
				/* set connection flags */
				pHTC->Endpoints[pHTC->CurrentEpIndex].ConnectionFlags = pMsg->ConnectionFlags;
                
				pHTC->Endpoints[pHTC->CurrentEpIndex].DownLinkPipeID = pMsg->DownLinkPipeID;
  904108:	2a9418        	s8i	a10, a9, 24
				pHTC->Endpoints[pHTC->CurrentEpIndex].UpLinkPipeID = pMsg->UpLinkPipeID;
  90410b:	233007        	l8ui	a3, a3, 7
  90410e:	239419        	s8i	a3, a9, 25
                
				/* mark that we are now connected */
				pService->ServiceFlags |= HTC_SERVICE_FLAGS_CONNECTED;
  904111:	295109        	l16ui	a9, a5, 18
  904114:	c031      	movi.n	a3, 1
  904116:	039302        	or	a3, a9, a3
  904119:	235509        	s16i	a3, a5, 18
				/* bump up our index, this EP is now in use */
				pHTC->CurrentEpIndex++;   
  90411c:	272688        	s32i	a7, a2, 0x220
  90411f:	60000d        	j	904130 <HTCProcessConnectMsg+0xcc>
			}

			break;
		}       
        
		pService = pService->pNext;   
  904122:	8550      	l32i.n	a5, a5, 0
	A_MEMZERO(pRspMsg,sizeof(HTC_CONNECT_SERVICE_RESPONSE_MSG));
	pRspMsg->MessageID = adf_os_htons(HTC_MSG_CONNECT_SERVICE_RESPONSE_ID);
	/* reflect the service ID for this connect attempt */
	pRspMsg->ServiceID = adf_os_htons(serviceId);

	while (pService) {
  904124:	655f84        	bnez	a5, 9040ac <HTCProcessConnectMsg+0x48>
        
/* called in response to the arrival of a service connection message */
LOCAL void HTCProcessConnectMsg(HTC_CONTEXT *pHTC, HTC_CONNECT_SERVICE_MSG *pMsg)
{
	HTC_SERVICE *pService = pHTC->pServiceList;
	A_UINT8 connectStatus = HTC_SERVICE_NOT_FOUND;
  904127:	c081      	movi.n	a8, 1
  904129:	600003        	j	904130 <HTCProcessConnectMsg+0xcc>
  90412c:	0000c0        	excw

	while (pService) {
        
		if (pHTC->CurrentEpIndex >= ENDPOINT_MAX) {
			/* no more endpoints */
			connectStatus = HTC_SERVICE_NO_RESOURCES;
  90412f:	8313      	l32i.n	a3, a1, 12
	}
                   
	pRspMsg->Status = connectStatus;    
    
	/* send out the response message */
	HTC_SendMsg(pHTC, ENDPOINT0, pBuffer); 
  904131:	718428        	ball	a8, a1, 90415d <HTCProcessConfigPipeMsg+0x19>
		}       
        
		pService = pService->pNext;   
	}
                   
	pRspMsg->Status = connectStatus;    
  904134:	440423        	excw
    
	/* send out the response message */
	HTC_SendMsg(pHTC, ENDPOINT0, pBuffer); 
  904137:	32898c        	excw
  90413a:	14da20        	l32r	a4, 8fa9bc <memset+0x15820>
  90413d:	c0b0      	movi.n	a11, 0
  90413f:	0b3000        	callx8	a3
  904142:	d10f      	retw.n

00904144 <HTCProcessConfigPipeMsg>:
}

LOCAL void HTCProcessConfigPipeMsg(HTC_CONTEXT *pHTC, HTC_CONFIG_PIPE_MSG *pMsg)
{
  904144:	6c1004        	entry	a1, 32
	adf_nbuf_t pBuffer;
	HTC_CONFIG_PIPE_RESPONSE_MSG *pRspMsg;
        
	pBuffer = HTCAllocMsgBuffer(pHTC);
  904147:	022a02        	or	a10, a2, a2
  90414a:	5bff4f        	call8	903e88 <HTCAllocMsgBuffer>
  90414d:	c0b4      	movi.n	a11, 4
  90414f:	d6a0      	mov.n	a6, a10
  904151:	5bfd37        	call8	903630 <__adf_nbuf_put_tail>
       
	/* note : this will be aligned */
	pRspMsg = (HTC_CONFIG_PIPE_RESPONSE_MSG *)
                adf_nbuf_put_tail(pBuffer, sizeof(HTC_CONFIG_PIPE_RESPONSE_MSG));    
              
	A_MEMZERO(pRspMsg,sizeof(HTC_CONFIG_PIPE_RESPONSE_MSG));
  904154:	157184        	l32r	a5, 8e0764 <_bss_end+0x3d2f5c>
  904157:	c0b0      	movi.n	a11, 0
  904159:	8754      	l32i.n	a7, a5, 16
  90415b:	c0c4      	movi.n	a12, 4
  90415d:	d4a0      	mov.n	a4, a10
  90415f:	0b7000        	callx8	a7
    
	pRspMsg->MessageID = adf_os_htons(HTC_MSG_CONFIG_PIPE_RESPONSE_ID);
  904162:	c086      	movi.n	a8, 6
  904164:	c070      	movi.n	a7, 0
  904166:	274400        	s8i	a7, a4, 0
  904169:	284401        	s8i	a8, a4, 1
	/* reflect the service ID for this connect attempt */
	pRspMsg->PipeID = pMsg->PipeID;
  90416c:	283002        	l8ui	a8, a3, 2
  90416f:	284402        	s8i	a8, a4, 2

	if ( HIF_is_pipe_supported(pHTC->hifHandle, pMsg->PipeID) ) {
  904172:	28527d        	l32i	a8, a5, 0x1f4
  904175:	2a229a        	l32i	a10, a2, 0x268
  904178:	2b3002        	l8ui	a11, a3, 2
  90417b:	0b8000        	callx8	a8
  90417e:	c9a2      	beqz.n	a10, 904194 <HTCProcessConfigPipeMsg+0x50>
		pRspMsg->Status = 0;            
  904180:	274403        	s8i	a7, a4, 3
	} else {
		pRspMsg->Status = 1; 
		goto config_done;
	}

	if ( (pHTC->TotalCreditsAssigned + pMsg->CreditCount) <= pHTC->TotalCredits ) {
  904183:	283003        	l8ui	a8, a3, 3
  904186:	272295        	l32i	a7, a2, 0x254
  904189:	a787      	add.n	a7, a8, a7
  90418b:	282294        	l32i	a8, a2, 0x250
  90418e:	77821e        	blt	a8, a7, 9041b0 <HTCProcessConfigPipeMsg+0x6c>
  904191:	600005        	j	90419a <HTCProcessConfigPipeMsg+0x56>
	pRspMsg->PipeID = pMsg->PipeID;

	if ( HIF_is_pipe_supported(pHTC->hifHandle, pMsg->PipeID) ) {
		pRspMsg->Status = 0;            
	} else {
		pRspMsg->Status = 1; 
  904194:	c031      	movi.n	a3, 1
  904196:	600018        	j	9041b2 <HTCProcessConfigPipeMsg+0x6e>
  904199:	002726        	excw
		goto config_done;
	}

	if ( (pHTC->TotalCreditsAssigned + pMsg->CreditCount) <= pHTC->TotalCredits ) {
		pHTC->TotalCreditsAssigned += pMsg->CreditCount;
  90419c:	9524      	s32i.n	a5, a2, 16
	} else {
		pRspMsg->Status = 2;
		goto config_done;
	}
    
	HIF_config_pipe(pHTC->hifHandle, pMsg->PipeID, pMsg->CreditCount);
  90419e:	527a2a        	call0	8a2a48 <_bss_end+0x395240>
  9041a1:	229a2b        	movi	a2, 0xfffff92b
  9041a4:	30022c        	excw
  9041a7:	30030b        	excw
  9041aa:	400060        	excw
  9041ad:	000500        	syscall
	}

	if ( (pHTC->TotalCreditsAssigned + pMsg->CreditCount) <= pHTC->TotalCredits ) {
		pHTC->TotalCreditsAssigned += pMsg->CreditCount;
	} else {
		pRspMsg->Status = 2;
  9041b0:	c032      	movi.n	a3, 2
  9041b2:	234403        	s8i	a3, a4, 3
    
	HIF_config_pipe(pHTC->hifHandle, pMsg->PipeID, pMsg->CreditCount);
    
config_done:      
	/* send out the response message */
	HTC_SendMsg(pHTC, ENDPOINT0, pBuffer);             
  9041b5:	137184        	l32r	a3, 8e07c8 <_bss_end+0x3d2fc0>
  9041b8:	da20      	mov.n	a10, a2
  9041ba:	233289        	l32i	a3, a3, 0x224
  9041bd:	c0b0      	movi.n	a11, 0
  9041bf:	dc60      	mov.n	a12, a6
  9041c1:	0b3000        	callx8	a3
  9041c4:	d10f      	retw.n
	...

009041c8 <HTCControlSvcProcessMsg>:
}

/* process an incomming control message from the host */
LOCAL void HTCControlSvcProcessMsg(HTC_ENDPOINT_ID EndpointID, adf_nbuf_t hdr_buf,
				   adf_nbuf_t pBuffers, void *arg)
{  
  9041c8:	6c1006        	entry	a1, 48
	a_uint8_t *anbdata;
	a_uint32_t anblen;
	HTC_CONTEXT *pHTC = (HTC_CONTEXT *)arg;
	HTC_UNKNOWN_MSG  *pMsg;
	
	adf_os_assert(hdr_buf == ADF_NBUF_NULL);
  9041cb:	c831      	beqz.n	a3, 9041d0 <HTCControlSvcProcessMsg+0x8>
  9041cd:	63fffc        	j	9041cd <HTCControlSvcProcessMsg+0x5>
 *
 */
static inline void
adf_nbuf_peek_header(adf_nbuf_t buf, a_uint8_t **addr, a_uint32_t *len)
{
    __adf_nbuf_peek_header(buf, addr, len);
  9041d0:	b41b      	addi.n	a11, a1, 4
  9041d2:	da40      	mov.n	a10, a4
  9041d4:	dc10      	mov.n	a12, a1
  9041d6:	5bfd32        	call8	9036a0 <__adf_nbuf_peek_header>

	/* we assume buffers are aligned such that we can access the message
	 * parameters directly*/
	adf_nbuf_peek_header(pBuffers, &anbdata, &anblen);
	pMsg = (HTC_UNKNOWN_MSG *)anbdata;
  9041d9:	8b11      	l32i.n	a11, a1, 4
    
	/* we cannot handle fragmented messages across buffers */
    
	switch ( adf_os_ntohs(pMsg->MessageID) ) {        
  9041db:	28b000        	l8ui	a8, a11, 0
  9041de:	26b001        	l8ui	a6, a11, 1
  9041e1:	088811        	slli	a8, a8, 8
  9041e4:	086802        	or	a8, a6, a8
		break;            
        case HTC_MSG_SETUP_COMPLETE_ID:
                /* the host has indicated that it has completed all
		   setup tasks and we can now let the services take over to
		   run the rest of the application */
		setupComplete = TRUE;  
  9041e7:	c061      	movi.n	a6, 1
	adf_nbuf_peek_header(pBuffers, &anbdata, &anblen);
	pMsg = (HTC_UNKNOWN_MSG *)anbdata;
    
	/* we cannot handle fragmented messages across buffers */
    
	switch ( adf_os_ntohs(pMsg->MessageID) ) {        
  9041e9:	688417        	beqi	a8, 4, 904204 <HTCControlSvcProcessMsg+0x3c>
  9041ec:	68850d        	beqi	a8, 5, 9041fd <HTCControlSvcProcessMsg+0x35>
  9041ef:	688202        	beqi	a8, 2, 9041f5 <HTCControlSvcProcessMsg+0x2d>
  9041f2:	60000c        	j	904202 <HTCControlSvcProcessMsg+0x3a>
        case HTC_MSG_CONNECT_SERVICE_ID:
		HTCProcessConnectMsg(pHTC, (HTC_CONNECT_SERVICE_MSG *)pMsg); 
  9041f5:	da50      	mov.n	a10, a5
  9041f7:	5bff9b        	call8	904064 <HTCProcessConnectMsg>
  9041fa:	600004        	j	904202 <HTCControlSvcProcessMsg+0x3a>
		break;
        case HTC_MSG_CONFIG_PIPE_ID:
		HTCProcessConfigPipeMsg(pHTC, (HTC_CONFIG_PIPE_MSG *)pMsg); 
  9041fd:	da50      	mov.n	a10, a5
  9041ff:	5bffd1        	call8	904144 <HTCProcessConfigPipeMsg>

/* process an incomming control message from the host */
LOCAL void HTCControlSvcProcessMsg(HTC_ENDPOINT_ID EndpointID, adf_nbuf_t hdr_buf,
				   adf_nbuf_t pBuffers, void *arg)
{  
	A_BOOL setupComplete = FALSE;
  904202:	d630      	mov.n	a6, a3
		break;
        default:
		;
	}  
        
	if (pHTC->StateFlags & HTC_STATE_SETUP_COMPLETE) {
  904204:	285292        	l32i	a8, a5, 0x248
  904207:	137184        	l32r	a3, 8e0818 <_bss_end+0x3d3010>
  90420a:	7f8710        	bbci	a8, 31, 90421e <HTCControlSvcProcessMsg+0x56>
		/* recycle buffer only if we are fully running */
		HTC_ReturnBuffers(pHTC, ENDPOINT0,pBuffers);
  90420d:	223287        	l32i	a2, a3, 0x21c
  904210:	da50      	mov.n	a10, a5
  904212:	c0b0      	movi.n	a11, 0
  904214:	dc40      	mov.n	a12, a4
  904216:	0b2000        	callx8	a2
  904219:	60001c        	j	904239 <HTCControlSvcProcessMsg+0x71>
  90421c:	0000c0        	excw
 *         or NULL if there is not enough room in this buf.
 */
static inline a_uint8_t *
adf_nbuf_push_head(adf_nbuf_t buf, adf_os_size_t size)
{
    return __adf_nbuf_push_head(buf, size);
  90421f:	b8da      	addi.n	a10, a13, 8
  904221:	400222        	excw
	} else {
		/* supply some head-room again */
		adf_nbuf_push_head(pBuffers, HTC_HDR_LENGTH);
            
		/* otherwise return the packet back to mbox */
		HIF_return_recv_buf(pHTC->hifHandle, pHTC->Endpoints[EndpointID].UpLinkPipeID, pBuffers);        
  904224:	095bfc        	excw
  904227:	6b0522        	bgei	a0, 5, 90424d <HTCControlSvcProcessMsg+0x85>
  90422a:	0b2332        	sext	a3, a2, 18
  90422d:	7c2a52        	bge	a2, a12, 904283 <AdjustCreditThreshold+0x33>
  904230:	9a2b      	s32i.n	a10, a2, 44
  904232:	2019dc        	l16si	a0, a1, 0x1b8
  904235:	400b30        	excw
  904238:	00c961        	excw
	}

	if (setupComplete) {        
		/* mark that setup has completed */
		pHTC->StateFlags |= HTC_STATE_SETUP_COMPLETE; 
  90423b:	235292        	l32i	a3, a5, 0x248
  90423e:	c021      	movi.n	a2, 1
  904240:	023202        	or	a2, a3, a2
  904243:	225692        	s32i	a2, a5, 0x248
		if (pHTC->SetupCompleteCb != NULL) {
  904246:	225293        	l32i	a2, a5, 0x24c
  904249:	c821      	beqz.n	a2, 90424e <HTCControlSvcProcessMsg+0x86>
			pHTC->SetupCompleteCb();
  90424b:	0b2000        	callx8	a2
  90424e:	d10f      	retw.n

00904250 <AdjustCreditThreshold>:
					  buf, 
					  pHTC->Endpoints[current_eid].pService->ServiceCtx);
}

LOCAL void AdjustCreditThreshold(HTC_ENDPOINT  *pEndpoint)
{
  904250:	6c1004        	entry	a1, 32
	A_INT16 creditsOutstanding = pEndpoint->CreditsToReturn + pEndpoint->CreditsConsumed;
  904253:	292105        	l16ui	a9, a2, 10
  904256:	282100        	l16ui	a8, a2, 0
  904259:	a898      	add.n	a8, a9, a8
        /* set the new threshold based on the number of credits that have been consumed
         * and which have not been returned by the app.
         * Note: it is okay for this threshold to be zero which indicates no threshold 
         * is in use */    
	switch (pEndpoint->ConnectionFlags & HTC_CONNECT_FLAGS_THRESHOLD_LEVEL_MASK) {
  90425b:	292106        	l16ui	a9, a2, 12
					  pHTC->Endpoints[current_eid].pService->ServiceCtx);
}

LOCAL void AdjustCreditThreshold(HTC_ENDPOINT  *pEndpoint)
{
	A_INT16 creditsOutstanding = pEndpoint->CreditsToReturn + pEndpoint->CreditsConsumed;
  90425e:	088832        	sext	a8, a8, 15
        /* set the new threshold based on the number of credits that have been consumed
         * and which have not been returned by the app.
         * Note: it is okay for this threshold to be zero which indicates no threshold 
         * is in use */    
	switch (pEndpoint->ConnectionFlags & HTC_CONNECT_FLAGS_THRESHOLD_LEVEL_MASK) {
  904261:	090941        	extui	a9, a9, 0, 2
  904264:	689108        	beqi	a9, 1, 904270 <AdjustCreditThreshold+0x20>
  904267:	c89e      	beqz.n	a9, 904279 <AdjustCreditThreshold+0x29>
  904269:	69920f        	bnei	a9, 2, 90427c <AdjustCreditThreshold+0x2c>
  90426c:	600006        	j	904276 <AdjustCreditThreshold+0x26>
  90426f:	000818        	src	a8, a0, a0
        case HTC_CONNECT_FLAGS_THRESHOLD_LEVEL_ONE_FOURTH :
		creditsOutstanding >>= 2;
		break;                    
        case HTC_CONNECT_FLAGS_THRESHOLD_LEVEL_ONE_HALF :
		creditsOutstanding >>= 1;
  904272:	126000        	l32r	a2, 8dc274 <_bss_end+0x3cea6c>
		break;
  904275:	050888        	excw
        case HTC_CONNECT_FLAGS_THRESHOLD_LEVEL_THREE_FOURTHS :  
		creditsOutstanding = (creditsOutstanding * 3) >> 2;                  
  904278:	090828        	mull	a8, a0, a9
  90427b:	122825        	l32r	a2, 8ce310 <_bss_end+0x3c0b08>
		break;
		/* default case is unity */    
	}
    
	pEndpoint->CreditReturnThreshhold = creditsOutstanding;
  90427e:	04d10f        	subx8	a1, a13, a4
  904281:	000000        	ill

00904284 <_HTC_SendMsg>:
	ReturnBuffers(htcHandle, EndpointID, pBuffers, TRUE);
}
 
LOCAL void _HTC_SendMsg(htc_handle_t htcHandle, HTC_ENDPOINT_ID EndpointID,
			adf_nbuf_t pBuffers)
{
  904284:	6c1008        	entry	a1, 64
 * @return data pointer to typecast into your priv structure
 */
static inline a_uint8_t *
adf_nbuf_get_priv(adf_nbuf_t buf)
{
    return (__adf_nbuf_get_priv(buf));
  904287:	044a02        	or	a10, a4, a4
  90428a:	5bfc78        	call8	90346c <__adf_nbuf_get_priv>
  90428d:	d6a0      	mov.n	a6, a10
 * @return The total length of this buf.
 */
static inline adf_os_size_t
adf_nbuf_len(adf_nbuf_t buf)
{
    return (__adf_nbuf_len(buf));
  90428f:	da40      	mov.n	a10, a4
  904291:	5bfcfb        	call8	903680 <__adf_nbuf_len>
 *         or NULL if there is not enough room in this buf.
 */
static inline a_uint8_t *
adf_nbuf_push_head(adf_nbuf_t buf, adf_os_size_t size)
{
    return __adf_nbuf_push_head(buf, size);
  904294:	c0b8      	movi.n	a11, 8
 * @return The total length of this buf.
 */
static inline adf_os_size_t
adf_nbuf_len(adf_nbuf_t buf)
{
    return (__adf_nbuf_len(buf));
  904296:	d7a0      	mov.n	a7, a10
 *         or NULL if there is not enough room in this buf.
 */
static inline a_uint8_t *
adf_nbuf_push_head(adf_nbuf_t buf, adf_os_size_t size)
{
    return __adf_nbuf_push_head(buf, size);
  904298:	da40      	mov.n	a10, a4
  90429a:	5bfc4e        	call8	9033d4 <__adf_nbuf_push_head>
	 * Note: in HTCSendDoneHandler(), we undo this so that the caller get's it's buffer
	 * back untainted */   
	pHTCHdr = (HTC_FRAME_HDR *)adf_nbuf_push_head(pBuffers, HTC_HDR_LENGTH);
    
	/* flag that this is the header buffer that was modified */
	ctx->htc_flags |= HTC_FLAGS_BUF_HDR;   
  90429d:	296001        	l8ui	a9, a6, 1
  9042a0:	c480      	movi.n	a8, 64
  9042a2:	089802        	or	a8, a9, a8
  9042a5:	286401        	s8i	a8, a6, 1
	/* mark where this buffer came from */
	ctx->end_point = EndpointID;      
  9042a8:	030847        	extui	a8, a3, 0, 8
  9042ab:	286400        	s8i	a8, a6, 0
	/* the header start is ALWAYS aligned since we DMA it directly */

        /* set some fields, the rest of them will be filled below when we check for
	 * trailer space */
	pHTCHdr->Flags = 0;
  9042ae:	c060      	movi.n	a6, 0
  9042b0:	26a401        	s8i	a6, a10, 1
	pHTCHdr->EndpointID = EndpointID;    
  9042b3:	28a400        	s8i	a8, a10, 0
		HTC_RECORD_HDR    *pRecHdr;
		int               pipeMaxLen;
		A_UINT32          roomForPipeMaxLen;
                          
		/* figure out how much room the last buffer can spare */
		pipeMaxLen = HIF_get_max_msg_len(pHTC->hifHandle,
  9042b6:	167184        	l32r	a6, 8e08c8 <_bss_end+0x3d30c0>
  9042b9:	033809        	addx2	a8, a3, a3
  9042bc:	02880b        	addx8	a8, a8, a2
  9042bf:	2b8018        	l8ui	a11, a8, 24
  9042c2:	26627e        	l32i	a6, a6, 0x1f8
  9042c5:	d5a0      	mov.n	a5, a10
  9042c7:	2a229a        	l32i	a10, a2, 0x268
  9042ca:	0b6000        	callx8	a6
  9042cd:	d6a0      	mov.n	a6, a10
 * @return amount of head room
 */
static inline a_uint32_t
adf_nbuf_headroom(adf_nbuf_t buf)
{
    return (__adf_nbuf_headroom(buf));
  9042cf:	da40      	mov.n	a10, a4
  9042d1:	5bfce1        	call8	903658 <__adf_nbuf_headroom>
						 pHTC->Endpoints[EndpointID].DownLinkPipeID);
		roomForPipeMaxLen = pipeMaxLen - adf_nbuf_headroom(pBuffers) - adf_nbuf_len(pBuffers);
  9042d4:	0a660c        	sub	a6, a6, a10
 * @return The total length of this buf.
 */
static inline adf_os_size_t
adf_nbuf_len(adf_nbuf_t buf)
{
    return (__adf_nbuf_len(buf));
  9042d7:	da40      	mov.n	a10, a4
  9042d9:	5bfce9        	call8	903680 <__adf_nbuf_len>
  9042dc:	0a660c        	sub	a6, a6, a10
 * @return amount of tail room 
 */
static inline a_uint32_t
adf_nbuf_tailroom(adf_nbuf_t buf)
{
    return (__adf_nbuf_tailroom(buf));
  9042df:	da40      	mov.n	a10, a4
  9042e1:	5bfce0        	call8	903664 <__adf_nbuf_tailroom>
		if ( roomForPipeMaxLen < 0 ) {
			roomForPipeMaxLen = 0;
		}
                        
		room = adf_os_min( adf_nbuf_tailroom(pBuffers), roomForPipeMaxLen);
  9042e4:	dd60      	mov.n	a13, a6
  9042e6:	76ab06        	bgeu	a10, a6, 9042f0 <_HTC_SendMsg+0x6c>
  9042e9:	da40      	mov.n	a10, a4
  9042eb:	5bfcde        	call8	903664 <__adf_nbuf_tailroom>
  9042ee:	dda0      	mov.n	a13, a10
		if (room < (int)(sizeof(HTC_CREDIT_REPORT) + sizeof(HTC_RECORD_HDR))) {
  9042f0:	6bd402        	bgei	a13, 4, 9042f6 <_HTC_SendMsg+0x72>
  9042f3:	6000bd        	j	9043b4 <_HTC_SendMsg+0x130>
		/* note, a record header only has 8 bit fields, so this is safe.
		 * we need an uncached pointer here too */            
		totalReportBytes = 0;
        
		/* get a copy */        
		creditsPendingMap = pHTC->EpCreditPendingMap;   
  9042f6:	262286        	l32i	a6, a2, 0x218
                           
		/* test pending map to see if we can send a report , if any
		 * credits are available, we might as well send them on the 
		 * unused space in the buffer */
		if (creditsPendingMap) { 
  9042f9:	6460b7        	beqz	a6, 9043b4 <_HTC_SendMsg+0x130>
 *         put, or NULL if there is not enough room in this buf.
 */
static inline a_uint8_t *
adf_nbuf_put_tail(adf_nbuf_t buf, adf_os_size_t size)
{
    return __adf_nbuf_put_tail(buf, size);
  9042fc:	da40      	mov.n	a10, a4
  9042fe:	c0b2      	movi.n	a11, 2
  904300:	9d15      	s32i.n	a13, a1, 20
  904302:	5bfccb        	call8	903630 <__adf_nbuf_put_tail>
			pRecHdr = (HTC_RECORD_HDR *)adf_nbuf_put_tail(pBuffers,
							      sizeof(HTC_RECORD_HDR));
            
			/* set the ID, the length will be updated with the number of credit reports we
			 * can fit (see below) */
			pRecHdr->RecordID = HTC_RECORD_CREDITS;
  904305:	c081      	movi.n	a8, 1
  904307:	28a400        	s8i	a8, a10, 0
			pRecHdr->Length = 0;
  90430a:	c080      	movi.n	a8, 0
  90430c:	28a401        	s8i	a8, a10, 1
			/* the credit report follows the record header */         
			totalReportBytes += sizeof(HTC_RECORD_HDR);
			room -= sizeof(HTC_RECORD_HDR);
  90430f:	8d15      	l32i.n	a13, a1, 20
  904311:	dea0      	mov.n	a14, a10
  904313:	2ddcfe        	addi	a13, a13, -2
  904316:	dc20      	mov.n	a12, a2
			/* set the ID, the length will be updated with the number of credit reports we
			 * can fit (see below) */
			pRecHdr->RecordID = HTC_RECORD_CREDITS;
			pRecHdr->Length = 0;
			/* the credit report follows the record header */         
			totalReportBytes += sizeof(HTC_RECORD_HDR);
  904318:	c092      	movi.n	a9, 2
			room -= sizeof(HTC_RECORD_HDR);
            
			/* walkthrough pending credits map and build the records */
			for (i = 0; 
  90431a:	c080      	movi.n	a8, 0
  90431c:	600077        	j	904397 <_HTC_SendMsg+0x113>
  90431f:	00c0a1        	excw
			     (creditsPendingMap != 0) && (room >= (int)sizeof(HTC_CREDIT_REPORT)); 
			     i++) {                
				compareMask = (1 << i);
  904322:	008104        	ssl	a8
  904325:	00af1a        	sll	a15, a10
				if (compareMask & creditsPendingMap) {
  904328:	76f066        	bnone	a15, a6, 904392 <_HTC_SendMsg+0x10e>
  90432b:	c0b2      	movi.n	a11, 2
  90432d:	da40      	mov.n	a10, a4
  90432f:	9811      	s32i.n	a8, a1, 4
  904331:	9912      	s32i.n	a9, a1, 8
  904333:	9c14      	s32i.n	a12, a1, 16
  904335:	9d15      	s32i.n	a13, a1, 20
  904337:	9e13      	s32i.n	a14, a1, 12
  904339:	9f10      	s32i.n	a15, a1, 0
  90433b:	5bfcbd        	call8	903630 <__adf_nbuf_put_tail>
									    sizeof(HTC_CREDIT_REPORT));
                                    
					/* clear pending mask, we are going to return all these credits */
					creditsPendingMap &= ~(compareMask);
					/* add this record */
					pCreditRpt->EndpointID = i;
  90433e:	8811      	l32i.n	a8, a1, 4
                        
					pCreditRpt = (HTC_CREDIT_REPORT *)adf_nbuf_put_tail(pBuffers,
									    sizeof(HTC_CREDIT_REPORT));
                                    
					/* clear pending mask, we are going to return all these credits */
					creditsPendingMap &= ~(compareMask);
  904340:	8f10      	l32i.n	a15, a1, 0
					/* add this record */
					pCreditRpt->EndpointID = i;
  904342:	28a400        	s8i	a8, a10, 0
					pCreditRpt->Credits = (A_UINT8)pHTC->Endpoints[i].CreditsToReturn;
  904345:	8c14      	l32i.n	a12, a1, 16
                        
					pCreditRpt = (HTC_CREDIT_REPORT *)adf_nbuf_put_tail(pBuffers,
									    sizeof(HTC_CREDIT_REPORT));
                                    
					/* clear pending mask, we are going to return all these credits */
					creditsPendingMap &= ~(compareMask);
  904347:	c7bf      	movi.n	a11, -1
  904349:	0fbf03        	xor	a15, a11, a15
					/* add this record */
					pCreditRpt->EndpointID = i;
					pCreditRpt->Credits = (A_UINT8)pHTC->Endpoints[i].CreditsToReturn;
  90434c:	2bc102        	l16ui	a11, a12, 4
                        
					pCreditRpt = (HTC_CREDIT_REPORT *)adf_nbuf_put_tail(pBuffers,
									    sizeof(HTC_CREDIT_REPORT));
                                    
					/* clear pending mask, we are going to return all these credits */
					creditsPendingMap &= ~(compareMask);
  90434f:	0f6601        	and	a6, a6, a15
					/* add this record */
					pCreditRpt->EndpointID = i;
					pCreditRpt->Credits = (A_UINT8)pHTC->Endpoints[i].CreditsToReturn;
  904352:	2ba401        	s8i	a11, a10, 1
					/* remove pending credits, we always send deltas */
					pHTC->Endpoints[i].CreditsToReturn = 0; 
  904355:	c0a0      	movi.n	a10, 0
  904357:	2ac502        	s16i	a10, a12, 4
					/* adjust new threshold for this endpoint if needed */
					CHECK_AND_ADJUST_CREDIT_THRESHOLD(&pHTC->Endpoints[i]);
  90435a:	2ac108        	l16ui	a10, a12, 16
  90435d:	8912      	l32i.n	a9, a1, 8
  90435f:	8d15      	l32i.n	a13, a1, 20
  904361:	8e13      	l32i.n	a14, a1, 12
  904363:	7da71a        	bbci	a10, 29, 904381 <_HTC_SendMsg+0xfd>
  904366:	088a09        	addx2	a10, a8, a8
  904369:	02aa0b        	addx8	a10, a10, a2
  90436c:	b4aa      	addi.n	a10, a10, 4
  90436e:	9811      	s32i.n	a8, a1, 4
  904370:	2c1604        	s32i	a12, a1, 16
  904373:	5bffb7        	call8	904250 <AdjustCreditThreshold>
  904376:	8e13      	l32i.n	a14, a1, 12
  904378:	8d15      	l32i.n	a13, a1, 20
  90437a:	8c14      	l32i.n	a12, a1, 16
  90437c:	8912      	l32i.n	a9, a1, 8
  90437e:	281201        	l32i	a8, a1, 4
					/* update this record length */
					pRecHdr->Length += sizeof(HTC_CREDIT_REPORT);
  904381:	2ae001        	l8ui	a10, a14, 1
					room -= sizeof(HTC_CREDIT_REPORT);
  904384:	2ddcfe        	addi	a13, a13, -2
					/* remove pending credits, we always send deltas */
					pHTC->Endpoints[i].CreditsToReturn = 0; 
					/* adjust new threshold for this endpoint if needed */
					CHECK_AND_ADJUST_CREDIT_THRESHOLD(&pHTC->Endpoints[i]);
					/* update this record length */
					pRecHdr->Length += sizeof(HTC_CREDIT_REPORT);
  904387:	b2aa      	addi.n	a10, a10, 2
  904389:	2ae401        	s8i	a10, a14, 1
					room -= sizeof(HTC_CREDIT_REPORT);
					totalReportBytes += sizeof(HTC_CREDIT_REPORT);
  90438c:	299c02        	addi	a9, a9, 2

					if ( room < sizeof(HTC_CREDIT_REPORT) ) {
  90438f:	6ed20a        	bltui	a13, 2, 90439d <_HTC_SendMsg+0x119>
			room -= sizeof(HTC_RECORD_HDR);
            
			/* walkthrough pending credits map and build the records */
			for (i = 0; 
			     (creditsPendingMap != 0) && (room >= (int)sizeof(HTC_CREDIT_REPORT)); 
			     i++) {                
  904392:	b188      	addi.n	a8, a8, 1
  904394:	2ccc18        	addi	a12, a12, 24
			totalReportBytes += sizeof(HTC_RECORD_HDR);
			room -= sizeof(HTC_RECORD_HDR);
            
			/* walkthrough pending credits map and build the records */
			for (i = 0; 
			     (creditsPendingMap != 0) && (room >= (int)sizeof(HTC_CREDIT_REPORT)); 
  904397:	6ad202        	blti	a13, 2, 90439d <_HTC_SendMsg+0x119>
			/* the credit report follows the record header */         
			totalReportBytes += sizeof(HTC_RECORD_HDR);
			room -= sizeof(HTC_RECORD_HDR);
            
			/* walkthrough pending credits map and build the records */
			for (i = 0; 
  90439a:	656f82        	bnez	a6, 904320 <_HTC_SendMsg+0x9c>
					}
				}
			}
            
			/* update new pending credits map */       
			pHTC->EpCreditPendingMap = creditsPendingMap;
  90439d:	262686        	s32i	a6, a2, 0x218
		}
        
		if (totalReportBytes <= 0) {
  9043a0:	6a9110        	blti	a9, 1, 9043b4 <_HTC_SendMsg+0x130>
		 */
        
		/* set header option bytes */ 
		pHTCHdr->ControlBytes[0] = totalReportBytes;
		/* HTC frame contains a trailer */
		pHTCHdr->Flags |= HTC_FLAGS_RECV_TRAILER;
  9043a3:	285001        	l8ui	a8, a5, 1
  9043a6:	c062      	movi.n	a6, 2
  9043a8:	068602        	or	a6, a8, a6
		 * The trailer can have at most 1 credit record with up to 32  reports in the record.
		 * The trailer can have at most 1 lookahead record with only 1 lookahead report in the record.
		 */
        
		/* set header option bytes */ 
		pHTCHdr->ControlBytes[0] = totalReportBytes;
  9043ab:	295404        	s8i	a9, a5, 4
		/* HTC frame contains a trailer */
		pHTCHdr->Flags |= HTC_FLAGS_RECV_TRAILER;
  9043ae:	265401        	s8i	a6, a5, 1
		/* increment total size by the reports we added */
		totsz += totalReportBytes;
  9043b1:	097708        	add	a7, a7, a9
          
	if (totsz == 0) {
	}
    
	/* set length for message (this includes any reports that were added above) */
	pHTCHdr->PayloadLen = adf_os_htons(totsz);  
  9043b4:	07074f        	extui	a7, a7, 0, 16
  9043b7:	078614        	srli	a6, a7, 8
  9043ba:	265402        	s8i	a6, a5, 2
  9043bd:	275403        	s8i	a7, a5, 3
	HIF_send_buffer(pHTC->hifHandle, pHTC->Endpoints[EndpointID].DownLinkPipeID, pBuffers);       
  9043c0:	033309        	addx2	a3, a3, a3
  9043c3:	157184        	l32r	a5, 8e09d4 <_bss_end+0x3d31cc>
  9043c6:	02330b        	addx8	a3, a3, a2
  9043c9:	25527b        	l32i	a5, a5, 0x1ec
  9043cc:	2a229a        	l32i	a10, a2, 0x268
  9043cf:	2b3018        	l8ui	a11, a3, 24
  9043d2:	044c02        	or	a12, a4, a4
  9043d5:	0b5000        	callx8	a5
  9043d8:	d10f      	retw.n
	...

009043dc <HTCMsgRecvHandler>:

}
            
/* callback from the mailbox hardware layer when a full message arrives */
LOCAL void HTCMsgRecvHandler(adf_nbuf_t hdr_buf, adf_nbuf_t buffer, void *context)
{
  9043dc:	6c1008        	entry	a1, 64
	HTC_CONTEXT *pHTC = (HTC_CONTEXT *)context;
	adf_nbuf_t tmp_nbuf;
                
	if (hdr_buf == ADF_NBUF_NULL) {
		/* HTC hdr is not in the hdr_buf */
		tmp_nbuf = buffer;
  9043df:	d530      	mov.n	a5, a3
  9043e1:	022539        	movnez	a5, a2, a2
 *
 */
static inline void
adf_nbuf_peek_header(adf_nbuf_t buf, a_uint8_t **addr, a_uint32_t *len)
{
    __adf_nbuf_peek_header(buf, addr, len);
  9043e4:	da50      	mov.n	a10, a5
  9043e6:	b41b      	addi.n	a11, a1, 4
  9043e8:	dc10      	mov.n	a12, a1
  9043ea:	5bfcad        	call8	9036a0 <__adf_nbuf_peek_header>
	else {
		tmp_nbuf = hdr_buf;
	}
                
	adf_nbuf_peek_header(tmp_nbuf, &anbdata, &anblen);        
	pHTCHdr = (HTC_FRAME_HDR *)anbdata; 
  9043ed:	8911      	l32i.n	a9, a1, 4
	HTC_CONTEXT *pHTC = (HTC_CONTEXT *)context;
	adf_nbuf_t tmp_nbuf;
                
	if (hdr_buf == ADF_NBUF_NULL) {
		/* HTC hdr is not in the hdr_buf */
		tmp_nbuf = buffer;
  9043ef:	d750      	mov.n	a7, a5
	eid = pHTCHdr->EndpointID; 
    
	pEndpoint = &pHTC->Endpoints[eid];
	eidMask = 1 << eid;

	if (pHTCHdr->Flags & HTC_FLAGS_CREDIT_REDISTRIBUTION) {
  9043f1:	259001        	l8ui	a5, a9, 1
	adf_nbuf_peek_header(tmp_nbuf, &anbdata, &anblen);        
	pHTCHdr = (HTC_FRAME_HDR *)anbdata; 
      
	totsz = adf_os_ntohs(pHTCHdr->PayloadLen); 
    
	eid = pHTCHdr->EndpointID; 
  9043f4:	269000        	l8ui	a6, a9, 0
    
	pEndpoint = &pHTC->Endpoints[eid];
	eidMask = 1 << eid;

	if (pHTCHdr->Flags & HTC_FLAGS_CREDIT_REDISTRIBUTION) {
  9043f7:	7d5f76        	bbsi	a5, 29, 904471 <HTCMsgRecvHandler+0x95>
      
	totsz = adf_os_ntohs(pHTCHdr->PayloadLen); 
    
	eid = pHTCHdr->EndpointID; 
    
	pEndpoint = &pHTC->Endpoints[eid];
  9043fa:	066509        	addx2	a5, a6, a6
		 * Byte 0 */
		RedistributeCredit(tmp_nbuf, pHTCHdr->ControlBytes[0]);
		return;
	}

	if (pHTC->StateFlags & HTC_STATE_SETUP_COMPLETE) {
  9043fd:	284292        	l32i	a8, a4, 0x248
      
	totsz = adf_os_ntohs(pHTCHdr->PayloadLen); 
    
	eid = pHTCHdr->EndpointID; 
    
	pEndpoint = &pHTC->Endpoints[eid];
  904400:	04550b        	addx8	a5, a5, a4
  904403:	b455      	addi.n	a5, a5, 4
		 * Byte 0 */
		RedistributeCredit(tmp_nbuf, pHTCHdr->ControlBytes[0]);
		return;
	}

	if (pHTC->StateFlags & HTC_STATE_SETUP_COMPLETE) {
  904405:	7f8707        	bbci	a8, 31, 904410 <HTCMsgRecvHandler+0x34>
		/* after setup we keep track of credit consumption to allow us to
		 * adjust thresholds to reduce credit dribbling */  
		pEndpoint->CreditsConsumed ++;
  904408:	285105        	l16ui	a8, a5, 10
  90440b:	b188      	addi.n	a8, a8, 1
  90440d:	285505        	s16i	a8, a5, 10
	/* from the design document, we put the endpoint into a "host-needs-credit" state
	 * when we receive a frame with the NEED_CREDIT_UPDATE flag set .
	 * if the host received credits through an opportunistic path, then it can
	 * issue a another frame with this bit cleared, this signals the target to clear
	 * the "host-needs-credit" state */    
	if (pHTCHdr->Flags & HTC_FLAGS_NEED_CREDIT_UPDATE) {
  904410:	299001        	l8ui	a9, a9, 1
	totsz = adf_os_ntohs(pHTCHdr->PayloadLen); 
    
	eid = pHTCHdr->EndpointID; 
    
	pEndpoint = &pHTC->Endpoints[eid];
	eidMask = 1 << eid;
  904413:	c081      	movi.n	a8, 1
	/* from the design document, we put the endpoint into a "host-needs-credit" state
	 * when we receive a frame with the NEED_CREDIT_UPDATE flag set .
	 * if the host received credits through an opportunistic path, then it can
	 * issue a another frame with this bit cleared, this signals the target to clear
	 * the "host-needs-credit" state */    
	if (pHTCHdr->Flags & HTC_FLAGS_NEED_CREDIT_UPDATE) {
  904415:	090940        	extui	a9, a9, 0, 1
	totsz = adf_os_ntohs(pHTCHdr->PayloadLen); 
    
	eid = pHTCHdr->EndpointID; 
    
	pEndpoint = &pHTC->Endpoints[eid];
	eidMask = 1 << eid;
  904418:	006104        	ssl	a6
  90441b:	00881a        	sll	a8, a8
  90441e:	2a4285        	l32i	a10, a4, 0x214
	/* from the design document, we put the endpoint into a "host-needs-credit" state
	 * when we receive a frame with the NEED_CREDIT_UPDATE flag set .
	 * if the host received credits through an opportunistic path, then it can
	 * issue a another frame with this bit cleared, this signals the target to clear
	 * the "host-needs-credit" state */    
	if (pHTCHdr->Flags & HTC_FLAGS_NEED_CREDIT_UPDATE) {
  904421:	c997      	beqz.n	a9, 90443c <HTCMsgRecvHandler+0x60>
		/* the host is running low (or is out) of credits on this
		 * endpoint, update mask */
		pHTC->EpHostNeedsCreditMap |= eidMask; 
  904423:	08aa02        	or	a10, a10, a8
		/* check and set new threshold since host has reached a low credit situation */
		CHECK_AND_ADJUST_CREDIT_THRESHOLD(pEndpoint);                          
  904426:	295106        	l16ui	a9, a5, 12
	 * issue a another frame with this bit cleared, this signals the target to clear
	 * the "host-needs-credit" state */    
	if (pHTCHdr->Flags & HTC_FLAGS_NEED_CREDIT_UPDATE) {
		/* the host is running low (or is out) of credits on this
		 * endpoint, update mask */
		pHTC->EpHostNeedsCreditMap |= eidMask; 
  904429:	2a4685        	s32i	a10, a4, 0x214
		/* check and set new threshold since host has reached a low credit situation */
		CHECK_AND_ADJUST_CREDIT_THRESHOLD(pEndpoint);                          
  90442c:	7d971a        	bbci	a9, 29, 90444a <HTCMsgRecvHandler+0x6e>
  90442f:	da50      	mov.n	a10, a5
  904431:	9814      	s32i.n	a8, a1, 16
  904433:	5bff87        	call8	904250 <AdjustCreditThreshold>
  904436:	8814      	l32i.n	a8, a1, 16
  904438:	60000e        	j	90444a <HTCMsgRecvHandler+0x6e>
  90443b:	00c7bf        	excw
	} else {
		/* clear the flag */
		pHTC->EpHostNeedsCreditMap &= ~(eidMask);       
  90443e:	08bb03        	xor	a11, a11, a8
  904441:	0baa01        	and	a10, a10, a11
  904444:	2a4685        	s32i	a10, a4, 0x214
		pEndpoint->CreditReturnThreshhold = 0; 
  904447:	295504        	s16i	a9, a5, 8
 *         or NULL if there is not sufficient data to pull.
 */
static inline a_uint8_t *
adf_nbuf_pull_head(adf_nbuf_t buf, adf_os_size_t size)
{
    return __adf_nbuf_pull_head(buf, size);
  90444a:	da70      	mov.n	a10, a7
  90444c:	c0b8      	movi.n	a11, 8
  90444e:	281604        	s32i	a8, a1, 16
  904451:	5bfbeb        	call8	903400 <__adf_nbuf_pull_head>
	 *        as the result of parsing this message.  In either case, if there are
	 *        pending credits and the host needs them, a credit report will be sent either through 
	 *        the response message trailer or a NULL message through HTC_ReturnBuffers().
	 */       
        
	pEndpoint->pService->ProcessRecvMsg(eid, hdr_buf, buffer, pEndpoint->pService->ServiceCtx);
  904454:	8751      	l32i.n	a7, a5, 4
  904456:	da60      	mov.n	a10, a6
  904458:	8d76      	l32i.n	a13, a7, 24
  90445a:	8971      	l32i.n	a9, a7, 4
  90445c:	db20      	mov.n	a11, a2
  90445e:	033c02        	or	a12, a3, a3
  904461:	0b9000        	callx8	a9

	/* Calls to HTC_ReturnBuffers drives the endpoint credit reporting state machine. 
	 * We do not want to delay credits for too long in the event that the application is 
	 * holding onto buffers for excessive periods of time.  This gives us "some" better
	 * opportunities to send up credits. */
	HTCCheckAndSendCreditReport(pHTC, eidMask, pEndpoint, eid); 
  904464:	8814      	l32i.n	a8, a1, 16
  904466:	da40      	mov.n	a10, a4
  904468:	db80      	mov.n	a11, a8
  90446a:	dc50      	mov.n	a12, a5
  90446c:	dd60      	mov.n	a13, a6
  90446e:	5bfea5        	call8	903f04 <HTCCheckAndSendCreditReport>
  904471:	d10f      	retw.n
	...

00904474 <RedistributeCredit>:
	pEndpoint->CreditReturnThreshhold = creditsOutstanding;
    
}

LOCAL void RedistributeCredit(adf_nbuf_t buf, int toPipeId)
{
  904474:	6c1004        	entry	a1, 32
  904477:	d10f      	retw.n
  904479:	000000        	ill

0090447c <WMIServiceConnect>:
                                 HTC_ENDPOINT_ID eid, 
                                 A_UINT8 *pDataIn, 
                                 int LengthIn,
                                 A_UINT8 *pDataOut,
                                 int *pLengthOut)
{
  90447c:	6c1004        	entry	a1, 32
	WMI_SVC_CONTEXT *pWMI = (WMI_SVC_CONTEXT *)pService->ServiceCtx;
    
        /* save the eid to use */
	pWMI->ControlEp = eid;
  90447f:	8826      	l32i.n	a8, a2, 24
  904481:	938a      	s32i.n	a3, a8, 40
	return HTC_SERVICE_SUCCESS;
}
  904483:	c020      	movi.n	a2, 0
  904485:	d10f      	retw.n
	...

00904488 <_WMI_GetPendingEventsCount>:
    
	return pWMI;
}

static int _WMI_GetPendingEventsCount(wmi_handle_t handle)
{
  904488:	6c1004        	entry	a1, 32
	WMI_SVC_CONTEXT *pWMI = (WMI_SVC_CONTEXT *)handle;
	return pWMI->PendingEvents;
}
  90448b:	8222      	l32i.n	a2, a2, 8
  90448d:	d10f      	retw.n
	...

00904490 <_WMI_GetControlEp>:

static int  _WMI_GetControlEp(wmi_handle_t handle)
{
  904490:	6c1004        	entry	a1, 32
	WMI_SVC_CONTEXT *pWMI = (WMI_SVC_CONTEXT *)handle;
	return pWMI->ControlEp;
}
  904493:	822a      	l32i.n	a2, a2, 40
  904495:	d10f      	retw.n
	...

00904498 <_WMI_RegisterDispatchTable>:

static void _WMI_RegisterDispatchTable(wmi_handle_t handle,
				       WMI_DISPATCH_TABLE *pDispatchTable)
{
  904498:	6c1004        	entry	a1, 32
	WMI_SVC_CONTEXT *pWMI = (WMI_SVC_CONTEXT *)handle;
    
	if (NULL == pWMI->pDispatchHead) {
  90449b:	882b      	l32i.n	a8, a2, 44
  90449d:	cc83      	bnez.n	a8, 9044a4 <_WMI_RegisterDispatchTable+0xc>
		pWMI->pDispatchHead = pDispatchTable;
  90449f:	932b      	s32i.n	a3, a2, 44
  9044a1:	600003        	j	9044a8 <_WMI_RegisterDispatchTable+0x10>
		pWMI->pDispatchTail = pDispatchTable;        
	} else {
		/* link to the tail */
		pWMI->pDispatchTail->pNext = pDispatchTable;
  9044a4:	882c      	l32i.n	a8, a2, 48
  9044a6:	9380      	s32i.n	a3, a8, 0
		pWMI->pDispatchTail = pDispatchTable;        
  9044a8:	932c      	s32i.n	a3, a2, 48
  9044aa:	d10f      	retw.n

009044ac <_WMI_Shutdown>:
	
	HTC_SendMsg(pWMI->HtcHandle, pWMI->ControlEp, pEvt);    
}

static void _WMI_Shutdown(wmi_handle_t handle)
{
  9044ac:	6c1004        	entry	a1, 32
  9044af:	d10f      	retw.n
  9044b1:	000000        	ill

009044b4 <WMIRecvMessageHandler>:

#include "wmi_internal.h"

static void WMIRecvMessageHandler(HTC_ENDPOINT_ID EndPt, adf_nbuf_t hdr_buf,
				  adf_nbuf_t pHTCBuf, void *arg)
{
  9044b4:	6c1006        	entry	a1, 48
	int length;
	a_uint8_t *anbdata;
	a_uint32_t anblen;
	WMI_CMD_HDR *cmdHdr;
            
	adf_os_assert(hdr_buf == ADF_NBUF_NULL);
  9044b7:	c832      	beqz.n	a3, 9044bd <WMIRecvMessageHandler+0x9>
  9044b9:	63fffc        	j	9044b9 <WMIRecvMessageHandler+0x5>
  9044bc:	00da40        	extui	a10, a0, 13, 1
 * @return The total length of this buf.
 */
static inline adf_os_size_t
adf_nbuf_len(adf_nbuf_t buf)
{
    return (__adf_nbuf_len(buf));
  9044bf:	5bfc70        	call8	903680 <__adf_nbuf_len>
  9044c2:	d3a0      	mov.n	a3, a10

	do {
		length = adf_nbuf_len(pHTCBuf);
		if (length < sizeof(WMI_CMD_HDR)) {
  9044c4:	6ea465        	bltui	a10, 4, 90452d <WMIRecvMessageHandler+0x79>
 *
 */
static inline void
adf_nbuf_peek_header(adf_nbuf_t buf, a_uint8_t **addr, a_uint32_t *len)
{
    __adf_nbuf_peek_header(buf, addr, len);
  9044c7:	b41b      	addi.n	a11, a1, 4
  9044c9:	dc10      	mov.n	a12, a1
  9044cb:	da40      	mov.n	a10, a4
  9044cd:	5bfc74        	call8	9036a0 <__adf_nbuf_peek_header>
		adf_nbuf_peek_header(pHTCBuf, &anbdata, &anblen);
        
		pCurrentTable = pWMI->pDispatchHead;
		length = length - sizeof(WMI_CMD_HDR);
        
		cmdHdr = (WMI_CMD_HDR *)anbdata;
  9044d0:	8d11      	l32i.n	a13, a1, 4
		}

		adf_nbuf_peek_header(pHTCBuf, &anbdata, &anblen);
        
		pCurrentTable = pWMI->pDispatchHead;
		length = length - sizeof(WMI_CMD_HDR);
  9044d2:	2e3cfc        	addi	a14, a3, -4
        
		cmdHdr = (WMI_CMD_HDR *)anbdata;
		cmd = adf_os_ntohs(cmdHdr->commandId);
  9044d5:	2bd000        	l8ui	a11, a13, 0
  9044d8:	23d001        	l8ui	a3, a13, 1
		seq = adf_os_ntohs(cmdHdr->seqNo);
  9044db:	2cd002        	l8ui	a12, a13, 2
        
		pCurrentTable = pWMI->pDispatchHead;
		length = length - sizeof(WMI_CMD_HDR);
        
		cmdHdr = (WMI_CMD_HDR *)anbdata;
		cmd = adf_os_ntohs(cmdHdr->commandId);
  9044de:	08bb11        	slli	a11, a11, 8
  9044e1:	0b3b02        	or	a11, a3, a11
		seq = adf_os_ntohs(cmdHdr->seqNo);
  9044e4:	23d003        	l8ui	a3, a13, 3
  9044e7:	08cc11        	slli	a12, a12, 8
			break;    
		}

		adf_nbuf_peek_header(pHTCBuf, &anbdata, &anblen);
        
		pCurrentTable = pWMI->pDispatchHead;
  9044ea:	885b      	l32i.n	a8, a5, 44
		length = length - sizeof(WMI_CMD_HDR);
        
		cmdHdr = (WMI_CMD_HDR *)anbdata;
		cmd = adf_os_ntohs(cmdHdr->commandId);
		seq = adf_os_ntohs(cmdHdr->seqNo);
  9044ec:	0c3c02        	or	a12, a3, a12
        
		pCmdBuffer = anbdata + sizeof(WMI_CMD_HDR); 
  9044ef:	b4dd      	addi.n	a13, a13, 4
		pCmdHandler = NULL;
        
		while (pCurrentTable != NULL) {
  9044f1:	600035        	j	90452a <WMIRecvMessageHandler+0x76>
            
			pContext = pCurrentTable->pContext;
  9044f4:	8a81      	l32i.n	a10, a8, 4
			pCurrentEntry = pCurrentTable->pTable;
  9044f6:	8983      	l32i.n	a9, a8, 12
        
			/* scan table entries */
			for (i = 0; i < pCurrentTable->NumberOfEntries; i++, pCurrentEntry++) {
  9044f8:	8382      	l32i.n	a3, a8, 8
  9044fa:	c0f0      	movi.n	a15, 0
  9044fc:	600018        	j	904518 <WMIRecvMessageHandler+0x64>
  9044ff:	002691        	excw
				if (pCurrentEntry->CmdID == cmd) {
  904502:	027b69        	excw
  904505:	0d2391        	excw
					/* found a match */
					pCmdHandler = pCurrentEntry->pCmdHandler;
        
					/* optionally check length */
					if ((pCurrentEntry->CheckLength != 0) &&
  904508:	038f90        	l32e	a3, a8, -4
  90450b:	c931      	beqz.n	a3, 904520 <WMIRecvMessageHandler+0x6c>
  90450d:	73e217        	blt	a14, a3, 904528 <WMIRecvMessageHandler+0x74>
  904510:	60000c        	j	904520 <WMIRecvMessageHandler+0x6c>
  904513:	00b1ff        	excw
            
			pContext = pCurrentTable->pContext;
			pCurrentEntry = pCurrentTable->pTable;
        
			/* scan table entries */
			for (i = 0; i < pCurrentTable->NumberOfEntries; i++, pCurrentEntry++) {
  904516:	b899      	addi.n	a9, a9, 8
  904518:	73f2e4        	blt	a15, a3, 904500 <WMIRecvMessageHandler+0x4c>
  90451b:	600009        	j	904528 <WMIRecvMessageHandler+0x74>
  90451e:	0000c8        	excw
					/* end search */                
					break;    
				}                        
			} 
            
			if (pCmdHandler != NULL) {
  904521:	f4          	.byte 0xf4
		}
            
		/* if we get here, we have a command handler to dispatch */
                
		/* call dispatch function */
		pCmdHandler(pContext, cmd, seq, pCmdBuffer, length);
  904522:	0bf000        	callx8	a15
  904525:	600004        	j	90452d <WMIRecvMessageHandler+0x79>
				/* found a handler */
				break;
			}
                
			/* scan next table */
			pCurrentTable = pCurrentTable->pNext;
  904528:	8880      	l32i.n	a8, a8, 0
		seq = adf_os_ntohs(cmdHdr->seqNo);
        
		pCmdBuffer = anbdata + sizeof(WMI_CMD_HDR); 
		pCmdHandler = NULL;
        
		while (pCurrentTable != NULL) {
  90452a:	658fc6        	bnez	a8, 9044f4 <WMIRecvMessageHandler+0x40>
        /* Invalidate the buffer (including HTC header). Note : we only need to invalidate up to the portion
	 * that was used (cache invalidate will also round up to the nearest cache line).  
	 * The rest of the buffer should still be coherent.
	 * */

	HTC_ReturnBuffers(pWMI->HtcHandle, EndPt, pHTCBuf);         
  90452d:	137184        	l32r	a3, 8e0b40 <_bss_end+0x3d3338>
  904530:	8a50      	l32i.n	a10, a5, 0
  904532:	233287        	l32i	a3, a3, 0x21c
  904535:	db20      	mov.n	a11, a2
  904537:	dc40      	mov.n	a12, a4
  904539:	0b3000        	callx8	a3
  90453c:	d10f      	retw.n
	...

00904540 <_WMI_SendCompleteHandler>:
}

/* send completion handler when any HTC buffers are returned */
static void _WMI_SendCompleteHandler(HTC_ENDPOINT_ID Endpt, adf_nbuf_t pHTCBuf, void *arg)
{
  904540:	6c1004        	entry	a1, 32
 * @return data pointer to typecast into your priv structure
 */
static inline a_uint8_t *
adf_nbuf_get_priv(adf_nbuf_t buf)
{
    return (__adf_nbuf_get_priv(buf));
  904543:	da30      	mov.n	a10, a3
  904545:	5bfbc9        	call8	90346c <__adf_nbuf_get_priv>
		poolId = POOL_ID_WMI_SVC_EVENT;
	} else {
		poolId = POOL_ID_WMI_SVC_CMD_REPLY;
	}
        
	BUF_Pool_free_buf(pWMI->PoolHandle, poolId, pHTCBuf);
  904548:	187184        	l32r	a8, 8e0b58 <_bss_end+0x3d3350>
	WMI_BUF_CONTEXT *ctx;
	BUF_POOL_ID poolId;
    
	ctx = (WMI_BUF_CONTEXT *)adf_nbuf_get_priv(pHTCBuf);
        
	if ( ctx->EventClass == WMI_EVT_CLASS_CMD_EVENT ) {
  90454b:	8ca1      	l32i.n	a12, a10, 4
		poolId = POOL_ID_WMI_SVC_EVENT;
	} else {
		poolId = POOL_ID_WMI_SVC_CMD_REPLY;
	}
        
	BUF_Pool_free_buf(pWMI->PoolHandle, poolId, pHTCBuf);
  90454d:	c092      	movi.n	a9, 2
  90454f:	2882a3        	l32i	a8, a8, 0x28c
  904552:	8a41      	l32i.n	a10, a4, 4
  904554:	c0b1      	movi.n	a11, 1
  904556:	0c9b38        	moveqz	a11, a9, a12
  904559:	dc30      	mov.n	a12, a3
  90455b:	0b8000        	callx8	a8
  90455e:	d10f      	retw.n

00904560 <_WMI_AllocEvent>:
	}
}

static adf_nbuf_t _WMI_AllocEvent(wmi_handle_t handle, WMI_EVT_CLASS EventClass,
				  int Length)
{     
  904560:	6c1004        	entry	a1, 32
		poolId = POOL_ID_WMI_SVC_EVENT;
	} else {
		poolId = POOL_ID_WMI_SVC_CMD_REPLY;
	}
    
	buf = BUF_Pool_alloc_buf(pWMI->PoolHandle, 
  904563:	187184        	l32r	a8, 8e0b74 <_bss_end+0x3d336c>
	WMI_SVC_CONTEXT *pWMI = (WMI_SVC_CONTEXT *)handle;
	adf_nbuf_t buf;
	WMI_BUF_CONTEXT *ctx;
    
	if ( EventClass == WMI_EVT_CLASS_CMD_EVENT ) {
		poolId = POOL_ID_WMI_SVC_EVENT;
  904566:	c051      	movi.n	a5, 1
  904568:	c042      	movi.n	a4, 2
  90456a:	035439        	movnez	a4, a5, a3
	} else {
		poolId = POOL_ID_WMI_SVC_CMD_REPLY;
	}
    
	buf = BUF_Pool_alloc_buf(pWMI->PoolHandle, 
  90456d:	8a20      	l32i.n	a10, a2, 0
  90456f:	2582a1        	l32i	a5, a8, 0x284
  904572:	28828a        	l32i	a8, a8, 0x228
  904575:	8621      	l32i.n	a6, a2, 4
  904577:	0b8000        	callx8	a8
  90457a:	b4ac      	addi.n	a12, a10, 4
  90457c:	044b02        	or	a11, a4, a4
  90457f:	066a02        	or	a10, a6, a6
  904582:	0b5000        	callx8	a5
  904585:	d2a0      	mov.n	a2, a10
				 poolId, 
				 sizeof(WMI_CMD_HDR) + HTC_GetReservedHeadroom(pWMI->HtcHandle));
     
	if ( buf != NULL ) {
  904587:	c8a3      	beqz.n	a10, 90458e <_WMI_AllocEvent+0x2e>
  904589:	5bfbb8        	call8	90346c <__adf_nbuf_get_priv>
		ctx = (WMI_BUF_CONTEXT *)adf_nbuf_get_priv(buf);
		ctx->EventClass = EventClass;
  90458c:	93a1      	s32i.n	a3, a10, 4
	}
	return buf;
}
  90458e:	d10f      	retw.n

00904590 <_WMI_SendEvent>:

static void _WMI_SendEvent(wmi_handle_t handle, adf_nbuf_t pEvt, 
                           A_UINT16 EventId, A_UINT16 SeqNo, int Length)
{
  904590:	6c1004        	entry	a1, 32
 *         or NULL if there is not enough room in this buf.
 */
static inline a_uint8_t *
adf_nbuf_push_head(adf_nbuf_t buf, adf_os_size_t size)
{
    return __adf_nbuf_push_head(buf, size);
  904593:	033a02        	or	a10, a3, a3
  904596:	2b0a04        	movi	a11, 4
  904599:	5bfb8e        	call8	9033d4 <__adf_nbuf_push_head>
  90459c:	04044f        	extui	a4, a4, 0, 16
  90459f:	05054f        	extui	a5, a5, 0, 16
	WMI_SVC_CONTEXT *pWMI = (WMI_SVC_CONTEXT *)handle;
	A_UINT8 *pBuffer;
        
	pBuffer = adf_nbuf_push_head(pEvt, sizeof(WMI_CMD_HDR));
	A_SET_UINT16_FIELD(pBuffer, WMI_CMD_HDR, commandId, adf_os_htons(EventId));        
  9045a2:	24a401        	s8i	a4, a10, 1
  9045a5:	048814        	srli	a8, a4, 8
	A_SET_UINT16_FIELD(pBuffer, WMI_CMD_HDR, seqNo, adf_os_htons(SeqNo));
  9045a8:	058414        	srli	a4, a5, 8
  9045ab:	24a402        	s8i	a4, a10, 2
	
	HTC_SendMsg(pWMI->HtcHandle, pWMI->ControlEp, pEvt);    
  9045ae:	147184        	l32r	a4, 8e0bc0 <_bss_end+0x3d33b8>
{
	WMI_SVC_CONTEXT *pWMI = (WMI_SVC_CONTEXT *)handle;
	A_UINT8 *pBuffer;
        
	pBuffer = adf_nbuf_push_head(pEvt, sizeof(WMI_CMD_HDR));
	A_SET_UINT16_FIELD(pBuffer, WMI_CMD_HDR, commandId, adf_os_htons(EventId));        
  9045b1:	28a400        	s8i	a8, a10, 0
	A_SET_UINT16_FIELD(pBuffer, WMI_CMD_HDR, seqNo, adf_os_htons(SeqNo));
  9045b4:	25a403        	s8i	a5, a10, 3
	
	HTC_SendMsg(pWMI->HtcHandle, pWMI->ControlEp, pEvt);    
  9045b7:	244289        	l32i	a4, a4, 0x224
  9045ba:	8a20      	l32i.n	a10, a2, 0
  9045bc:	8b2a      	l32i.n	a11, a2, 40
  9045be:	033c02        	or	a12, a3, a3
  9045c1:	0b4000        	callx8	a4
  9045c4:	d10f      	retw.n
	...

009045c8 <_WMI_Init>:
}

/**************  public APIS ********************************************/
    
static wmi_handle_t _WMI_Init(WMI_SVC_CONFIG *pWmiConfig)
{
  9045c8:	6c1004        	entry	a1, 32
#include "Magpie_api.h"

static inline void *	__adf_os_mem_alloc(adf_os_size_t size)
{
//    return (malloc(size,M_DEVBUF,M_DONTWAIT | M_ZERO));
    return A_ALLOCRAM(size);
  9045cb:	137184        	l32r	a3, 8e0bdc <_bss_end+0x3d33d4>
  9045ce:	d420      	mov.n	a4, a2
  9045d0:	223252        	l32i	a2, a3, 0x148
  9045d3:	c0a0      	movi.n	a10, 0
  9045d5:	c3b8      	movi.n	a11, 56
  9045d7:	0b2000        	callx8	a2
  9045da:	d2a0      	mov.n	a2, a10
	WMI_SVC_CONTEXT *pWMI = NULL;
	int eventSize = WMI_SVC_MAX_BUFFERED_EVENT_SIZE + sizeof(WMI_CMD_HDR) + HTC_HDR_SZ;
    
	pWMI = (WMI_SVC_CONTEXT *)adf_os_mem_alloc(sizeof(WMI_SVC_CONTEXT));
	if (pWMI == NULL) {
  9045dc:	64a055        	beqz	a10, 904635 <_WMI_Init+0x6d>
		return NULL;    
	}
        
	pWMI->pDispatchHead = NULL;
  9045df:	c080      	movi.n	a8, 0
  9045e1:	98ab      	s32i.n	a8, a10, 44
	pWMI->PoolHandle = pWmiConfig->PoolHandle;
	pWMI->HtcHandle = pWmiConfig->HtcHandle;    
  9045e3:	8840      	l32i.n	a8, a4, 0
	if (pWMI == NULL) {
		return NULL;    
	}
        
	pWMI->pDispatchHead = NULL;
	pWMI->PoolHandle = pWmiConfig->PoolHandle;
  9045e5:	8a41      	l32i.n	a10, a4, 4
	pWMI->HtcHandle = pWmiConfig->HtcHandle;    
                                         
	BUF_Pool_create_pool(pWmiConfig->PoolHandle, POOL_ID_WMI_SVC_CMD_REPLY, 
  9045e7:	8c42      	l32i.n	a12, a4, 8
		return NULL;    
	}
        
	pWMI->pDispatchHead = NULL;
	pWMI->PoolHandle = pWmiConfig->PoolHandle;
	pWMI->HtcHandle = pWmiConfig->HtcHandle;    
  9045e9:	9820      	s32i.n	a8, a2, 0
                                         
	BUF_Pool_create_pool(pWmiConfig->PoolHandle, POOL_ID_WMI_SVC_CMD_REPLY, 
  9045eb:	2832a0        	l32i	a8, a3, 0x280
	if (pWMI == NULL) {
		return NULL;    
	}
        
	pWMI->pDispatchHead = NULL;
	pWMI->PoolHandle = pWmiConfig->PoolHandle;
  9045ee:	9a21      	s32i.n	a10, a2, 4
	pWMI->HtcHandle = pWmiConfig->HtcHandle;    
                                         
	BUF_Pool_create_pool(pWmiConfig->PoolHandle, POOL_ID_WMI_SVC_CMD_REPLY, 
  9045f0:	2b0a01        	movi	a11, 1
  9045f3:	2d0a70        	movi	a13, 112
  9045f6:	0b8000        	callx8	a8
			     pWmiConfig->MaxCmdReplyEvts, eventSize);
        
	BUF_Pool_create_pool(pWmiConfig->PoolHandle, POOL_ID_WMI_SVC_EVENT, 
  9045f9:	2832a0        	l32i	a8, a3, 0x280
  9045fc:	8a41      	l32i.n	a10, a4, 4
  9045fe:	8c43      	l32i.n	a12, a4, 12
  904600:	c0b2      	movi.n	a11, 2
  904602:	2d0a70        	movi	a13, 112
  904605:	0b8000        	callx8	a8
            
	/* NOTE: since RAM allocation is zero-initialized, there is nothing to do for the 
	 * direct event pool */
     
        /* register the WMI control service */
	pWMI->WMIControlService.ProcessRecvMsg = A_INDIR(wmi_svc_api._WMI_RecvMessageHandler);
  904608:	283298        	l32i	a8, a3, 0x260
         * in size.  Any WMI event that supplies a data buffer must insure that the space in the buffer
         * is at least this size. */
	pWMI->WMIControlService.TrailerSpcCheckLimit = WMI_SVC_MAX_BUFFERED_EVENT_SIZE; 
	pWMI->WMIControlService.ServiceID = WMI_CONTROL_SVC;
	pWMI->WMIControlService.ServiceCtx = pWMI;
	HTC_RegisterService(pWmiConfig->HtcHandle, &pWMI->WMIControlService);
  90460b:	8a40      	l32i.n	a10, a4, 0
            
	/* NOTE: since RAM allocation is zero-initialized, there is nothing to do for the 
	 * direct event pool */
     
        /* register the WMI control service */
	pWMI->WMIControlService.ProcessRecvMsg = A_INDIR(wmi_svc_api._WMI_RecvMessageHandler);
  90460d:	9824      	s32i.n	a8, a2, 16
	pWMI->WMIControlService.ProcessSendBufferComplete = A_INDIR(wmi_svc_api._WMI_SendCompleteHandler);
  90460f:	283295        	l32i	a8, a3, 0x254
         * in size.  Any WMI event that supplies a data buffer must insure that the space in the buffer
         * is at least this size. */
	pWMI->WMIControlService.TrailerSpcCheckLimit = WMI_SVC_MAX_BUFFERED_EVENT_SIZE; 
	pWMI->WMIControlService.ServiceID = WMI_CONTROL_SVC;
	pWMI->WMIControlService.ServiceCtx = pWMI;
	HTC_RegisterService(pWmiConfig->HtcHandle, &pWMI->WMIControlService);
  904612:	bc2b      	addi.n	a11, a2, 12
	/* NOTE: since RAM allocation is zero-initialized, there is nothing to do for the 
	 * direct event pool */
     
        /* register the WMI control service */
	pWMI->WMIControlService.ProcessRecvMsg = A_INDIR(wmi_svc_api._WMI_RecvMessageHandler);
	pWMI->WMIControlService.ProcessSendBufferComplete = A_INDIR(wmi_svc_api._WMI_SendCompleteHandler);
  904614:	9825      	s32i.n	a8, a2, 20
	pWMI->WMIControlService.ProcessConnect = A_INDIR(wmi_svc_api._WMI_ServiceConnect);
  904616:	283299        	l32i	a8, a3, 0x264
         * in size.  Any WMI event that supplies a data buffer must insure that the space in the buffer
         * is at least this size. */
	pWMI->WMIControlService.TrailerSpcCheckLimit = WMI_SVC_MAX_BUFFERED_EVENT_SIZE; 
	pWMI->WMIControlService.ServiceID = WMI_CONTROL_SVC;
	pWMI->WMIControlService.ServiceCtx = pWMI;
	HTC_RegisterService(pWmiConfig->HtcHandle, &pWMI->WMIControlService);
  904619:	233285        	l32i	a3, a3, 0x214
	 * direct event pool */
     
        /* register the WMI control service */
	pWMI->WMIControlService.ProcessRecvMsg = A_INDIR(wmi_svc_api._WMI_RecvMessageHandler);
	pWMI->WMIControlService.ProcessSendBufferComplete = A_INDIR(wmi_svc_api._WMI_SendCompleteHandler);
	pWMI->WMIControlService.ProcessConnect = A_INDIR(wmi_svc_api._WMI_ServiceConnect);
  90461c:	9826      	s32i.n	a8, a2, 24
	pWMI->WMIControlService.MaxSvcMsgSize = WMI_SVC_MSG_SIZE + sizeof(WMI_CMD_HDR);
  90461e:	286a04        	movi	a8, 0x604
  904621:	282510        	s16i	a8, a2, 32
        /* all buffers that are sent through the control endpoint are at least WMI_SVC_MAX_BUFFERED_EVENT_SIZE 
         * in size.  Any WMI event that supplies a data buffer must insure that the space in the buffer
         * is at least this size. */
	pWMI->WMIControlService.TrailerSpcCheckLimit = WMI_SVC_MAX_BUFFERED_EVENT_SIZE; 
  904624:	280a64        	movi	a8, 100
  904627:	282511        	s16i	a8, a2, 34
	pWMI->WMIControlService.ServiceID = WMI_CONTROL_SVC;
  90462a:	281a00        	movi	a8, 0x100
  90462d:	28250e        	s16i	a8, a2, 28
	pWMI->WMIControlService.ServiceCtx = pWMI;
  904630:	9229      	s32i.n	a2, a2, 36
	HTC_RegisterService(pWmiConfig->HtcHandle, &pWMI->WMIControlService);
  904632:	0b3000        	callx8	a3
    
	return pWMI;
}
  904635:	d10f      	retw.n
	...

00904638 <WMI_service_module_install>:

	adf_os_mem_free(pWMI);
}

void WMI_service_module_install(WMI_SVC_APIS *pTbl)
{
  904638:	6c1004        	entry	a1, 32
	pTbl->_WMI_Init                     = _WMI_Init;
  90463b:	1871fc        	l32r	a8, 8e0e2c <_bss_end+0x3d3624>
  90463e:	9820      	s32i.n	a8, a2, 0
	pTbl->_WMI_RegisterDispatchTable    = _WMI_RegisterDispatchTable;
  904640:	1871fd        	l32r	a8, 8e0e34 <_bss_end+0x3d362c>
  904643:	9821      	s32i.n	a8, a2, 4
	pTbl->_WMI_AllocEvent               = _WMI_AllocEvent;
  904645:	1871fe        	l32r	a8, 8e0e40 <_bss_end+0x3d3638>
  904648:	9822      	s32i.n	a8, a2, 8
	pTbl->_WMI_SendEvent                = _WMI_SendEvent;
  90464a:	1871ff        	l32r	a8, 8e0e48 <_bss_end+0x3d3640>
  90464d:	9823      	s32i.n	a8, a2, 12
	pTbl->_WMI_SendCompleteHandler      = _WMI_SendCompleteHandler;
  90464f:	187200        	l32r	a8, 8e0e50 <_bss_end+0x3d3648>
  904652:	9825      	s32i.n	a8, a2, 20
	pTbl->_WMI_GetPendingEventsCount    = _WMI_GetPendingEventsCount;
  904654:	187201        	l32r	a8, 8e0e58 <_bss_end+0x3d3650>
  904657:	9824      	s32i.n	a8, a2, 16
	pTbl->_WMI_GetControlEp             = _WMI_GetControlEp;
  904659:	187202        	l32r	a8, 8e0e64 <_bss_end+0x3d365c>
  90465c:	9826      	s32i.n	a8, a2, 24
	pTbl->_WMI_Shutdown                 = _WMI_Shutdown;
  90465e:	187203        	l32r	a8, 8e0e6c <_bss_end+0x3d3664>
  904661:	9827      	s32i.n	a8, a2, 28
	pTbl->_WMI_RecvMessageHandler       = WMIRecvMessageHandler;
  904663:	187204        	l32r	a8, 8e0e74 <_bss_end+0x3d366c>
  904666:	9828      	s32i.n	a8, a2, 32
	pTbl->_WMI_ServiceConnect           = WMIServiceConnect;
  904668:	187205        	l32r	a8, 8e0e7c <_bss_end+0x3d3674>
  90466b:	9829      	s32i.n	a8, a2, 36
  90466d:	d10f      	retw.n
	...

00904670 <_HIFusb_get_max_msg_len_patch>:

/*
 * -- support more than 64 bytes command on ep4 -- 
 */
int _HIFusb_get_max_msg_len_patch(hif_handle_t handle, int pipe)
{
  904670:	6c1004        	entry	a1, 32
  904673:	233cfd        	addi	a3, a3, -3
    switch(pipe) {
  904676:	222a00        	movi	a2, 0x200
  904679:	6e3202        	bltui	a3, 2, 90467f <_HIFusb_get_max_msg_len_patch+0xf>
  90467c:	226a40        	movi	a2, 0x640
            return 512;
            
        default:
            return 1600;
    }
}
  90467f:	d10f      	retw.n
  904681:	000000        	ill

00904684 <_HIFusb_isr_handler_patch>:

/*
 * -- move the usb_task to here --
 */
void _HIFusb_isr_handler_patch(hif_handle_t h)
{
  904684:	6c1004        	entry	a1, 32
    A_USB_FW_TASK();
  904687:	187184        	l32r	a8, 8e0c98 <_bss_end+0x3d3490>
  90468a:	28821d        	l32i	a8, a8, 116
  90468d:	0b8000        	callx8	a8

    _HIFusb_isr_handler();
  904690:	5b7931        	call8	8e2b58 <_HIFusb_isr_handler>
  904693:	d10f      	retw.n
  904695:	000000        	ill

00904698 <io8_rmw>:
	*(volatile uint32_t *) addr = b;
}

static inline void io8_rmw(volatile uint32_t addr,
			    const uint8_t set, const uint8_t clr)
{
  904698:	6c1006        	entry	a1, 48
  90469b:	0c0200        	memw
  90469e:	9210      	s32i.n	a2, a1, 0
	uint8_t val;

	val = ioread8(addr);
  9046a0:	0c0200        	memw
  9046a3:	8810      	l32i.n	a8, a1, 0
	val &= ~clr;
  9046a5:	c79f      	movi.n	a9, -1

#include <adf_os_io_pvt.h>

static inline uint8_t ioread8(const volatile uint32_t addr)
{
	return *(const volatile uint8_t *) addr;
  9046a7:	288000        	l8ui	a8, a8, 0
			    const uint8_t set, const uint8_t clr)
{
	uint8_t val;

	val = ioread8(addr);
	val &= ~clr;
  9046aa:	049403        	xor	a4, a9, a4

#include <adf_os_io_pvt.h>

static inline uint8_t ioread8(const volatile uint32_t addr)
{
	return *(const volatile uint8_t *) addr;
  9046ad:	080847        	extui	a8, a8, 0, 8
			    const uint8_t set, const uint8_t clr)
{
	uint8_t val;

	val = ioread8(addr);
	val &= ~clr;
  9046b0:	084801        	and	a8, a4, a8
	val |= set;
	iowrite8(addr, val);
  9046b3:	0c0200        	memw
  9046b6:	8a10      	l32i.n	a10, a1, 0
{
	uint8_t val;

	val = ioread8(addr);
	val &= ~clr;
	val |= set;
  9046b8:	038302        	or	a3, a8, a3
	return *(const volatile uint32_t *) addr;
}

static inline void iowrite8(volatile uint32_t addr, const uint8_t b)
{
	*(volatile uint8_t *) addr = b;
  9046bb:	0c0200        	memw
  9046be:	23a400        	s8i	a3, a10, 0
  9046c1:	d10f      	retw.n
	...

009046c4 <io32_rmw$constprop$0>:
	val &= ~clr;
	val |= set;
	iowrite8(addr, val);
}

static inline void io32_rmw(volatile uint32_t addr,
  9046c4:	6c1006        	entry	a1, 48
  9046c7:	0c0200        	memw
  9046ca:	9210      	s32i.n	a2, a1, 0
			    const uint32_t set, const uint32_t clr)
{
	uint32_t val;

	val = ioread32(addr);
  9046cc:	0c0200        	memw
  9046cf:	8810      	l32i.n	a8, a1, 0
	return *(const volatile uint16_t *) addr;
}

static inline uint32_t ioread32(const volatile uint32_t addr)
{
	return *(const volatile uint32_t *) addr;
  9046d1:	0c0200        	memw
  9046d4:	8880      	l32i.n	a8, a8, 0
	uint32_t val;

	val = ioread32(addr);
	val &= ~clr;
	val |= set;
	iowrite32(addr, val);
  9046d6:	0c0200        	memw
  9046d9:	8910      	l32i.n	a9, a1, 0
{
	uint32_t val;

	val = ioread32(addr);
	val &= ~clr;
	val |= set;
  9046db:	083302        	or	a3, a3, a8
	*(volatile uint16_t *) addr = b;
}

static inline void iowrite32(volatile uint32_t addr, const uint32_t b)
{
	*(volatile uint32_t *) addr = b;
  9046de:	0c0200        	memw
  9046e1:	9390      	s32i.n	a3, a9, 0
  9046e3:	d10f      	retw.n
  9046e5:	000000        	ill

009046e8 <_fw_usb_suspend_reboot>:
#if SYSTEM_MODULE_USB

#define CHECK_SOF_LOOP_CNT    50

void _fw_usb_suspend_reboot()
{
  9046e8:	6c1008        	entry	a1, 64
	volatile uint32_t gpio_in = 0;
  9046eb:	c020      	movi.n	a2, 0
  9046ed:	0c0200        	memw
  9046f0:	9214      	s32i.n	a2, a1, 16
	volatile uint32_t pupd = 0;
  9046f2:	0c0200        	memw
  9046f5:	9213      	s32i.n	a2, a1, 12
	volatile uint32_t t = 0;
  9046f7:	0c0200        	memw
  9046fa:	9212      	s32i.n	a2, a1, 8
	volatile uint32_t sof_no=0,sof_no_new=0;
	/* Set GO_TO_SUSPEND bit to USB main control register */
	io8_clr_usb(ZM_INTR_SOURCE_7_OFFSET, BIT2);
  9046fc:	1a7206        	l32r	a10, 8e0f14 <_bss_end+0x3d370c>
  9046ff:	db20      	mov.n	a11, a2
  904701:	c0c4      	movi.n	a12, 4
void _fw_usb_suspend_reboot()
{
	volatile uint32_t gpio_in = 0;
	volatile uint32_t pupd = 0;
	volatile uint32_t t = 0;
	volatile uint32_t sof_no=0,sof_no_new=0;
  904703:	0c0200        	memw
  904706:	9211      	s32i.n	a2, a1, 4
  904708:	0c0200        	memw
  90470b:	9210      	s32i.n	a2, a1, 0
	/* Set GO_TO_SUSPEND bit to USB main control register */
	io8_clr_usb(ZM_INTR_SOURCE_7_OFFSET, BIT2);
  90470d:	5bffe2        	call8	904698 <io8_rmw>
	A_PRINTF("!USB suspend\n\r");
  904710:	137184        	l32r	a3, 8e0d20 <_bss_end+0x3d3518>
  904713:	1a7207        	l32r	a10, 8e0f30 <_bss_end+0x3d3728>
  904716:	283212        	l32i	a8, a3, 72
  904719:	0b8000        	callx8	a8
  90471c:	197192        	l32r	a9, 8e0d64 <_bss_end+0x3d355c>
  90471f:	187189        	l32r	a8, 8e0d44 <_bss_end+0x3d353c>
  904722:	0c0200        	memw
  904725:	9980      	s32i.n	a9, a8, 0
#elif defined(PROJECT_K2)
	iowrite32(MAGPIE_REG_RST_STATUS_ADDR, SUS_MAGIC_PATTERN);
#endif /* #if defined(PROJECT_MAGPIE) */

	/* Reset USB FIFO */
	A_USB_RESET_FIFO();
  904727:	283229        	l32i	a8, a3, 164
  90472a:	0b8000        	callx8	a8

	/* Turn off power */
	A_USB_POWER_OFF();
  90472d:	233228        	l32i	a3, a3, 160
  904730:	0b3000        	callx8	a3

	DEBUG_SYSTEM_STATE = (DEBUG_SYSTEM_STATE&(~0xffff)) | 0x1000;
  904733:	137182        	l32r	a3, 8e0d3c <_bss_end+0x3d3534>
  904736:	187208        	l32r	a8, 8e0f58 <_bss_end+0x3d3750>
  904739:	0c0200        	memw
  90473c:	8930      	l32i.n	a9, a3, 0
  90473e:	089801        	and	a8, a9, a8
  904741:	197209        	l32r	a9, 8e0f68 <_bss_end+0x3d3760>
  904744:	098802        	or	a8, a8, a9
  904747:	0c0200        	memw
  90474a:	9830      	s32i.n	a8, a3, 0
	return *(const volatile uint16_t *) addr;
}

static inline uint32_t ioread32(const volatile uint32_t addr)
{
	return *(const volatile uint32_t *) addr;
  90474c:	13720a        	l32r	a3, 8e0f74 <_bss_end+0x3d376c>
  90474f:	0c0200        	memw
  904752:	8830      	l32i.n	a8, a3, 0
	/* disable SPI */
	spi = ioread32(0x50040);
	iowrite32(0x50040, spi & ~BIT8);
#endif
	/* set all GPIO to input */
	gpio_in = ioread32(0x1000404c);
  904754:	0c0200        	memw
  904757:	9814      	s32i.n	a8, a1, 16
	*(volatile uint16_t *) addr = b;
}

static inline void iowrite32(volatile uint32_t addr, const uint32_t b)
{
	*(volatile uint32_t *) addr = b;
  904759:	0c0200        	memw
  90475c:	9230      	s32i.n	a2, a3, 0
	return *(const volatile uint16_t *) addr;
}

static inline uint32_t ioread32(const volatile uint32_t addr)
{
	return *(const volatile uint32_t *) addr;
  90475e:	13720b        	l32r	a3, 8e0f8c <_bss_end+0x3d3784>
  904761:	0c0200        	memw
  904764:	8830      	l32i.n	a8, a3, 0
	iowrite32(0x1000404c, 0x0);

	/* set PU/PD for all GPIO except two UART pins */
	pupd = ioread32(0x10004088);
  904766:	0c0200        	memw
  904769:	9813      	s32i.n	a8, a1, 12
	*(volatile uint16_t *) addr = b;
}

static inline void iowrite32(volatile uint32_t addr, const uint32_t b)
{
	*(volatile uint32_t *) addr = b;
  90476b:	18720c        	l32r	a8, 8e0f9c <_bss_end+0x3d3794>
  90476e:	0c0200        	memw
  904771:	9830      	s32i.n	a8, a3, 0
	return *(const volatile uint16_t *) addr;
}

static inline uint32_t ioread32(const volatile uint32_t addr)
{
	return *(const volatile uint32_t *) addr;
  904773:	13720d        	l32r	a3, 8e0fa8 <_bss_end+0x3d37a0>
  904776:	0c0200        	memw
  904779:	8330      	l32i.n	a3, a3, 0
	iowrite32(0x10004088, 0xA982AA6A);

	sof_no = ioread32(0x10004);
  90477b:	0c0200        	memw
  90477e:	9311      	s32i.n	a3, a1, 4
	for (t = 0; t < CHECK_SOF_LOOP_CNT; t++)
  904780:	0c0200        	memw
  904783:	9212      	s32i.n	a2, a1, 8
  904785:	c321      	movi.n	a2, 49
  904787:	600057        	j	9047e2 <_fw_usb_suspend_reboot+0xfa>
  90478a:	000013        	srai	a0, a0, 16
	{
		A_DELAY_USECS(1000);    /* delay 1ms */
  90478d:	71842a        	ball	a8, a1, 9047bb <_fw_usb_suspend_reboot+0xd3>
  904790:	3ae823        	excw
  904793:	323a0b        	excw
  904796:	300013        	excw
  904799:	720d0c        	bbs	a0, a2, 9047a9 <_fw_usb_suspend_reboot+0xc1>
  90479c:	020083        	excw
  90479f:	300c02        	excw
		sof_no_new = ioread32(0x10004);
  9047a2:	009310        	slli	a3, a9, 32

		if(sof_no_new == sof_no)
  9047a5:	0c0200        	memw
  9047a8:	8810      	l32i.n	a8, a1, 0
  9047aa:	0c0200        	memw
  9047ad:	8311      	l32i.n	a3, a1, 4
  9047af:	738919        	bne	a8, a3, 9047cc <_fw_usb_suspend_reboot+0xe4>
	 * Reset "printf" module patch point(RAM to ROM)
	 * when K2 warm start or suspend,
	 * which fixed the error issue cause by redownload
	 * another different firmware.
	 */
	_indir_tbl.cmnos.printf._printf = save_cmnos_printf;
  9047b2:	12718b        	l32r	a2, 8e0de0 <_bss_end+0x3d35d8>
  9047b5:	8320      	l32i.n	a3, a2, 0
  9047b7:	127184        	l32r	a2, 8e0dc8 <_bss_end+0x3d35c0>
  9047ba:	232612        	s32i	a3, a2, 72

	/* !!!!!!!!!!!!!!!!!!!!!!!!!!!!!!!!!!!!!!!!!!!!!!!!!!!!!
	 * setting the go suspend here, power down right away!!!
	 */
	if (t != CHECK_SOF_LOOP_CNT)   /* not time out */
  9047bd:	0c0200        	memw
  9047c0:	8312      	l32i.n	a3, a1, 8
  9047c2:	c322      	movi.n	a2, 50
  9047c4:	723925        	bne	a3, a2, 9047ed <_fw_usb_suspend_reboot+0x105>
  9047c7:	60002a        	j	9047f5 <_fw_usb_suspend_reboot+0x10d>
  9047ca:	00000c        	sub	a0, a0, a0
		A_DELAY_USECS(1000);    /* delay 1ms */
		sof_no_new = ioread32(0x10004);

		if(sof_no_new == sof_no)
			break;
		sof_no = sof_no_new;
  9047cd:	020083        	excw
  9047d0:	100c02        	l32r	a0, 8c77d8 <_bss_end+0x3b9fd0>
  9047d3:	009311        	slli	a3, a9, 16
	/* set PU/PD for all GPIO except two UART pins */
	pupd = ioread32(0x10004088);
	iowrite32(0x10004088, 0xA982AA6A);

	sof_no = ioread32(0x10004);
	for (t = 0; t < CHECK_SOF_LOOP_CNT; t++)
  9047d6:	0c0200        	memw
  9047d9:	8312      	l32i.n	a3, a1, 8
  9047db:	b133      	addi.n	a3, a3, 1
  9047dd:	0c0200        	memw
  9047e0:	9312      	s32i.n	a3, a1, 8
  9047e2:	0c0200        	memw
  9047e5:	8312      	l32i.n	a3, a1, 8
  9047e7:	732ba1        	bgeu	a2, a3, 90478c <_fw_usb_suspend_reboot+0xa4>
  9047ea:	63ffc4        	j	9047b2 <_fw_usb_suspend_reboot+0xca>

	/* !!!!!!!!!!!!!!!!!!!!!!!!!!!!!!!!!!!!!!!!!!!!!!!!!!!!!
	 * setting the go suspend here, power down right away!!!
	 */
	if (t != CHECK_SOF_LOOP_CNT)   /* not time out */
		io32_set(0x10000, BIT3);
  9047ed:	1a720e        	l32r	a10, 8e1028 <_bss_end+0x3d3820>
  9047f0:	c0b8      	movi.n	a11, 8
  9047f2:	5bffb4        	call8	9046c4 <io32_rmw$constprop$0>

	DEBUG_SYSTEM_STATE = (DEBUG_SYSTEM_STATE&(~0xffff)) | 0x1100;
  9047f5:	127182        	l32r	a2, 8e0e00 <_bss_end+0x3d35f8>
  9047f8:	137208        	l32r	a3, 8e1018 <_bss_end+0x3d3810>
  9047fb:	0c0200        	memw
  9047fe:	8820      	l32i.n	a8, a2, 0
  904800:	19720f        	l32r	a9, 8e103c <_bss_end+0x3d3834>
  904803:	038801        	and	a8, a8, a3
  904806:	098802        	or	a8, a8, a9
  904809:	0c0200        	memw
  90480c:	9820      	s32i.n	a8, a2, 0

	/* restore gpio setting */
	iowrite32(0x10004054, jtag);
	iowrite32(0x50040, spi);
#endif
	iowrite32(0x1000404c, gpio_in);
  90480e:	0c0200        	memw
  904811:	8914      	l32i.n	a9, a1, 16
  904813:	18720a        	l32r	a8, 8e103c <_bss_end+0x3d3834>
	/* since we still need to touch mac_base address after resuming back,
	 * so that reset mac can't be done in ResetFifo function,
	 * move to here... whole mac control reset.... (bit1)
	 */
	iowrite32(MAGPIE_REG_RST_PWDN_CTRL_ADDR, BIT1);
	io32_set(MAGPIE_REG_RST_PWDN_CTRL_ADDR, BIT0);
  904816:	c0b1      	movi.n	a11, 1
	*(volatile uint16_t *) addr = b;
}

static inline void iowrite32(volatile uint32_t addr, const uint32_t b)
{
	*(volatile uint32_t *) addr = b;
  904818:	0c0200        	memw
  90481b:	9980      	s32i.n	a9, a8, 0
	/* restore gpio setting */
	iowrite32(0x10004054, jtag);
	iowrite32(0x50040, spi);
#endif
	iowrite32(0x1000404c, gpio_in);
	iowrite32(0x10004088, pupd);
  90481d:	0c0200        	memw
  904820:	8913      	l32i.n	a9, a1, 12
  904822:	18720b        	l32r	a8, 8e1050 <_bss_end+0x3d3848>
  904825:	0c0200        	memw
  904828:	9980      	s32i.n	a9, a8, 0

	DEBUG_SYSTEM_STATE = (DEBUG_SYSTEM_STATE&(~0xffff)) | 0x1200;
  90482a:	0c0200        	memw
  90482d:	8820      	l32i.n	a8, a2, 0
  90482f:	038301        	and	a3, a8, a3
  904832:	187210        	l32r	a8, 8e1074 <_bss_end+0x3d386c>
  904835:	083302        	or	a3, a3, a8
  904838:	0c0200        	memw
  90483b:	9320      	s32i.n	a3, a2, 0
  90483d:	137211        	l32r	a3, 8e1084 <_bss_end+0x3d387c>
  904840:	c082      	movi.n	a8, 2
  904842:	0c0200        	memw
  904845:	9830      	s32i.n	a8, a3, 0
	/* since we still need to touch mac_base address after resuming back,
	 * so that reset mac can't be done in ResetFifo function,
	 * move to here... whole mac control reset.... (bit1)
	 */
	iowrite32(MAGPIE_REG_RST_PWDN_CTRL_ADDR, BIT1);
	io32_set(MAGPIE_REG_RST_PWDN_CTRL_ADDR, BIT0);
  904847:	033a02        	or	a10, a3, a3
  90484a:	5bff9e        	call8	9046c4 <io32_rmw$constprop$0>
  90484d:	c080      	movi.n	a8, 0
  90484f:	0c0200        	memw
  904852:	9830      	s32i.n	a8, a3, 0
	iowrite32(MAGPIE_REG_RST_PWDN_CTRL_ADDR, 0);
	A_DELAY_USECS(1000);
  904854:	137184        	l32r	a3, 8e0e64 <_bss_end+0x3d365c>
  904857:	2a3ae8        	movi	a10, 0x3e8
  90485a:	28323a        	l32i	a8, a3, 232
  90485d:	0b8000        	callx8	a8

#include <adf_os_io_pvt.h>

static inline uint8_t ioread8(const volatile uint32_t addr)
{
	return *(const volatile uint8_t *) addr;
  904860:	1871cd        	l32r	a8, 8e0f94 <_bss_end+0x3d378c>

	/* disable ep3 int enable, so that resume back won't
	 * send wdt magic pattern out!!! */
	mUSB_STATUS_IN_INT_DISABLE();
  904863:	2a0ac0        	movi	a10, 192
  904866:	298000        	l8ui	a9, a8, 0
  904869:	090947        	extui	a9, a9, 0, 8
  90486c:	0a9902        	or	a9, a9, a10
	return *(const volatile uint32_t *) addr;
}

static inline void iowrite8(volatile uint32_t addr, const uint8_t b)
{
	*(volatile uint8_t *) addr = b;
  90486f:	0c0200        	memw
  904872:	298400        	s8i	a9, a8, 0

	MAGPIE_REG_USB_RX0_SWAP_DATA = 0x1;
  904875:	1971dc        	l32r	a9, 8e0fe8 <_bss_end+0x3d37e0>
  904878:	c081      	movi.n	a8, 1
  90487a:	0c0200        	memw
  90487d:	9890      	s32i.n	a8, a9, 0
	MAGPIE_REG_USB_TX0_SWAP_DATA = 0x1;
  90487f:	1971dd        	l32r	a9, 8e0ff4 <_bss_end+0x3d37ec>
  904882:	0c0200        	memw
  904885:	9890      	s32i.n	a8, a9, 0
	MAGPIE_REG_USB_RX1_SWAP_DATA = 0x1;
  904887:	1971de        	l32r	a9, 8e1000 <_bss_end+0x3d37f8>
  90488a:	0c0200        	memw
  90488d:	9890      	s32i.n	a8, a9, 0
	MAGPIE_REG_USB_RX2_SWAP_DATA = 0x1;
  90488f:	1971df        	l32r	a9, 8e100c <_bss_end+0x3d3804>
  904892:	0c0200        	memw
  904895:	9890      	s32i.n	a8, a9, 0

	if (((DEBUG_SYSTEM_STATE&~(0x0000ffff))>>16 == 0x5342)) {
  904897:	0c0200        	memw
  90489a:	8820      	l32i.n	a8, a2, 0
  90489c:	127183        	l32r	a2, 8e0ea8 <_bss_end+0x3d36a0>
  90489f:	08085f        	extui	a8, a8, 16, 16
  9048a2:	72890a        	bne	a8, a2, 9048b0 <_fw_usb_suspend_reboot+0x1c8>
	*(volatile uint16_t *) addr = b;
}

static inline void iowrite32(volatile uint32_t addr, const uint32_t b)
{
	*(volatile uint32_t *) addr = b;
  9048a5:	127212        	l32r	a2, 8e10f0 <_bss_end+0x3d38e8>
  9048a8:	283a00        	movi	a8, 0x300
  9048ab:	0c0200        	memw
  9048ae:	9820      	s32i.n	a8, a2, 0
		/* UART_SEL and SPI_SEL */
		iowrite32(0x50040, 0x300 | 0 | (1 >> 1) << 12);
	}

	/* Jump to boot code */
	A_USB_JUMP_BOOT();
  9048b0:	22322b        	l32i	a2, a3, 172
  9048b3:	0b2000        	callx8	a2
  9048b6:	d10f      	retw.n

009048b8 <_fw_usb_fw_task>:
 * usb zero length interrupt should not clear by s/w, h/w will handle that
 * complete suspend handle, configure gpio, turn off related function,
 * slow down the pll for stable issue
 */
void _fw_usb_fw_task(void)
{
  9048b8:	6c1004        	entry	a1, 32

#include <adf_os_io_pvt.h>

static inline uint8_t ioread8(const volatile uint32_t addr)
{
	return *(const volatile uint8_t *) addr;
  9048bb:	127213        	l32r	a2, 8e1108 <_bss_end+0x3d3900>
  9048be:	232000        	l8ui	a3, a2, 0
  9048c1:	030347        	extui	a3, a3, 0, 8
	if (usb_interrupt_level1 & BIT5)
	{
		vUsb_Data_In();
	}
#endif
	if (usb_interrupt_level1 & BIT4) {
  9048c4:	7b3711        	bbci	a3, 27, 9048d9 <_fw_usb_fw_task+0x21>
  9048c7:	127214        	l32r	a2, 8e1118 <_bss_end+0x3d3910>
  9048ca:	222000        	l8ui	a2, a2, 0
		usb_interrupt_level2 =
			ioread8_usb(ZM_INTR_SOURCE_4_OFFSET);

		if(usb_interrupt_level2 & BIT6)
  9048cd:	792708        	bbci	a2, 25, 9048d9 <_fw_usb_fw_task+0x21>
			A_USB_REG_OUT(); /* vUsb_Reg_Out() */
  9048d0:	127184        	l32r	a2, 8e0ee0 <_bss_end+0x3d36d8>
  9048d3:	222232        	l32i	a2, a2, 200
  9048d6:	0b2000        	callx8	a2
	}

	if (usb_interrupt_level1 & BIT6) {
  9048d9:	c420      	movi.n	a2, 64
  9048db:	723014        	bnone	a3, a2, 9048f3 <_fw_usb_fw_task+0x3b>
  9048de:	187215        	l32r	a8, 8e1134 <_bss_end+0x3d392c>
  9048e1:	288000        	l8ui	a8, a8, 0
  9048e4:	080847        	extui	a8, a8, 0, 8
		/* zfGenWatchDogEvent(); ?? */
		usb_interrupt_level2 =
			ioread8_usb(ZM_INTR_SOURCE_6_OFFSET);
		if(usb_interrupt_level2 & BIT6)
  9048e7:	728008        	bnone	a8, a2, 9048f3 <_fw_usb_fw_task+0x3b>
			A_USB_STATUS_IN(); /* vUsb_Status_In() */
